[36m
Compiling kernel static lib - rpi4
(B[m[36m
Linking kernel ELF - rpi4
(B[m[36m
Launching objdump
(B[m
target/aarch64-unknown-none-softfloat/release/kernel:     file format elf64-littleaarch64


Disassembly of section .text:

0000000000080000 <_start>:
   80000:	d5384240 	mrs	x0, currentel
   80004:	f100201f 	cmp	x0, #0x8
   80008:	54000301 	b.ne	80068 <_start+0x68>  // b.any
   8000c:	d53800a1 	mrs	x1, mpidr_el1
   80010:	92400421 	and	x1, x1, #0x3
   80014:	580003a2 	ldr	x2, 80088 <BOOT_CORE_ID>
   80018:	eb02003f 	cmp	x1, x2
   8001c:	54000261 	b.ne	80068 <_start+0x68>  // b.any
   80020:	90000040 	adrp	x0, 88000 <libkernel::bsp::device_driver::mini_uart::MINI_UART>
   80024:	91000000 	add	x0, x0, #0x0
   80028:	b0000041 	adrp	x1, 89000 <__bss_end_exclusive>
   8002c:	91000021 	add	x1, x1, #0x0
   80030:	eb01001f 	cmp	x0, x1
   80034:	54000060 	b.eq	80040 <_start+0x40>  // b.none
   80038:	a8817c1f 	stp	xzr, xzr, [x0], #16
   8003c:	17fffffd 	b	80030 <_start+0x30>
   80040:	90000000 	adrp	x0, 80000 <_start>
   80044:	91000000 	add	x0, x0, #0x0
   80048:	9100001f 	mov	sp, x0
   8004c:	b0000040 	adrp	x0, 89000 <__bss_end_exclusive>
   80050:	91000000 	add	x0, x0, #0x0
   80054:	91400401 	add	x1, x0, #0x1, lsl #12
   80058:	a8817c1f 	stp	xzr, xzr, [x0], #16
   8005c:	eb01001f 	cmp	x0, x1
   80060:	54ffffc1 	b.ne	80058 <_start+0x58>  // b.any
   80064:	1400000b 	b	80090 <_start_rust>
   80068:	d503205f 	wfe
   8006c:	17ffffff 	b	80068 <_start+0x68>

0000000000080070 <clear_frame>:
   80070:	91400401 	add	x1, x0, #0x1, lsl #12
   80074:	a8817c1f 	stp	xzr, xzr, [x0], #16
   80078:	eb01001f 	cmp	x0, x1
   8007c:	54ffffc1 	b.ne	80074 <clear_frame+0x4>  // b.any
   80080:	d65f03c0 	ret
   80084:	00000000 	udf	#0

0000000000080088 <BOOT_CORE_ID>:
	...

0000000000080090 <_start_rust>:
   80090:	52800069 	mov	w9, #0x3                   	// #3
   80094:	aa1f03e8 	mov	x8, xzr
   80098:	d51ce109 	msr	cnthctl_el2, x9
   8009c:	b0000049 	adrp	x9, 89000 <__bss_end_exclusive>
   800a0:	91000129 	add	x9, x9, #0x0
   800a4:	d51ce068 	msr	cntvoff_el2, x8
   800a8:	d341bd28 	ubfx	x8, x9, #1, #47
   800ac:	52b0000a 	mov	w10, #0x80000000            	// #-2147483648
   800b0:	d000000b 	adrp	x11, 82000 <<libkernel::memory::arch_mmu::translation_entry::Descriptor as core::fmt::Display>::fmt+0xac>
   800b4:	9139f16b 	add	x11, x11, #0xe7c
   800b8:	528078ac 	mov	w12, #0x3c5                 	// #965
   800bc:	d51c110a 	msr	hcr_el2, x10
   800c0:	d37ff908 	lsl	x8, x8, #1
   800c4:	d51c400c 	msr	spsr_el2, x12
   800c8:	d51c402b 	msr	elr_el2, x11
   800cc:	90000009 	adrp	x9, 80000 <_start>
   800d0:	91000129 	add	x9, x9, #0x0
   800d4:	d51c4109 	msr	sp_el1, x9
   800d8:	d5182008 	msr	ttbr0_el1, x8
   800dc:	d69f03e0 	eret
   800e0:	d4200020 	brk	#0x1

00000000000800e4 <core::ops::function::FnOnce::call_once>:
   800e4:	f940001f 	ldr	xzr, [x0]
   800e8:	14000000 	b	800e8 <core::ops::function::FnOnce::call_once+0x4>

00000000000800ec <core::panicking::panic_fmt>:
   800ec:	d100c3ff 	sub	sp, sp, #0x30
   800f0:	d0000028 	adrp	x8, 86000 <compiler_builtins::mem::__llvm_memset_element_unordered_atomic_16+0x1774>
   800f4:	910b2108 	add	x8, x8, #0x2c8
   800f8:	90000029 	adrp	x9, 84000 <kernel_main+0x1184>
   800fc:	913fe129 	add	x9, x9, #0xff8
   80100:	a90187e0 	stp	x0, x1, [sp, #24]
   80104:	910023e0 	add	x0, sp, #0x8
   80108:	a900a7e8 	stp	x8, x9, [sp, #8]
   8010c:	52800028 	mov	w8, #0x1                   	// #1
   80110:	3900a3e8 	strb	w8, [sp, #40]
   80114:	94000b29 	bl	82db8 <rust_begin_unwind>
   80118:	d4200020 	brk	#0x1

000000000008011c <core::ptr::drop_in_place<&core::iter::adapters::copied::Copied<core::slice::iter::Iter<u8>>>>:
   8011c:	d65f03c0 	ret

0000000000080120 <<T as core::any::Any>::type_id>:
   80120:	d29887e0 	mov	x0, #0xc43f                	// #50239
   80124:	f2b8daa0 	movk	x0, #0xc6d5, lsl #16
   80128:	f2deb3c0 	movk	x0, #0xf59e, lsl #32
   8012c:	f2eddc20 	movk	x0, #0x6ee1, lsl #48
   80130:	d65f03c0 	ret

0000000000080134 <core::fmt::num::imp::<impl core::fmt::Display for u64>::fmt>:
   80134:	d10103ff 	sub	sp, sp, #0x40
   80138:	f9001bfe 	str	x30, [sp, #48]
   8013c:	f940000a 	ldr	x10, [x0]
   80140:	aa0103e8 	mov	x8, x1
   80144:	d344fd49 	lsr	x9, x10, #4
   80148:	f109c53f 	cmp	x9, #0x271
   8014c:	b0000029 	adrp	x9, 85000 <compiler_builtins::mem::__llvm_memset_element_unordered_atomic_16+0x774>
   80150:	9102b129 	add	x9, x9, #0xac
   80154:	540004e3 	b.cc	801f0 <core::fmt::num::imp::<impl core::fmt::Display for u64>::fmt+0xbc>  // b.lo, b.ul, b.last
   80158:	d28b296b 	mov	x11, #0x594b                	// #22859
   8015c:	529c1ff0 	mov	w16, #0xe0ff                	// #57599
   80160:	f2a710cb 	movk	x11, #0x3886, lsl #16
   80164:	aa1f03f1 	mov	x17, xzr
   80168:	f2d8bacb 	movk	x11, #0xc5d6, lsl #32
   8016c:	529b1e0c 	mov	w12, #0xd8f0                	// #55536
   80170:	f2e68dab 	movk	x11, #0x346d, lsl #48
   80174:	52828f6d 	mov	w13, #0x147b                	// #5243
   80178:	12800c6e 	mov	w14, #0xffffff9c            	// #-100
   8017c:	910023ef 	add	x15, sp, #0x8
   80180:	72a0beb0 	movk	w16, #0x5f5, lsl #16
   80184:	aa0a03e0 	mov	x0, x10
   80188:	9bcb7d4a 	umulh	x10, x10, x11
   8018c:	eb10001f 	cmp	x0, x16
   80190:	d34bfd4a 	lsr	x10, x10, #11
   80194:	1b0c0152 	madd	w18, w10, w12, w0
   80198:	53023e41 	ubfx	w1, w18, #2, #14
   8019c:	1b0d7c21 	mul	w1, w1, w13
   801a0:	53117c21 	lsr	w1, w1, #17
   801a4:	1b0e4822 	madd	w2, w1, w14, w18
   801a8:	8b214521 	add	x1, x9, w1, uxtw #1
   801ac:	aa1103f2 	mov	x18, x17
   801b0:	8b222531 	add	x17, x9, w2, uxth #1
   801b4:	8b1201e2 	add	x2, x15, x18
   801b8:	39400423 	ldrb	w3, [x1, #1]
   801bc:	39400021 	ldrb	w1, [x1]
   801c0:	39400624 	ldrb	w4, [x17, #1]
   801c4:	39009043 	strb	w3, [x2, #36]
   801c8:	39400223 	ldrb	w3, [x17]
   801cc:	d1001251 	sub	x17, x18, #0x4
   801d0:	39008c41 	strb	w1, [x2, #35]
   801d4:	39009844 	strb	w4, [x2, #38]
   801d8:	39009443 	strb	w3, [x2, #37]
   801dc:	54fffd48 	b.hi	80184 <core::fmt::num::imp::<impl core::fmt::Display for u64>::fmt+0x50>  // b.pmore
   801e0:	91008e4b 	add	x11, x18, #0x23
   801e4:	f1018d5f 	cmp	x10, #0x63
   801e8:	540000a8 	b.hi	801fc <core::fmt::num::imp::<impl core::fmt::Display for u64>::fmt+0xc8>  // b.pmore
   801ec:	14000014 	b	8023c <core::fmt::num::imp::<impl core::fmt::Display for u64>::fmt+0x108>
   801f0:	528004eb 	mov	w11, #0x27                  	// #39
   801f4:	f1018d5f 	cmp	x10, #0x63
   801f8:	54000229 	b.ls	8023c <core::fmt::num::imp::<impl core::fmt::Display for u64>::fmt+0x108>  // b.plast
   801fc:	53023d4c 	ubfx	w12, w10, #2, #14
   80200:	52828f6d 	mov	w13, #0x147b                	// #5243
   80204:	d100096e 	sub	x14, x11, #0x2
   80208:	1b0d7d8c 	mul	w12, w12, w13
   8020c:	12800c6d 	mov	w13, #0xffffff9c            	// #-100
   80210:	53117d8c 	lsr	w12, w12, #17
   80214:	1b0d298a 	madd	w10, w12, w13, w10
   80218:	910023ed 	add	x13, sp, #0x8
   8021c:	8b0b01ad 	add	x13, x13, x11
   80220:	aa0e03eb 	mov	x11, x14
   80224:	8b2a252a 	add	x10, x9, w10, uxth #1
   80228:	3940054f 	ldrb	w15, [x10, #1]
   8022c:	39400150 	ldrb	w16, [x10]
   80230:	aa0c03ea 	mov	x10, x12
   80234:	381ff1af 	sturb	w15, [x13, #-1]
   80238:	381fe1b0 	sturb	w16, [x13, #-2]
   8023c:	f100295f 	cmp	x10, #0xa
   80240:	540000e2 	b.cs	8025c <core::fmt::num::imp::<impl core::fmt::Display for u64>::fmt+0x128>  // b.hs, b.nlast
   80244:	910023e9 	add	x9, sp, #0x8
   80248:	1100c14a 	add	w10, w10, #0x30
   8024c:	8b0b012c 	add	x12, x9, x11
   80250:	d1000569 	sub	x9, x11, #0x1
   80254:	381ff18a 	sturb	w10, [x12, #-1]
   80258:	14000009 	b	8027c <core::fmt::num::imp::<impl core::fmt::Display for u64>::fmt+0x148>
   8025c:	8b0a0529 	add	x9, x9, x10, lsl #1
   80260:	910023ea 	add	x10, sp, #0x8
   80264:	8b0b014a 	add	x10, x10, x11
   80268:	3940052c 	ldrb	w12, [x9, #1]
   8026c:	3940012d 	ldrb	w13, [x9]
   80270:	d1000969 	sub	x9, x11, #0x2
   80274:	381ff14c 	sturb	w12, [x10, #-1]
   80278:	381fe14d 	sturb	w13, [x10, #-2]
   8027c:	910023ea 	add	x10, sp, #0x8
   80280:	528004eb 	mov	w11, #0x27                  	// #39
   80284:	8b090143 	add	x3, x10, x9
   80288:	cb090164 	sub	x4, x11, x9
   8028c:	d0000021 	adrp	x1, 86000 <compiler_builtins::mem::__llvm_memset_element_unordered_atomic_16+0x1774>
   80290:	910b2021 	add	x1, x1, #0x2c8
   80294:	aa0803e0 	mov	x0, x8
   80298:	aa1f03e2 	mov	x2, xzr
   8029c:	94000004 	bl	802ac <core::fmt::Formatter::pad_integral>
   802a0:	f9401bfe 	ldr	x30, [sp, #48]
   802a4:	910103ff 	add	sp, sp, #0x40
   802a8:	d65f03c0 	ret

00000000000802ac <core::fmt::Formatter::pad_integral>:
   802ac:	d101c3ff 	sub	sp, sp, #0x70
   802b0:	a9017bfd 	stp	x29, x30, [sp, #16]
   802b4:	a9026ffc 	stp	x28, x27, [sp, #32]
   802b8:	a90367fa 	stp	x26, x25, [sp, #48]
   802bc:	a9045ff8 	stp	x24, x23, [sp, #64]
   802c0:	a90557f6 	stp	x22, x21, [sp, #80]
   802c4:	a9064ff4 	stp	x20, x19, [sp, #96]
   802c8:	b9403008 	ldr	w8, [x0, #48]
   802cc:	52800569 	mov	w9, #0x2b                  	// #43
   802d0:	52a0022b 	mov	w11, #0x110000              	// #1114112
   802d4:	aa0403f3 	mov	x19, x4
   802d8:	aa0303f4 	mov	x20, x3
   802dc:	aa0003f5 	mov	x21, x0
   802e0:	9240010a 	and	x10, x8, #0x1
   802e4:	aa0203f6 	mov	x22, x2
   802e8:	7100015f 	cmp	w10, #0x0
   802ec:	1a890178 	csel	w24, w11, w9, eq  // eq = none
   802f0:	8b040149 	add	x9, x10, x4
   802f4:	371000a8 	tbnz	w8, #2, 80308 <core::fmt::Formatter::pad_integral+0x5c>
   802f8:	aa1f03f7 	mov	x23, xzr
   802fc:	f9400aaa 	ldr	x10, [x21, #16]
   80300:	b50004aa 	cbnz	x10, 80394 <core::fmt::Formatter::pad_integral+0xe8>
   80304:	14000031 	b	803c8 <core::fmt::Formatter::pad_integral+0x11c>
   80308:	aa0103f7 	mov	x23, x1
   8030c:	aa1603ec 	mov	x12, x22
   80310:	b40003d6 	cbz	x22, 80388 <core::fmt::Formatter::pad_integral+0xdc>
   80314:	f10006df 	cmp	x22, #0x1
   80318:	54000081 	b.ne	80328 <core::fmt::Formatter::pad_integral+0x7c>  // b.any
   8031c:	aa1f03ec 	mov	x12, xzr
   80320:	aa1703ea 	mov	x10, x23
   80324:	14000013 	b	80370 <core::fmt::Formatter::pad_integral+0xc4>
   80328:	927ffacb 	and	x11, x22, #0xfffffffffffffffe
   8032c:	aa1f03ec 	mov	x12, xzr
   80330:	aa1f03ed 	mov	x13, xzr
   80334:	8b0b02ea 	add	x10, x23, x11
   80338:	910006ee 	add	x14, x23, #0x1
   8033c:	aa0b03ef 	mov	x15, x11
   80340:	38dff1d0 	ldursb	w16, [x14, #-1]
   80344:	39c001d1 	ldrsb	w17, [x14]
   80348:	910009ce 	add	x14, x14, #0x2
   8034c:	3101061f 	cmn	w16, #0x41
   80350:	9a8cd58c 	cinc	x12, x12, gt
   80354:	3101063f 	cmn	w17, #0x41
   80358:	9a8dd5ad 	cinc	x13, x13, gt
   8035c:	f10009ef 	subs	x15, x15, #0x2
   80360:	54ffff01 	b.ne	80340 <core::fmt::Formatter::pad_integral+0x94>  // b.any
   80364:	8b0c01ac 	add	x12, x13, x12
   80368:	eb16017f 	cmp	x11, x22
   8036c:	540000e0 	b.eq	80388 <core::fmt::Formatter::pad_integral+0xdc>  // b.none
   80370:	8b1602eb 	add	x11, x23, x22
   80374:	38c0154d 	ldrsb	w13, [x10], #1
   80378:	310105bf 	cmn	w13, #0x41
   8037c:	9a8cd58c 	cinc	x12, x12, gt
   80380:	eb0b015f 	cmp	x10, x11
   80384:	54ffff81 	b.ne	80374 <core::fmt::Formatter::pad_integral+0xc8>  // b.any
   80388:	8b090189 	add	x9, x12, x9
   8038c:	f9400aaa 	ldr	x10, [x21, #16]
   80390:	b40001ca 	cbz	x10, 803c8 <core::fmt::Formatter::pad_integral+0x11c>
   80394:	f9400eaa 	ldr	x10, [x21, #24]
   80398:	eb09015c 	subs	x28, x10, x9
   8039c:	54000169 	b.ls	803c8 <core::fmt::Formatter::pad_integral+0x11c>  // b.plast
   803a0:	37180508 	tbnz	w8, #3, 80440 <core::fmt::Formatter::pad_integral+0x194>
   803a4:	3940e2a8 	ldrb	w8, [x21, #56]
   803a8:	71000d1f 	cmp	w8, #0x3
   803ac:	1a9f1508 	csinc	w8, w8, wzr, ne  // ne = any
   803b0:	7200051f 	tst	w8, #0x3
   803b4:	54000760 	b.eq	804a0 <core::fmt::Formatter::pad_integral+0x1f4>  // b.none
   803b8:	7100051f 	cmp	w8, #0x1
   803bc:	54000761 	b.ne	804a8 <core::fmt::Formatter::pad_integral+0x1fc>  // b.any
   803c0:	aa1f03fb 	mov	x27, xzr
   803c4:	1400003d 	b	804b8 <core::fmt::Formatter::pad_integral+0x20c>
   803c8:	a94056b9 	ldp	x25, x21, [x21]
   803cc:	2a1803e2 	mov	w2, w24
   803d0:	aa1703e3 	mov	x3, x23
   803d4:	aa1603e4 	mov	x4, x22
   803d8:	aa1903e0 	mov	x0, x25
   803dc:	aa1503e1 	mov	x1, x21
   803e0:	9400006a 	bl	80588 <core::fmt::Formatter::pad_integral::write_prefix>
   803e4:	36000160 	tbz	w0, #0, 80410 <core::fmt::Formatter::pad_integral+0x164>
   803e8:	52800039 	mov	w25, #0x1                   	// #1
   803ec:	2a1903e0 	mov	w0, w25
   803f0:	a9464ff4 	ldp	x20, x19, [sp, #96]
   803f4:	a94557f6 	ldp	x22, x21, [sp, #80]
   803f8:	a9445ff8 	ldp	x24, x23, [sp, #64]
   803fc:	a94367fa 	ldp	x26, x25, [sp, #48]
   80400:	a9426ffc 	ldp	x28, x27, [sp, #32]
   80404:	a9417bfd 	ldp	x29, x30, [sp, #16]
   80408:	9101c3ff 	add	sp, sp, #0x70
   8040c:	d65f03c0 	ret
   80410:	f9400ea3 	ldr	x3, [x21, #24]
   80414:	aa1903e0 	mov	x0, x25
   80418:	aa1403e1 	mov	x1, x20
   8041c:	aa1303e2 	mov	x2, x19
   80420:	a9464ff4 	ldp	x20, x19, [sp, #96]
   80424:	a94557f6 	ldp	x22, x21, [sp, #80]
   80428:	a9445ff8 	ldp	x24, x23, [sp, #64]
   8042c:	a94367fa 	ldp	x26, x25, [sp, #48]
   80430:	a9426ffc 	ldp	x28, x27, [sp, #32]
   80434:	a9417bfd 	ldp	x29, x30, [sp, #16]
   80438:	9101c3ff 	add	sp, sp, #0x70
   8043c:	d61f0060 	br	x3
   80440:	a9406eba 	ldp	x26, x27, [x21]
   80444:	52800039 	mov	w25, #0x1                   	// #1
   80448:	2a1803e2 	mov	w2, w24
   8044c:	b94036a8 	ldr	w8, [x21, #52]
   80450:	aa1703e3 	mov	x3, x23
   80454:	aa1603e4 	mov	x4, x22
   80458:	3940e2bd 	ldrb	w29, [x21, #56]
   8045c:	aa1a03e0 	mov	x0, x26
   80460:	3900e2b9 	strb	w25, [x21, #56]
   80464:	b9000fe8 	str	w8, [sp, #12]
   80468:	52800608 	mov	w8, #0x30                  	// #48
   8046c:	aa1b03e1 	mov	x1, x27
   80470:	b90036a8 	str	w8, [x21, #52]
   80474:	94000045 	bl	80588 <core::fmt::Formatter::pad_integral::write_prefix>
   80478:	3707fba0 	tbnz	w0, #0, 803ec <core::fmt::Formatter::pad_integral+0x140>
   8047c:	91000796 	add	x22, x28, #0x1
   80480:	f10006d6 	subs	x22, x22, #0x1
   80484:	54000640 	b.eq	8054c <core::fmt::Formatter::pad_integral+0x2a0>  // b.none
   80488:	f9401368 	ldr	x8, [x27, #32]
   8048c:	aa1a03e0 	mov	x0, x26
   80490:	52800601 	mov	w1, #0x30                  	// #48
   80494:	d63f0100 	blr	x8
   80498:	3607ff40 	tbz	w0, #0, 80480 <core::fmt::Formatter::pad_integral+0x1d4>
   8049c:	17ffffd3 	b	803e8 <core::fmt::Formatter::pad_integral+0x13c>
   804a0:	aa1c03fb 	mov	x27, x28
   804a4:	14000004 	b	804b4 <core::fmt::Formatter::pad_integral+0x208>
   804a8:	91000789 	add	x9, x28, #0x1
   804ac:	d341ff88 	lsr	x8, x28, #1
   804b0:	d341fd3b 	lsr	x27, x9, #1
   804b4:	aa0803fc 	mov	x28, x8
   804b8:	a9406ab9 	ldp	x25, x26, [x21]
   804bc:	9100079c 	add	x28, x28, #0x1
   804c0:	b94036b5 	ldr	w21, [x21, #52]
   804c4:	f100079c 	subs	x28, x28, #0x1
   804c8:	540000e0 	b.eq	804e4 <core::fmt::Formatter::pad_integral+0x238>  // b.none
   804cc:	f9401348 	ldr	x8, [x26, #32]
   804d0:	aa1903e0 	mov	x0, x25
   804d4:	2a1503e1 	mov	w1, w21
   804d8:	d63f0100 	blr	x8
   804dc:	3607ff40 	tbz	w0, #0, 804c4 <core::fmt::Formatter::pad_integral+0x218>
   804e0:	17ffffc2 	b	803e8 <core::fmt::Formatter::pad_integral+0x13c>
   804e4:	714442bf 	cmp	w21, #0x110, lsl #12
   804e8:	54fff800 	b.eq	803e8 <core::fmt::Formatter::pad_integral+0x13c>  // b.none
   804ec:	aa1903e0 	mov	x0, x25
   804f0:	aa1a03e1 	mov	x1, x26
   804f4:	2a1803e2 	mov	w2, w24
   804f8:	aa1703e3 	mov	x3, x23
   804fc:	aa1603e4 	mov	x4, x22
   80500:	94000022 	bl	80588 <core::fmt::Formatter::pad_integral::write_prefix>
   80504:	3707f720 	tbnz	w0, #0, 803e8 <core::fmt::Formatter::pad_integral+0x13c>
   80508:	f9400f48 	ldr	x8, [x26, #24]
   8050c:	aa1903e0 	mov	x0, x25
   80510:	aa1403e1 	mov	x1, x20
   80514:	aa1303e2 	mov	x2, x19
   80518:	d63f0100 	blr	x8
   8051c:	3707f660 	tbnz	w0, #0, 803e8 <core::fmt::Formatter::pad_integral+0x13c>
   80520:	aa1f03f3 	mov	x19, xzr
   80524:	eb13037f 	cmp	x27, x19
   80528:	54000280 	b.eq	80578 <core::fmt::Formatter::pad_integral+0x2cc>  // b.none
   8052c:	f9401348 	ldr	x8, [x26, #32]
   80530:	aa1903e0 	mov	x0, x25
   80534:	2a1503e1 	mov	w1, w21
   80538:	91000673 	add	x19, x19, #0x1
   8053c:	d63f0100 	blr	x8
   80540:	34ffff20 	cbz	w0, 80524 <core::fmt::Formatter::pad_integral+0x278>
   80544:	d1000668 	sub	x8, x19, #0x1
   80548:	1400000d 	b	8057c <core::fmt::Formatter::pad_integral+0x2d0>
   8054c:	f9400f68 	ldr	x8, [x27, #24]
   80550:	aa1a03e0 	mov	x0, x26
   80554:	aa1403e1 	mov	x1, x20
   80558:	aa1303e2 	mov	x2, x19
   8055c:	d63f0100 	blr	x8
   80560:	3707f440 	tbnz	w0, #0, 803e8 <core::fmt::Formatter::pad_integral+0x13c>
   80564:	2a1f03f9 	mov	w25, wzr
   80568:	b9400fe8 	ldr	w8, [sp, #12]
   8056c:	3900e2bd 	strb	w29, [x21, #56]
   80570:	b90036a8 	str	w8, [x21, #52]
   80574:	17ffff9e 	b	803ec <core::fmt::Formatter::pad_integral+0x140>
   80578:	aa1b03e8 	mov	x8, x27
   8057c:	eb1b011f 	cmp	x8, x27
   80580:	1a9f27f9 	cset	w25, cc  // cc = lo, ul, last
   80584:	17ffff9a 	b	803ec <core::fmt::Formatter::pad_integral+0x140>

0000000000080588 <core::fmt::Formatter::pad_integral::write_prefix>:
   80588:	f81d0ffe 	str	x30, [sp, #-48]!
   8058c:	a90157f6 	stp	x22, x21, [sp, #16]
   80590:	a9024ff4 	stp	x20, x19, [sp, #32]
   80594:	aa0403f3 	mov	x19, x4
   80598:	aa0303f4 	mov	x20, x3
   8059c:	aa0103f6 	mov	x22, x1
   805a0:	aa0003f5 	mov	x21, x0
   805a4:	7144405f 	cmp	w2, #0x110, lsl #12
   805a8:	54000160 	b.eq	805d4 <core::fmt::Formatter::pad_integral::write_prefix+0x4c>  // b.none
   805ac:	f94012c8 	ldr	x8, [x22, #32]
   805b0:	aa1503e0 	mov	x0, x21
   805b4:	2a0203e1 	mov	w1, w2
   805b8:	d63f0100 	blr	x8
   805bc:	360000c0 	tbz	w0, #0, 805d4 <core::fmt::Formatter::pad_integral::write_prefix+0x4c>
   805c0:	52800020 	mov	w0, #0x1                   	// #1
   805c4:	a9424ff4 	ldp	x20, x19, [sp, #32]
   805c8:	a94157f6 	ldp	x22, x21, [sp, #16]
   805cc:	f84307fe 	ldr	x30, [sp], #48
   805d0:	d65f03c0 	ret
   805d4:	b4000134 	cbz	x20, 805f8 <core::fmt::Formatter::pad_integral::write_prefix+0x70>
   805d8:	f9400ec3 	ldr	x3, [x22, #24]
   805dc:	aa1503e0 	mov	x0, x21
   805e0:	aa1403e1 	mov	x1, x20
   805e4:	aa1303e2 	mov	x2, x19
   805e8:	a9424ff4 	ldp	x20, x19, [sp, #32]
   805ec:	a94157f6 	ldp	x22, x21, [sp, #16]
   805f0:	f84307fe 	ldr	x30, [sp], #48
   805f4:	d61f0060 	br	x3
   805f8:	2a1f03e0 	mov	w0, wzr
   805fc:	a9424ff4 	ldp	x20, x19, [sp, #32]
   80600:	a94157f6 	ldp	x22, x21, [sp, #16]
   80604:	f84307fe 	ldr	x30, [sp], #48
   80608:	d65f03c0 	ret

000000000008060c <core::slice::index::slice_start_index_len_fail>:
   8060c:	94000002 	bl	80614 <core::slice::index::slice_start_index_len_fail_rt>
   80610:	d4200020 	brk	#0x1

0000000000080614 <core::slice::index::slice_start_index_len_fail_rt>:
   80614:	d10183ff 	sub	sp, sp, #0x60
   80618:	910003e8 	mov	x8, sp
   8061c:	90000009 	adrp	x9, 80000 <_start>
   80620:	9104d129 	add	x9, x9, #0x134
   80624:	910023ea 	add	x10, sp, #0x8
   80628:	a90007e0 	stp	x0, x1, [sp]
   8062c:	910043e0 	add	x0, sp, #0x10
   80630:	aa0203e1 	mov	x1, x2
   80634:	f9000bff 	str	xzr, [sp, #16]
   80638:	a90427e8 	stp	x8, x9, [sp, #64]
   8063c:	b0000028 	adrp	x8, 85000 <compiler_builtins::mem::__llvm_memset_element_unordered_atomic_16+0x774>
   80640:	91086108 	add	x8, x8, #0x218
   80644:	a90527ea 	stp	x10, x9, [sp, #80]
   80648:	52800049 	mov	w9, #0x2                   	// #2
   8064c:	910103ea 	add	x10, sp, #0x40
   80650:	a90227e8 	stp	x8, x9, [sp, #32]
   80654:	a90327ea 	stp	x10, x9, [sp, #48]
   80658:	97fffea5 	bl	800ec <core::panicking::panic_fmt>
   8065c:	d4200020 	brk	#0x1

0000000000080660 <core::fmt::Formatter::pad>:
   80660:	a9bc67fe 	stp	x30, x25, [sp, #-64]!
   80664:	a9015ff8 	stp	x24, x23, [sp, #16]
   80668:	a90257f6 	stp	x22, x21, [sp, #32]
   8066c:	a9034ff4 	stp	x20, x19, [sp, #48]
   80670:	f9400808 	ldr	x8, [x0, #16]
   80674:	aa0203f3 	mov	x19, x2
   80678:	f9401009 	ldr	x9, [x0, #32]
   8067c:	aa0103f4 	mov	x20, x1
   80680:	f100051f 	cmp	x8, #0x1
   80684:	fa411924 	ccmp	x9, #0x1, #0x4, ne  // ne = any
   80688:	54002761 	b.ne	80b74 <core::fmt::Formatter::pad+0x514>  // b.any
   8068c:	f100053f 	cmp	x9, #0x1
   80690:	540009e1 	b.ne	807cc <core::fmt::Formatter::pad+0x16c>  // b.any
   80694:	f940140a 	ldr	x10, [x0, #40]
   80698:	aa1f03e9 	mov	x9, xzr
   8069c:	8b13028b 	add	x11, x20, x19
   806a0:	9100054c 	add	x12, x10, #0x1
   806a4:	aa1403ea 	mov	x10, x20
   806a8:	14000007 	b	806c4 <core::fmt::Formatter::pad+0x64>
   806ac:	2a1003ed 	mov	w13, w16
   806b0:	cb0a0129 	sub	x9, x9, x10
   806b4:	aa0e03ea 	mov	x10, x14
   806b8:	8b0e0129 	add	x9, x9, x14
   806bc:	714441bf 	cmp	w13, #0x110, lsl #12
   806c0:	54000860 	b.eq	807cc <core::fmt::Formatter::pad+0x16c>  // b.none
   806c4:	f100058c 	subs	x12, x12, #0x1
   806c8:	54000400 	b.eq	80748 <core::fmt::Formatter::pad+0xe8>  // b.none
   806cc:	eb0b015f 	cmp	x10, x11
   806d0:	540007e0 	b.eq	807cc <core::fmt::Formatter::pad+0x16c>  // b.none
   806d4:	aa0a03ee 	mov	x14, x10
   806d8:	38c015cd 	ldrsb	w13, [x14], #1
   806dc:	12001db0 	and	w16, w13, #0xff
   806e0:	36fffe6d 	tbz	w13, #31, 806ac <core::fmt::Formatter::pad+0x4c>
   806e4:	3940054d 	ldrb	w13, [x10, #1]
   806e8:	1200120f 	and	w15, w16, #0x1f
   806ec:	71037e1f 	cmp	w16, #0xdf
   806f0:	120015ad 	and	w13, w13, #0x3f
   806f4:	540001c9 	b.ls	8072c <core::fmt::Formatter::pad+0xcc>  // b.plast
   806f8:	3940094e 	ldrb	w14, [x10, #2]
   806fc:	7103c21f 	cmp	w16, #0xf0
   80700:	120015d1 	and	w17, w14, #0x3f
   80704:	331a15b1 	bfi	w17, w13, #6, #6
   80708:	54000183 	b.cc	80738 <core::fmt::Formatter::pad+0xd8>  // b.lo, b.ul, b.last
   8070c:	39400d4d 	ldrb	w13, [x10, #3]
   80710:	120015ad 	and	w13, w13, #0x3f
   80714:	331a2e2d 	bfi	w13, w17, #6, #12
   80718:	330e09ed 	bfi	w13, w15, #18, #3
   8071c:	714441bf 	cmp	w13, #0x110, lsl #12
   80720:	54000560 	b.eq	807cc <core::fmt::Formatter::pad+0x16c>  // b.none
   80724:	9100114e 	add	x14, x10, #0x4
   80728:	17ffffe2 	b	806b0 <core::fmt::Formatter::pad+0x50>
   8072c:	9100094e 	add	x14, x10, #0x2
   80730:	331a11ed 	bfi	w13, w15, #6, #5
   80734:	17ffffdf 	b	806b0 <core::fmt::Formatter::pad+0x50>
   80738:	331411f1 	bfi	w17, w15, #12, #5
   8073c:	91000d4e 	add	x14, x10, #0x3
   80740:	2a1103ed 	mov	w13, w17
   80744:	17ffffdb 	b	806b0 <core::fmt::Formatter::pad+0x50>
   80748:	eb0b015f 	cmp	x10, x11
   8074c:	54000400 	b.eq	807cc <core::fmt::Formatter::pad+0x16c>  // b.none
   80750:	39c0014b 	ldrsb	w11, [x10]
   80754:	36f8022b 	tbz	w11, #31, 80798 <core::fmt::Formatter::pad+0x138>
   80758:	12001d6b 	and	w11, w11, #0xff
   8075c:	7103817f 	cmp	w11, #0xe0
   80760:	540001c3 	b.cc	80798 <core::fmt::Formatter::pad+0x138>  // b.lo, b.ul, b.last
   80764:	7103c17f 	cmp	w11, #0xf0
   80768:	54000183 	b.cc	80798 <core::fmt::Formatter::pad+0x138>  // b.lo, b.ul, b.last
   8076c:	3940094c 	ldrb	w12, [x10, #2]
   80770:	3940054d 	ldrb	w13, [x10, #1]
   80774:	39400d4a 	ldrb	w10, [x10, #3]
   80778:	1200158c 	and	w12, w12, #0x3f
   8077c:	120015ad 	and	w13, w13, #0x3f
   80780:	53144dad 	lsl	w13, w13, #12
   80784:	331a158d 	bfi	w13, w12, #6, #6
   80788:	3300154d 	bfxil	w13, w10, #0, #6
   8078c:	330e096d 	bfi	w13, w11, #18, #3
   80790:	714441bf 	cmp	w13, #0x110, lsl #12
   80794:	540001c0 	b.eq	807cc <core::fmt::Formatter::pad+0x16c>  // b.none
   80798:	b4000129 	cbz	x9, 807bc <core::fmt::Formatter::pad+0x15c>
   8079c:	eb13013f 	cmp	x9, x19
   807a0:	540000c2 	b.cs	807b8 <core::fmt::Formatter::pad+0x158>  // b.hs, b.nlast
   807a4:	38e96a8a 	ldrsb	w10, [x20, x9]
   807a8:	3101015f 	cmn	w10, #0x40
   807ac:	5400008a 	b.ge	807bc <core::fmt::Formatter::pad+0x15c>  // b.tcont
   807b0:	aa1f03ea 	mov	x10, xzr
   807b4:	14000003 	b	807c0 <core::fmt::Formatter::pad+0x160>
   807b8:	54ffffc1 	b.ne	807b0 <core::fmt::Formatter::pad+0x150>  // b.any
   807bc:	aa1403ea 	mov	x10, x20
   807c0:	f100015f 	cmp	x10, #0x0
   807c4:	9a890273 	csel	x19, x19, x9, eq  // eq = none
   807c8:	9a8a0294 	csel	x20, x20, x10, eq  // eq = none
   807cc:	b4001d48 	cbz	x8, 80b74 <core::fmt::Formatter::pad+0x514>
   807d0:	f9400c08 	ldr	x8, [x0, #24]
   807d4:	f100827f 	cmp	x19, #0x20
   807d8:	54000162 	b.cs	80804 <core::fmt::Formatter::pad+0x1a4>  // b.hs, b.nlast
   807dc:	aa1f03e9 	mov	x9, xzr
   807e0:	b4001b53 	cbz	x19, 80b48 <core::fmt::Formatter::pad+0x4e8>
   807e4:	aa1303ea 	mov	x10, x19
   807e8:	aa1403eb 	mov	x11, x20
   807ec:	38c0156c 	ldrsb	w12, [x11], #1
   807f0:	3101059f 	cmn	w12, #0x41
   807f4:	9a89d529 	cinc	x9, x9, gt
   807f8:	f100054a 	subs	x10, x10, #0x1
   807fc:	54ffff81 	b.ne	807ec <core::fmt::Formatter::pad+0x18c>  // b.any
   80800:	140000d2 	b	80b48 <core::fmt::Formatter::pad+0x4e8>
   80804:	91001e89 	add	x9, x20, #0x7
   80808:	927df12c 	and	x12, x9, #0xfffffffffffffff8
   8080c:	cb14018b 	sub	x11, x12, x20
   80810:	eb0b026d 	subs	x13, x19, x11
   80814:	54000163 	b.cc	80840 <core::fmt::Formatter::pad+0x1e0>  // b.lo, b.ul, b.last
   80818:	f100217f 	cmp	x11, #0x8
   8081c:	54000128 	b.hi	80840 <core::fmt::Formatter::pad+0x1e0>  // b.pmore
   80820:	f10021bf 	cmp	x13, #0x8
   80824:	540000e3 	b.cc	80840 <core::fmt::Formatter::pad+0x1e0>  // b.lo, b.ul, b.last
   80828:	8b0b028a 	add	x10, x20, x11
   8082c:	924009a9 	and	x9, x13, #0x7
   80830:	eb14019f 	cmp	x12, x20
   80834:	54000381 	b.ne	808a4 <core::fmt::Formatter::pad+0x244>  // b.any
   80838:	aa1f03ec 	mov	x12, xzr
   8083c:	14000036 	b	80914 <core::fmt::Formatter::pad+0x2b4>
   80840:	927ffa6a 	and	x10, x19, #0xfffffffffffffffe
   80844:	aa1f03e9 	mov	x9, xzr
   80848:	aa1f03eb 	mov	x11, xzr
   8084c:	9100068c 	add	x12, x20, #0x1
   80850:	aa0a03ed 	mov	x13, x10
   80854:	38dff18e 	ldursb	w14, [x12, #-1]
   80858:	39c0018f 	ldrsb	w15, [x12]
   8085c:	9100098c 	add	x12, x12, #0x2
   80860:	310105df 	cmn	w14, #0x41
   80864:	9a89d529 	cinc	x9, x9, gt
   80868:	310105ff 	cmn	w15, #0x41
   8086c:	9a8bd56b 	cinc	x11, x11, gt
   80870:	f10009ad 	subs	x13, x13, #0x2
   80874:	54ffff01 	b.ne	80854 <core::fmt::Formatter::pad+0x1f4>  // b.any
   80878:	8b090169 	add	x9, x11, x9
   8087c:	eb13015f 	cmp	x10, x19
   80880:	54001640 	b.eq	80b48 <core::fmt::Formatter::pad+0x4e8>  // b.none
   80884:	8b0a028b 	add	x11, x20, x10
   80888:	cb0a026a 	sub	x10, x19, x10
   8088c:	38c0156c 	ldrsb	w12, [x11], #1
   80890:	3101059f 	cmn	w12, #0x41
   80894:	9a89d529 	cinc	x9, x9, gt
   80898:	f100054a 	subs	x10, x10, #0x1
   8089c:	54ffff81 	b.ne	8088c <core::fmt::Formatter::pad+0x22c>  // b.any
   808a0:	140000aa 	b	80b48 <core::fmt::Formatter::pad+0x4e8>
   808a4:	f100097f 	cmp	x11, #0x2
   808a8:	54000082 	b.cs	808b8 <core::fmt::Formatter::pad+0x258>  // b.hs, b.nlast
   808ac:	aa1f03ec 	mov	x12, xzr
   808b0:	aa1403eb 	mov	x11, x20
   808b4:	14000013 	b	80900 <core::fmt::Formatter::pad+0x2a0>
   808b8:	927ff96e 	and	x14, x11, #0xfffffffffffffffe
   808bc:	aa1f03ec 	mov	x12, xzr
   808c0:	aa1f03ef 	mov	x15, xzr
   808c4:	91000690 	add	x16, x20, #0x1
   808c8:	aa0e03f1 	mov	x17, x14
   808cc:	38dff212 	ldursb	w18, [x16, #-1]
   808d0:	39c00201 	ldrsb	w1, [x16]
   808d4:	91000a10 	add	x16, x16, #0x2
   808d8:	3101065f 	cmn	w18, #0x41
   808dc:	9a8cd58c 	cinc	x12, x12, gt
   808e0:	3101043f 	cmn	w1, #0x41
   808e4:	9a8fd5ef 	cinc	x15, x15, gt
   808e8:	f1000a31 	subs	x17, x17, #0x2
   808ec:	54ffff01 	b.ne	808cc <core::fmt::Formatter::pad+0x26c>  // b.any
   808f0:	8b0c01ec 	add	x12, x15, x12
   808f4:	eb0e017f 	cmp	x11, x14
   808f8:	540000e0 	b.eq	80914 <core::fmt::Formatter::pad+0x2b4>  // b.none
   808fc:	8b0e028b 	add	x11, x20, x14
   80900:	38c0156e 	ldrsb	w14, [x11], #1
   80904:	310105df 	cmn	w14, #0x41
   80908:	9a8cd58c 	cinc	x12, x12, gt
   8090c:	eb0a017f 	cmp	x11, x10
   80910:	54ffff81 	b.ne	80900 <core::fmt::Formatter::pad+0x2a0>  // b.any
   80914:	d343fdab 	lsr	x11, x13, #3
   80918:	b40004a9 	cbz	x9, 809ac <core::fmt::Formatter::pad+0x34c>
   8091c:	927df1ad 	and	x13, x13, #0xfffffffffffffff8
   80920:	8b0d014e 	add	x14, x10, x13
   80924:	39c001cd 	ldrsb	w13, [x14]
   80928:	310105bf 	cmn	w13, #0x41
   8092c:	1a9fd7ed 	cset	w13, gt
   80930:	f100053f 	cmp	x9, #0x1
   80934:	540003e0 	b.eq	809b0 <core::fmt::Formatter::pad+0x350>  // b.none
   80938:	39c005cf 	ldrsb	w15, [x14, #1]
   8093c:	310105ff 	cmn	w15, #0x41
   80940:	9a8dd5ad 	cinc	x13, x13, gt
   80944:	f100093f 	cmp	x9, #0x2
   80948:	54000340 	b.eq	809b0 <core::fmt::Formatter::pad+0x350>  // b.none
   8094c:	39c009cf 	ldrsb	w15, [x14, #2]
   80950:	310105ff 	cmn	w15, #0x41
   80954:	9a8dd5ad 	cinc	x13, x13, gt
   80958:	f1000d3f 	cmp	x9, #0x3
   8095c:	540002a0 	b.eq	809b0 <core::fmt::Formatter::pad+0x350>  // b.none
   80960:	39c00dcf 	ldrsb	w15, [x14, #3]
   80964:	310105ff 	cmn	w15, #0x41
   80968:	9a8dd5ad 	cinc	x13, x13, gt
   8096c:	f100113f 	cmp	x9, #0x4
   80970:	54000200 	b.eq	809b0 <core::fmt::Formatter::pad+0x350>  // b.none
   80974:	39c011cf 	ldrsb	w15, [x14, #4]
   80978:	310105ff 	cmn	w15, #0x41
   8097c:	9a8dd5ad 	cinc	x13, x13, gt
   80980:	f100153f 	cmp	x9, #0x5
   80984:	54000160 	b.eq	809b0 <core::fmt::Formatter::pad+0x350>  // b.none
   80988:	39c015cf 	ldrsb	w15, [x14, #5]
   8098c:	310105ff 	cmn	w15, #0x41
   80990:	9a8dd5ad 	cinc	x13, x13, gt
   80994:	f100193f 	cmp	x9, #0x6
   80998:	540000c0 	b.eq	809b0 <core::fmt::Formatter::pad+0x350>  // b.none
   8099c:	39c019c9 	ldrsb	w9, [x14, #6]
   809a0:	3101053f 	cmn	w9, #0x41
   809a4:	9a8dd5ad 	cinc	x13, x13, gt
   809a8:	14000002 	b	809b0 <core::fmt::Formatter::pad+0x350>
   809ac:	aa1f03ed 	mov	x13, xzr
   809b0:	8b0c01a9 	add	x9, x13, x12
   809b4:	5280180d 	mov	w13, #0xc0                  	// #192
   809b8:	b20083ee 	mov	x14, #0x1000100010001       	// #281479271743489
   809bc:	1400000a 	b	809e4 <core::fmt::Formatter::pad+0x384>
   809c0:	d348fe11 	lsr	x17, x16, #8
   809c4:	92009e10 	and	x16, x16, #0xff00ff00ff00ff
   809c8:	92009e31 	and	x17, x17, #0xff00ff00ff00ff
   809cc:	8b100230 	add	x16, x17, x16
   809d0:	9b0e7e11 	mul	x17, x16, x14
   809d4:	92400550 	and	x16, x10, #0x3
   809d8:	8b0a0d8a 	add	x10, x12, x10, lsl #3
   809dc:	8b51c129 	add	x9, x9, x17, lsr #48
   809e0:	b50004d0 	cbnz	x16, 80a78 <core::fmt::Formatter::pad+0x418>
   809e4:	b4000b2b 	cbz	x11, 80b48 <core::fmt::Formatter::pad+0x4e8>
   809e8:	f103017f 	cmp	x11, #0xc0
   809ec:	aa0a03ec 	mov	x12, x10
   809f0:	9a8d316a 	csel	x10, x11, x13, cc  // cc = lo, ul, last
   809f4:	aa1f03f0 	mov	x16, xzr
   809f8:	cb0a016b 	sub	x11, x11, x10
   809fc:	f27e154f 	ands	x15, x10, #0xfc
   80a00:	54fffe00 	b.eq	809c0 <core::fmt::Formatter::pad+0x360>  // b.none
   80a04:	8b0f0d91 	add	x17, x12, x15, lsl #3
   80a08:	aa0c03f2 	mov	x18, x12
   80a0c:	b4fffdb2 	cbz	x18, 809c0 <core::fmt::Formatter::pad+0x360>
   80a10:	a9400a41 	ldp	x1, x2, [x18]
   80a14:	a9411243 	ldp	x3, x4, [x18, #16]
   80a18:	91008252 	add	x18, x18, #0x20
   80a1c:	aa2103e5 	mvn	x5, x1
   80a20:	eb11025f 	cmp	x18, x17
   80a24:	d347fca5 	lsr	x5, x5, #7
   80a28:	aa2203e6 	mvn	x6, x2
   80a2c:	aa4118a1 	orr	x1, x5, x1, lsr #6
   80a30:	aa2303e5 	mvn	x5, x3
   80a34:	d347fcc6 	lsr	x6, x6, #7
   80a38:	9200c021 	and	x1, x1, #0x101010101010101
   80a3c:	d347fca5 	lsr	x5, x5, #7
   80a40:	aa4218c2 	orr	x2, x6, x2, lsr #6
   80a44:	8b100030 	add	x16, x1, x16
   80a48:	aa2403e1 	mvn	x1, x4
   80a4c:	aa4318a3 	orr	x3, x5, x3, lsr #6
   80a50:	9200c042 	and	x2, x2, #0x101010101010101
   80a54:	d347fc21 	lsr	x1, x1, #7
   80a58:	8b100050 	add	x16, x2, x16
   80a5c:	aa441821 	orr	x1, x1, x4, lsr #6
   80a60:	9200c062 	and	x2, x3, #0x101010101010101
   80a64:	8b100050 	add	x16, x2, x16
   80a68:	9200c021 	and	x1, x1, #0x101010101010101
   80a6c:	8b100030 	add	x16, x1, x16
   80a70:	54fffce1 	b.ne	80a0c <core::fmt::Formatter::pad+0x3ac>  // b.any
   80a74:	17ffffd3 	b	809c0 <core::fmt::Formatter::pad+0x360>
   80a78:	b400040c 	cbz	x12, 80af8 <core::fmt::Formatter::pad+0x498>
   80a7c:	d100060b 	sub	x11, x16, #0x1
   80a80:	8b0f0d8a 	add	x10, x12, x15, lsl #3
   80a84:	f240f16d 	ands	x13, x11, #0x1fffffffffffffff
   80a88:	540003c0 	b.eq	80b00 <core::fmt::Formatter::pad+0x4a0>  // b.none
   80a8c:	910005ad 	add	x13, x13, #0x1
   80a90:	8b0f0d8c 	add	x12, x12, x15, lsl #3
   80a94:	927ff1b1 	and	x17, x13, #0x3ffffffffffffffe
   80a98:	aa1f03eb 	mov	x11, xzr
   80a9c:	aa1f03f2 	mov	x18, xzr
   80aa0:	d37df22e 	lsl	x14, x17, #3
   80aa4:	9100218c 	add	x12, x12, #0x8
   80aa8:	aa1103ef 	mov	x15, x17
   80aac:	a97f8981 	ldp	x1, x2, [x12, #-8]
   80ab0:	f10009ef 	subs	x15, x15, #0x2
   80ab4:	9100418c 	add	x12, x12, #0x10
   80ab8:	aa2103e3 	mvn	x3, x1
   80abc:	aa2203e4 	mvn	x4, x2
   80ac0:	d347fc63 	lsr	x3, x3, #7
   80ac4:	d347fc84 	lsr	x4, x4, #7
   80ac8:	aa411861 	orr	x1, x3, x1, lsr #6
   80acc:	aa421882 	orr	x2, x4, x2, lsr #6
   80ad0:	9200c021 	and	x1, x1, #0x101010101010101
   80ad4:	9200c042 	and	x2, x2, #0x101010101010101
   80ad8:	8b0b002b 	add	x11, x1, x11
   80adc:	8b120052 	add	x18, x2, x18
   80ae0:	54fffe61 	b.ne	80aac <core::fmt::Formatter::pad+0x44c>  // b.any
   80ae4:	8b0b024b 	add	x11, x18, x11
   80ae8:	eb1101bf 	cmp	x13, x17
   80aec:	54000200 	b.eq	80b2c <core::fmt::Formatter::pad+0x4cc>  // b.none
   80af0:	8b0e014c 	add	x12, x10, x14
   80af4:	14000005 	b	80b08 <core::fmt::Formatter::pad+0x4a8>
   80af8:	aa1f03eb 	mov	x11, xzr
   80afc:	1400000c 	b	80b2c <core::fmt::Formatter::pad+0x4cc>
   80b00:	aa1f03eb 	mov	x11, xzr
   80b04:	aa0a03ec 	mov	x12, x10
   80b08:	8b100d4a 	add	x10, x10, x16, lsl #3
   80b0c:	f840858d 	ldr	x13, [x12], #8
   80b10:	eb0a019f 	cmp	x12, x10
   80b14:	aa2d03ee 	mvn	x14, x13
   80b18:	d347fdce 	lsr	x14, x14, #7
   80b1c:	aa4d19cd 	orr	x13, x14, x13, lsr #6
   80b20:	9200c1ad 	and	x13, x13, #0x101010101010101
   80b24:	8b0b01ab 	add	x11, x13, x11
   80b28:	54ffff21 	b.ne	80b0c <core::fmt::Formatter::pad+0x4ac>  // b.any
   80b2c:	d348fd6a 	lsr	x10, x11, #8
   80b30:	92009d6b 	and	x11, x11, #0xff00ff00ff00ff
   80b34:	92009d4a 	and	x10, x10, #0xff00ff00ff00ff
   80b38:	8b0b014a 	add	x10, x10, x11
   80b3c:	b20083eb 	mov	x11, #0x1000100010001       	// #281479271743489
   80b40:	9b0b7d4a 	mul	x10, x10, x11
   80b44:	8b4ac129 	add	x9, x9, x10, lsr #48
   80b48:	eb090108 	subs	x8, x8, x9
   80b4c:	54000149 	b.ls	80b74 <core::fmt::Formatter::pad+0x514>  // b.plast
   80b50:	3940e009 	ldrb	w9, [x0, #56]
   80b54:	71000d3f 	cmp	w9, #0x3
   80b58:	1a8903e9 	csel	w9, wzr, w9, eq  // eq = none
   80b5c:	7200053f 	tst	w9, #0x3
   80b60:	540001e0 	b.eq	80b9c <core::fmt::Formatter::pad+0x53c>  // b.none
   80b64:	7100053f 	cmp	w9, #0x1
   80b68:	540001e1 	b.ne	80ba4 <core::fmt::Formatter::pad+0x544>  // b.any
   80b6c:	aa1f03f7 	mov	x23, xzr
   80b70:	14000011 	b	80bb4 <core::fmt::Formatter::pad+0x554>
   80b74:	a9402408 	ldp	x8, x9, [x0]
   80b78:	aa1403e1 	mov	x1, x20
   80b7c:	aa1303e2 	mov	x2, x19
   80b80:	a9434ff4 	ldp	x20, x19, [sp, #48]
   80b84:	a94257f6 	ldp	x22, x21, [sp, #32]
   80b88:	aa0803e0 	mov	x0, x8
   80b8c:	a9415ff8 	ldp	x24, x23, [sp, #16]
   80b90:	f9400d23 	ldr	x3, [x9, #24]
   80b94:	a8c467fe 	ldp	x30, x25, [sp], #64
   80b98:	d61f0060 	br	x3
   80b9c:	aa0803f7 	mov	x23, x8
   80ba0:	14000004 	b	80bb0 <core::fmt::Formatter::pad+0x550>
   80ba4:	d341fd09 	lsr	x9, x8, #1
   80ba8:	91000508 	add	x8, x8, #0x1
   80bac:	d341fd17 	lsr	x23, x8, #1
   80bb0:	aa0903e8 	mov	x8, x9
   80bb4:	a9406015 	ldp	x21, x24, [x0]
   80bb8:	91000519 	add	x25, x8, #0x1
   80bbc:	b9403416 	ldr	w22, [x0, #52]
   80bc0:	f1000739 	subs	x25, x25, #0x1
   80bc4:	540000e0 	b.eq	80be0 <core::fmt::Formatter::pad+0x580>  // b.none
   80bc8:	f9401308 	ldr	x8, [x24, #32]
   80bcc:	aa1503e0 	mov	x0, x21
   80bd0:	2a1603e1 	mov	w1, w22
   80bd4:	d63f0100 	blr	x8
   80bd8:	3607ff40 	tbz	w0, #0, 80bc0 <core::fmt::Formatter::pad+0x560>
   80bdc:	14000009 	b	80c00 <core::fmt::Formatter::pad+0x5a0>
   80be0:	714442df 	cmp	w22, #0x110, lsl #12
   80be4:	540000e0 	b.eq	80c00 <core::fmt::Formatter::pad+0x5a0>  // b.none
   80be8:	f9400f08 	ldr	x8, [x24, #24]
   80bec:	aa1503e0 	mov	x0, x21
   80bf0:	aa1403e1 	mov	x1, x20
   80bf4:	aa1303e2 	mov	x2, x19
   80bf8:	d63f0100 	blr	x8
   80bfc:	360000e0 	tbz	w0, #0, 80c18 <core::fmt::Formatter::pad+0x5b8>
   80c00:	52800020 	mov	w0, #0x1                   	// #1
   80c04:	a9434ff4 	ldp	x20, x19, [sp, #48]
   80c08:	a94257f6 	ldp	x22, x21, [sp, #32]
   80c0c:	a9415ff8 	ldp	x24, x23, [sp, #16]
   80c10:	a8c467fe 	ldp	x30, x25, [sp], #64
   80c14:	d65f03c0 	ret
   80c18:	aa1f03f3 	mov	x19, xzr
   80c1c:	eb1302ff 	cmp	x23, x19
   80c20:	54000120 	b.eq	80c44 <core::fmt::Formatter::pad+0x5e4>  // b.none
   80c24:	f9401308 	ldr	x8, [x24, #32]
   80c28:	aa1503e0 	mov	x0, x21
   80c2c:	2a1603e1 	mov	w1, w22
   80c30:	91000673 	add	x19, x19, #0x1
   80c34:	d63f0100 	blr	x8
   80c38:	34ffff20 	cbz	w0, 80c1c <core::fmt::Formatter::pad+0x5bc>
   80c3c:	d1000668 	sub	x8, x19, #0x1
   80c40:	14000002 	b	80c48 <core::fmt::Formatter::pad+0x5e8>
   80c44:	aa1703e8 	mov	x8, x23
   80c48:	eb17011f 	cmp	x8, x23
   80c4c:	1a9f27e0 	cset	w0, cc  // cc = lo, ul, last
   80c50:	a9434ff4 	ldp	x20, x19, [sp, #48]
   80c54:	a94257f6 	ldp	x22, x21, [sp, #32]
   80c58:	a9415ff8 	ldp	x24, x23, [sp, #16]
   80c5c:	a8c467fe 	ldp	x30, x25, [sp], #64
   80c60:	d65f03c0 	ret

0000000000080c64 <core::panicking::panic>:
   80c64:	d10103ff 	sub	sp, sp, #0x40
   80c68:	52800568 	mov	w8, #0x2b                  	// #43
   80c6c:	9100c3e9 	add	x9, sp, #0x30
   80c70:	f90003ff 	str	xzr, [sp]
   80c74:	a90323e0 	stp	x0, x8, [sp, #48]
   80c78:	52800028 	mov	w8, #0x1                   	// #1
   80c7c:	910003e0 	mov	x0, sp
   80c80:	a90123e9 	stp	x9, x8, [sp, #16]
   80c84:	d0000029 	adrp	x9, 86000 <compiler_builtins::mem::__llvm_memset_element_unordered_atomic_16+0x1774>
   80c88:	910b2129 	add	x9, x9, #0x2c8
   80c8c:	a9027fe9 	stp	x9, xzr, [sp, #32]
   80c90:	97fffd17 	bl	800ec <core::panicking::panic_fmt>
   80c94:	d4200020 	brk	#0x1

0000000000080c98 <<&T as core::fmt::Display>::fmt>:
   80c98:	aa0103e8 	mov	x8, x1
   80c9c:	a9400801 	ldp	x1, x2, [x0]
   80ca0:	aa0803e0 	mov	x0, x8
   80ca4:	17fffe6f 	b	80660 <core::fmt::Formatter::pad>

0000000000080ca8 <<&T as core::fmt::Debug>::fmt>:
   80ca8:	a9402000 	ldp	x0, x8, [x0]
   80cac:	f9400d02 	ldr	x2, [x8, #24]
   80cb0:	d61f0040 	br	x2

0000000000080cb4 <core::fmt::write>:
   80cb4:	d10203ff 	sub	sp, sp, #0x80
   80cb8:	f90023fe 	str	x30, [sp, #64]
   80cbc:	a9055ff8 	stp	x24, x23, [sp, #80]
   80cc0:	a90657f6 	stp	x22, x21, [sp, #96]
   80cc4:	a9074ff4 	stp	x20, x19, [sp, #112]
   80cc8:	d2c00408 	mov	x8, #0x2000000000          	// #137438953472
   80ccc:	aa0203f3 	mov	x19, x2
   80cd0:	52800069 	mov	w9, #0x3                   	// #3
   80cd4:	a900ffe1 	stp	x1, xzr, [sp, #8]
   80cd8:	f90013ff 	str	xzr, [sp, #32]
   80cdc:	f9001be8 	str	x8, [sp, #48]
   80ce0:	f9400048 	ldr	x8, [x2]
   80ce4:	3900e3e9 	strb	w9, [sp, #56]
   80ce8:	f90003e0 	str	x0, [sp]
   80cec:	b40008a8 	cbz	x8, 80e00 <core::fmt::write+0x14c>
   80cf0:	f9400669 	ldr	x9, [x19, #8]
   80cf4:	b4000c09 	cbz	x9, 80e74 <core::fmt::write+0x1c0>
   80cf8:	f9400a6a 	ldr	x10, [x19, #16]
   80cfc:	5280070c 	mov	w12, #0x38                  	// #56
   80d00:	d100052b 	sub	x11, x9, #0x1
   80d04:	91006117 	add	x23, x8, #0x18
   80d08:	9240f16b 	and	x11, x11, #0x1fffffffffffffff
   80d0c:	9b0c7d35 	mul	x21, x9, x12
   80d10:	91000574 	add	x20, x11, #0x1
   80d14:	91002156 	add	x22, x10, #0x8
   80d18:	90000018 	adrp	x24, 80000 <_start>
   80d1c:	91039318 	add	x24, x24, #0xe4
   80d20:	f94002c2 	ldr	x2, [x22]
   80d24:	b40000c2 	cbz	x2, 80d3c <core::fmt::write+0x88>
   80d28:	a94023e0 	ldp	x0, x8, [sp]
   80d2c:	f85f82c1 	ldur	x1, [x22, #-8]
   80d30:	f9400d08 	ldr	x8, [x8, #24]
   80d34:	d63f0100 	blr	x8
   80d38:	37000b40 	tbnz	w0, #0, 80ea0 <core::fmt::write+0x1ec>
   80d3c:	b9400ee8 	ldr	w8, [x23, #12]
   80d40:	b90037e8 	str	w8, [sp, #52]
   80d44:	394042e8 	ldrb	w8, [x23, #16]
   80d48:	3900e3e8 	strb	w8, [sp, #56]
   80d4c:	f9401268 	ldr	x8, [x19, #32]
   80d50:	b9400ae9 	ldr	w9, [x23, #8]
   80d54:	b90033e9 	str	w9, [sp, #48]
   80d58:	a97fa6ea 	ldp	x10, x9, [x23, #-8]
   80d5c:	b40001ca 	cbz	x10, 80d94 <core::fmt::write+0xe0>
   80d60:	f100055f 	cmp	x10, #0x1
   80d64:	540000a1 	b.ne	80d78 <core::fmt::write+0xc4>  // b.any
   80d68:	8b091109 	add	x9, x8, x9, lsl #4
   80d6c:	f940052a 	ldr	x10, [x9, #8]
   80d70:	eb18015f 	cmp	x10, x24
   80d74:	540000c0 	b.eq	80d8c <core::fmt::write+0xd8>  // b.none
   80d78:	aa1f03ea 	mov	x10, xzr
   80d7c:	a90127ff 	stp	xzr, x9, [sp, #16]
   80d80:	a97ea6ea 	ldp	x10, x9, [x23, #-24]
   80d84:	b500010a 	cbnz	x10, 80da4 <core::fmt::write+0xf0>
   80d88:	14000011 	b	80dcc <core::fmt::write+0x118>
   80d8c:	f9400129 	ldr	x9, [x9]
   80d90:	f9400129 	ldr	x9, [x9]
   80d94:	5280002a 	mov	w10, #0x1                   	// #1
   80d98:	a90127ea 	stp	x10, x9, [sp, #16]
   80d9c:	a97ea6ea 	ldp	x10, x9, [x23, #-24]
   80da0:	b400016a 	cbz	x10, 80dcc <core::fmt::write+0x118>
   80da4:	f100055f 	cmp	x10, #0x1
   80da8:	540000a1 	b.ne	80dbc <core::fmt::write+0x108>  // b.any
   80dac:	8b091109 	add	x9, x8, x9, lsl #4
   80db0:	f940052a 	ldr	x10, [x9, #8]
   80db4:	eb18015f 	cmp	x10, x24
   80db8:	54000060 	b.eq	80dc4 <core::fmt::write+0x110>  // b.none
   80dbc:	aa1f03ea 	mov	x10, xzr
   80dc0:	14000004 	b	80dd0 <core::fmt::write+0x11c>
   80dc4:	f9400129 	ldr	x9, [x9]
   80dc8:	f9400129 	ldr	x9, [x9]
   80dcc:	5280002a 	mov	w10, #0x1                   	// #1
   80dd0:	a90227ea 	stp	x10, x9, [sp, #32]
   80dd4:	910003e1 	mov	x1, sp
   80dd8:	f9400ee9 	ldr	x9, [x23, #24]
   80ddc:	8b091108 	add	x8, x8, x9, lsl #4
   80de0:	a9402500 	ldp	x0, x9, [x8]
   80de4:	d63f0120 	blr	x9
   80de8:	370005c0 	tbnz	w0, #0, 80ea0 <core::fmt::write+0x1ec>
   80dec:	910042d6 	add	x22, x22, #0x10
   80df0:	f100e2b5 	subs	x21, x21, #0x38
   80df4:	9100e2f7 	add	x23, x23, #0x38
   80df8:	54fff941 	b.ne	80d20 <core::fmt::write+0x6c>  // b.any
   80dfc:	1400001a 	b	80e64 <core::fmt::write+0x1b0>
   80e00:	f9401668 	ldr	x8, [x19, #40]
   80e04:	b4000388 	cbz	x8, 80e74 <core::fmt::write+0x1c0>
   80e08:	f9400a69 	ldr	x9, [x19, #16]
   80e0c:	d100050b 	sub	x11, x8, #0x1
   80e10:	f940126a 	ldr	x10, [x19, #32]
   80e14:	9240ed6b 	and	x11, x11, #0xfffffffffffffff
   80e18:	91000574 	add	x20, x11, #0x1
   80e1c:	d37ced17 	lsl	x23, x8, #4
   80e20:	91002135 	add	x21, x9, #0x8
   80e24:	91002156 	add	x22, x10, #0x8
   80e28:	f94002a2 	ldr	x2, [x21]
   80e2c:	b40000c2 	cbz	x2, 80e44 <core::fmt::write+0x190>
   80e30:	a94023e0 	ldp	x0, x8, [sp]
   80e34:	f85f82a1 	ldur	x1, [x21, #-8]
   80e38:	f9400d08 	ldr	x8, [x8, #24]
   80e3c:	d63f0100 	blr	x8
   80e40:	37000300 	tbnz	w0, #0, 80ea0 <core::fmt::write+0x1ec>
   80e44:	a97fa2c0 	ldp	x0, x8, [x22, #-8]
   80e48:	910003e1 	mov	x1, sp
   80e4c:	d63f0100 	blr	x8
   80e50:	37000280 	tbnz	w0, #0, 80ea0 <core::fmt::write+0x1ec>
   80e54:	910042b5 	add	x21, x21, #0x10
   80e58:	910042d6 	add	x22, x22, #0x10
   80e5c:	f10042f7 	subs	x23, x23, #0x10
   80e60:	54fffe41 	b.ne	80e28 <core::fmt::write+0x174>  // b.any
   80e64:	f9400e68 	ldr	x8, [x19, #24]
   80e68:	eb08029f 	cmp	x20, x8
   80e6c:	540000c3 	b.cc	80e84 <core::fmt::write+0x1d0>  // b.lo, b.ul, b.last
   80e70:	14000013 	b	80ebc <core::fmt::write+0x208>
   80e74:	aa1f03f4 	mov	x20, xzr
   80e78:	f9400e68 	ldr	x8, [x19, #24]
   80e7c:	eb0803ff 	cmp	xzr, x8
   80e80:	540001e2 	b.cs	80ebc <core::fmt::write+0x208>  // b.hs, b.nlast
   80e84:	f9400a68 	ldr	x8, [x19, #16]
   80e88:	a94027e0 	ldp	x0, x9, [sp]
   80e8c:	8b141108 	add	x8, x8, x20, lsl #4
   80e90:	a9400901 	ldp	x1, x2, [x8]
   80e94:	f9400d28 	ldr	x8, [x9, #24]
   80e98:	d63f0100 	blr	x8
   80e9c:	36000100 	tbz	w0, #0, 80ebc <core::fmt::write+0x208>
   80ea0:	52800020 	mov	w0, #0x1                   	// #1
   80ea4:	a9474ff4 	ldp	x20, x19, [sp, #112]
   80ea8:	a94657f6 	ldp	x22, x21, [sp, #96]
   80eac:	a9455ff8 	ldp	x24, x23, [sp, #80]
   80eb0:	f94023fe 	ldr	x30, [sp, #64]
   80eb4:	910203ff 	add	sp, sp, #0x80
   80eb8:	d65f03c0 	ret
   80ebc:	2a1f03e0 	mov	w0, wzr
   80ec0:	a9474ff4 	ldp	x20, x19, [sp, #112]
   80ec4:	a94657f6 	ldp	x22, x21, [sp, #96]
   80ec8:	a9455ff8 	ldp	x24, x23, [sp, #80]
   80ecc:	f94023fe 	ldr	x30, [sp, #64]
   80ed0:	910203ff 	add	sp, sp, #0x80
   80ed4:	d65f03c0 	ret

0000000000080ed8 <core::fmt::num::imp::<impl core::fmt::Display for u32>::fmt>:
   80ed8:	d10103ff 	sub	sp, sp, #0x40
   80edc:	f9001bfe 	str	x30, [sp, #48]
   80ee0:	b940000a 	ldr	w10, [x0]
   80ee4:	aa0103e8 	mov	x8, x1
   80ee8:	53047d49 	lsr	w9, w10, #4
   80eec:	7109c53f 	cmp	w9, #0x271
   80ef0:	b0000029 	adrp	x9, 85000 <compiler_builtins::mem::__llvm_memset_element_unordered_atomic_16+0x774>
   80ef4:	9102b129 	add	x9, x9, #0xac
   80ef8:	540004e3 	b.cc	80f94 <core::fmt::num::imp::<impl core::fmt::Display for u32>::fmt+0xbc>  // b.lo, b.ul, b.last
   80efc:	d28b296b 	mov	x11, #0x594b                	// #22859
   80f00:	529c1ff0 	mov	w16, #0xe0ff                	// #57599
   80f04:	f2a710cb 	movk	x11, #0x3886, lsl #16
   80f08:	aa1f03f1 	mov	x17, xzr
   80f0c:	f2d8bacb 	movk	x11, #0xc5d6, lsl #32
   80f10:	529b1e0c 	mov	w12, #0xd8f0                	// #55536
   80f14:	f2e68dab 	movk	x11, #0x346d, lsl #48
   80f18:	52828f6d 	mov	w13, #0x147b                	// #5243
   80f1c:	12800c6e 	mov	w14, #0xffffff9c            	// #-100
   80f20:	910023ef 	add	x15, sp, #0x8
   80f24:	72a0beb0 	movk	w16, #0x5f5, lsl #16
   80f28:	aa0a03e0 	mov	x0, x10
   80f2c:	9bcb7d4a 	umulh	x10, x10, x11
   80f30:	eb10001f 	cmp	x0, x16
   80f34:	d34bfd4a 	lsr	x10, x10, #11
   80f38:	1b0c0152 	madd	w18, w10, w12, w0
   80f3c:	53023e41 	ubfx	w1, w18, #2, #14
   80f40:	1b0d7c21 	mul	w1, w1, w13
   80f44:	53117c21 	lsr	w1, w1, #17
   80f48:	1b0e4822 	madd	w2, w1, w14, w18
   80f4c:	8b214521 	add	x1, x9, w1, uxtw #1
   80f50:	aa1103f2 	mov	x18, x17
   80f54:	8b222531 	add	x17, x9, w2, uxth #1
   80f58:	8b1201e2 	add	x2, x15, x18
   80f5c:	39400423 	ldrb	w3, [x1, #1]
   80f60:	39400021 	ldrb	w1, [x1]
   80f64:	39400624 	ldrb	w4, [x17, #1]
   80f68:	39009043 	strb	w3, [x2, #36]
   80f6c:	39400223 	ldrb	w3, [x17]
   80f70:	d1001251 	sub	x17, x18, #0x4
   80f74:	39008c41 	strb	w1, [x2, #35]
   80f78:	39009844 	strb	w4, [x2, #38]
   80f7c:	39009443 	strb	w3, [x2, #37]
   80f80:	54fffd48 	b.hi	80f28 <core::fmt::num::imp::<impl core::fmt::Display for u32>::fmt+0x50>  // b.pmore
   80f84:	91008e4b 	add	x11, x18, #0x23
   80f88:	f1018d5f 	cmp	x10, #0x63
   80f8c:	540000a8 	b.hi	80fa0 <core::fmt::num::imp::<impl core::fmt::Display for u32>::fmt+0xc8>  // b.pmore
   80f90:	14000014 	b	80fe0 <core::fmt::num::imp::<impl core::fmt::Display for u32>::fmt+0x108>
   80f94:	528004eb 	mov	w11, #0x27                  	// #39
   80f98:	f1018d5f 	cmp	x10, #0x63
   80f9c:	54000229 	b.ls	80fe0 <core::fmt::num::imp::<impl core::fmt::Display for u32>::fmt+0x108>  // b.plast
   80fa0:	53023d4c 	ubfx	w12, w10, #2, #14
   80fa4:	52828f6d 	mov	w13, #0x147b                	// #5243
   80fa8:	d100096e 	sub	x14, x11, #0x2
   80fac:	1b0d7d8c 	mul	w12, w12, w13
   80fb0:	12800c6d 	mov	w13, #0xffffff9c            	// #-100
   80fb4:	53117d8c 	lsr	w12, w12, #17
   80fb8:	1b0d298a 	madd	w10, w12, w13, w10
   80fbc:	910023ed 	add	x13, sp, #0x8
   80fc0:	8b0b01ad 	add	x13, x13, x11
   80fc4:	aa0e03eb 	mov	x11, x14
   80fc8:	8b2a252a 	add	x10, x9, w10, uxth #1
   80fcc:	3940054f 	ldrb	w15, [x10, #1]
   80fd0:	39400150 	ldrb	w16, [x10]
   80fd4:	aa0c03ea 	mov	x10, x12
   80fd8:	381ff1af 	sturb	w15, [x13, #-1]
   80fdc:	381fe1b0 	sturb	w16, [x13, #-2]
   80fe0:	f100295f 	cmp	x10, #0xa
   80fe4:	540000e2 	b.cs	81000 <core::fmt::num::imp::<impl core::fmt::Display for u32>::fmt+0x128>  // b.hs, b.nlast
   80fe8:	910023e9 	add	x9, sp, #0x8
   80fec:	1100c14a 	add	w10, w10, #0x30
   80ff0:	8b0b012c 	add	x12, x9, x11
   80ff4:	d1000569 	sub	x9, x11, #0x1
   80ff8:	381ff18a 	sturb	w10, [x12, #-1]
   80ffc:	14000009 	b	81020 <core::fmt::num::imp::<impl core::fmt::Display for u32>::fmt+0x148>
   81000:	8b0a0529 	add	x9, x9, x10, lsl #1
   81004:	910023ea 	add	x10, sp, #0x8
   81008:	8b0b014a 	add	x10, x10, x11
   8100c:	3940052c 	ldrb	w12, [x9, #1]
   81010:	3940012d 	ldrb	w13, [x9]
   81014:	d1000969 	sub	x9, x11, #0x2
   81018:	381ff14c 	sturb	w12, [x10, #-1]
   8101c:	381fe14d 	sturb	w13, [x10, #-2]
   81020:	910023ea 	add	x10, sp, #0x8
   81024:	528004eb 	mov	w11, #0x27                  	// #39
   81028:	8b090143 	add	x3, x10, x9
   8102c:	cb090164 	sub	x4, x11, x9
   81030:	b0000021 	adrp	x1, 86000 <compiler_builtins::mem::__llvm_memset_element_unordered_atomic_16+0x1774>
   81034:	910b2021 	add	x1, x1, #0x2c8
   81038:	aa0803e0 	mov	x0, x8
   8103c:	aa1f03e2 	mov	x2, xzr
   81040:	97fffc9b 	bl	802ac <core::fmt::Formatter::pad_integral>
   81044:	f9401bfe 	ldr	x30, [sp, #48]
   81048:	910103ff 	add	sp, sp, #0x40
   8104c:	d65f03c0 	ret

0000000000081050 <core::result::unwrap_failed>:
   81050:	52800568 	mov	w8, #0x2b                  	// #43
   81054:	a9b923e0 	stp	x0, x8, [sp, #-112]!
   81058:	910003e8 	mov	x8, sp
   8105c:	f0ffffe9 	adrp	x9, 80000 <_start>
   81060:	91326129 	add	x9, x9, #0xc98
   81064:	a9010be1 	stp	x1, x2, [sp, #16]
   81068:	9000002a 	adrp	x10, 85000 <compiler_builtins::mem::__llvm_memset_element_unordered_atomic_16+0x774>
   8106c:	9100814a 	add	x10, x10, #0x20
   81070:	910083e0 	add	x0, sp, #0x20
   81074:	aa0303e1 	mov	x1, x3
   81078:	a90527e8 	stp	x8, x9, [sp, #80]
   8107c:	910043e8 	add	x8, sp, #0x10
   81080:	f0ffffe9 	adrp	x9, 80000 <_start>
   81084:	9132a129 	add	x9, x9, #0xca8
   81088:	f90013ff 	str	xzr, [sp, #32]
   8108c:	a90627e8 	stp	x8, x9, [sp, #96]
   81090:	52800048 	mov	w8, #0x2                   	// #2
   81094:	910143e9 	add	x9, sp, #0x50
   81098:	a90323ea 	stp	x10, x8, [sp, #48]
   8109c:	a90423e9 	stp	x9, x8, [sp, #64]
   810a0:	97fffc13 	bl	800ec <core::panicking::panic_fmt>
   810a4:	d4200020 	brk	#0x1

00000000000810a8 <<core::fmt::builders::PadAdapter as core::fmt::Write>::write_str>:
   810a8:	d101c3ff 	sub	sp, sp, #0x70
   810ac:	a9017bfd 	stp	x29, x30, [sp, #16]
   810b0:	a9026ffc 	stp	x28, x27, [sp, #32]
   810b4:	a90367fa 	stp	x26, x25, [sp, #48]
   810b8:	a9045ff8 	stp	x24, x23, [sp, #64]
   810bc:	a90557f6 	stp	x22, x21, [sp, #80]
   810c0:	a9064ff4 	stp	x20, x19, [sp, #96]
   810c4:	d2814159 	mov	x25, #0xa0a                 	// #2570
   810c8:	b207dbf7 	mov	x23, #0xfefefefefefefefe    	// #-72340172838076674
   810cc:	a940e008 	ldp	x8, x24, [x0, #8]
   810d0:	f2a14159 	movk	x25, #0xa0a, lsl #16
   810d4:	aa0203fa 	mov	x26, x2
   810d8:	f2c14159 	movk	x25, #0xa0a, lsl #32
   810dc:	aa0103f4 	mov	x20, x1
   810e0:	aa1f03fb 	mov	x27, xzr
   810e4:	aa1f03fc 	mov	x28, xzr
   810e8:	2a1f03fd 	mov	w29, wzr
   810ec:	f29fdff7 	movk	x23, #0xfeff
   810f0:	f9400015 	ldr	x21, [x0]
   810f4:	f2e14159 	movk	x25, #0xa0a, lsl #48
   810f8:	f90007e8 	str	x8, [sp, #8]
   810fc:	1400000c 	b	8112c <<core::fmt::builders::PadAdapter as core::fmt::Write>::write_str+0x84>
   81100:	8b020028 	add	x8, x1, x2
   81104:	385ff108 	ldurb	w8, [x8, #-1]
   81108:	7100291f 	cmp	w8, #0xa
   8110c:	1a9f17e8 	cset	w8, eq  // eq = none
   81110:	39000308 	strb	w8, [x24]
   81114:	f94007e8 	ldr	x8, [sp, #8]
   81118:	aa1503e0 	mov	x0, x21
   8111c:	f9400d08 	ldr	x8, [x8, #24]
   81120:	d63f0100 	blr	x8
   81124:	aa1603fb 	mov	x27, x22
   81128:	37000d80 	tbnz	w0, #0, 812d8 <<core::fmt::builders::PadAdapter as core::fmt::Write>::write_str+0x230>
   8112c:	35000d3d 	cbnz	w29, 812d0 <<core::fmt::builders::PadAdapter as core::fmt::Write>::write_str+0x228>
   81130:	eb1a039f 	cmp	x28, x26
   81134:	54000a48 	b.hi	8127c <<core::fmt::builders::PadAdapter as core::fmt::Write>::write_str+0x1d4>  // b.pmore
   81138:	cb1c0341 	sub	x1, x26, x28
   8113c:	aa1c03e8 	mov	x8, x28
   81140:	8b1c0289 	add	x9, x20, x28
   81144:	f100402a 	subs	x10, x1, #0x10
   81148:	54000162 	b.cs	81174 <<core::fmt::builders::PadAdapter as core::fmt::Write>::write_str+0xcc>  // b.hs, b.nlast
   8114c:	eb1a011f 	cmp	x8, x26
   81150:	54000940 	b.eq	81278 <<core::fmt::builders::PadAdapter as core::fmt::Write>::write_str+0x1d0>  // b.none
   81154:	aa1f03eb 	mov	x11, xzr
   81158:	386b692a 	ldrb	w10, [x9, x11]
   8115c:	7100295f 	cmp	w10, #0xa
   81160:	540006e0 	b.eq	8123c <<core::fmt::builders::PadAdapter as core::fmt::Write>::write_str+0x194>  // b.none
   81164:	9100056b 	add	x11, x11, #0x1
   81168:	eb0b003f 	cmp	x1, x11
   8116c:	54ffff61 	b.ne	81158 <<core::fmt::builders::PadAdapter as core::fmt::Write>::write_str+0xb0>  // b.any
   81170:	14000042 	b	81278 <<core::fmt::builders::PadAdapter as core::fmt::Write>::write_str+0x1d0>
   81174:	91001d2b 	add	x11, x9, #0x7
   81178:	927df16b 	and	x11, x11, #0xfffffffffffffff8
   8117c:	eb09016b 	subs	x11, x11, x9
   81180:	540001c0 	b.eq	811b8 <<core::fmt::builders::PadAdapter as core::fmt::Write>::write_str+0x110>  // b.none
   81184:	eb01017f 	cmp	x11, x1
   81188:	9a813160 	csel	x0, x11, x1, cc  // cc = lo, ul, last
   8118c:	b4000160 	cbz	x0, 811b8 <<core::fmt::builders::PadAdapter as core::fmt::Write>::write_str+0x110>
   81190:	aa1f03eb 	mov	x11, xzr
   81194:	386b692c 	ldrb	w12, [x9, x11]
   81198:	7100299f 	cmp	w12, #0xa
   8119c:	54000500 	b.eq	8123c <<core::fmt::builders::PadAdapter as core::fmt::Write>::write_str+0x194>  // b.none
   811a0:	9100056b 	add	x11, x11, #0x1
   811a4:	eb0b001f 	cmp	x0, x11
   811a8:	54ffff61 	b.ne	81194 <<core::fmt::builders::PadAdapter as core::fmt::Write>::write_str+0xec>  // b.any
   811ac:	eb0a001f 	cmp	x0, x10
   811b0:	54000069 	b.ls	811bc <<core::fmt::builders::PadAdapter as core::fmt::Write>::write_str+0x114>  // b.plast
   811b4:	14000014 	b	81204 <<core::fmt::builders::PadAdapter as core::fmt::Write>::write_str+0x15c>
   811b8:	aa1f03e0 	mov	x0, xzr
   811bc:	f860692b 	ldr	x11, [x9, x0]
   811c0:	ca19016c 	eor	x12, x11, x25
   811c4:	8b17018c 	add	x12, x12, x23
   811c8:	8a2b018b 	bic	x11, x12, x11
   811cc:	f201c17f 	tst	x11, #0x8080808080808080
   811d0:	54000161 	b.ne	811fc <<core::fmt::builders::PadAdapter as core::fmt::Write>::write_str+0x154>  // b.any
   811d4:	8b00012b 	add	x11, x9, x0
   811d8:	f940056b 	ldr	x11, [x11, #8]
   811dc:	ca19016c 	eor	x12, x11, x25
   811e0:	8b17018c 	add	x12, x12, x23
   811e4:	8a2b018b 	bic	x11, x12, x11
   811e8:	f201c17f 	tst	x11, #0x8080808080808080
   811ec:	54000081 	b.ne	811fc <<core::fmt::builders::PadAdapter as core::fmt::Write>::write_str+0x154>  // b.any
   811f0:	91004000 	add	x0, x0, #0x10
   811f4:	eb0a001f 	cmp	x0, x10
   811f8:	54fffe29 	b.ls	811bc <<core::fmt::builders::PadAdapter as core::fmt::Write>::write_str+0x114>  // b.plast
   811fc:	eb01001f 	cmp	x0, x1
   81200:	540007e8 	b.hi	812fc <<core::fmt::builders::PadAdapter as core::fmt::Write>::write_str+0x254>  // b.pmore
   81204:	eb00003f 	cmp	x1, x0
   81208:	54000380 	b.eq	81278 <<core::fmt::builders::PadAdapter as core::fmt::Write>::write_str+0x1d0>  // b.none
   8120c:	cb00034b 	sub	x11, x26, x0
   81210:	aa1f03ea 	mov	x10, xzr
   81214:	8b000129 	add	x9, x9, x0
   81218:	cb08016b 	sub	x11, x11, x8
   8121c:	386a692c 	ldrb	w12, [x9, x10]
   81220:	7100299f 	cmp	w12, #0xa
   81224:	540000a0 	b.eq	81238 <<core::fmt::builders::PadAdapter as core::fmt::Write>::write_str+0x190>  // b.none
   81228:	9100054a 	add	x10, x10, #0x1
   8122c:	eb0a017f 	cmp	x11, x10
   81230:	54ffff61 	b.ne	8121c <<core::fmt::builders::PadAdapter as core::fmt::Write>::write_str+0x174>  // b.any
   81234:	14000011 	b	81278 <<core::fmt::builders::PadAdapter as core::fmt::Write>::write_str+0x1d0>
   81238:	8b00014b 	add	x11, x10, x0
   8123c:	8b0b0109 	add	x9, x8, x11
   81240:	b100053c 	adds	x28, x9, #0x1
   81244:	54fff760 	b.eq	81130 <<core::fmt::builders::PadAdapter as core::fmt::Write>::write_str+0x88>  // b.none
   81248:	eb1a039f 	cmp	x28, x26
   8124c:	54fff728 	b.hi	81130 <<core::fmt::builders::PadAdapter as core::fmt::Write>::write_str+0x88>  // b.pmore
   81250:	8b0b0108 	add	x8, x8, x11
   81254:	38686a88 	ldrb	w8, [x20, x8]
   81258:	7100291f 	cmp	w8, #0xa
   8125c:	54fff6a1 	b.ne	81130 <<core::fmt::builders::PadAdapter as core::fmt::Write>::write_str+0x88>  // b.any
   81260:	2a1f03fd 	mov	w29, wzr
   81264:	aa1c03f6 	mov	x22, x28
   81268:	aa1c03f3 	mov	x19, x28
   8126c:	39400308 	ldrb	w8, [x24]
   81270:	35000148 	cbnz	w8, 81298 <<core::fmt::builders::PadAdapter as core::fmt::Write>::write_str+0x1f0>
   81274:	14000011 	b	812b8 <<core::fmt::builders::PadAdapter as core::fmt::Write>::write_str+0x210>
   81278:	aa1a03fc 	mov	x28, x26
   8127c:	eb1a037f 	cmp	x27, x26
   81280:	54000280 	b.eq	812d0 <<core::fmt::builders::PadAdapter as core::fmt::Write>::write_str+0x228>  // b.none
   81284:	5280003d 	mov	w29, #0x1                   	// #1
   81288:	aa1b03f6 	mov	x22, x27
   8128c:	aa1a03f3 	mov	x19, x26
   81290:	39400308 	ldrb	w8, [x24]
   81294:	34000128 	cbz	w8, 812b8 <<core::fmt::builders::PadAdapter as core::fmt::Write>::write_str+0x210>
   81298:	f94007e8 	ldr	x8, [sp, #8]
   8129c:	aa1503e0 	mov	x0, x21
   812a0:	f0000001 	adrp	x1, 84000 <kernel_main+0x1184>
   812a4:	913ae821 	add	x1, x1, #0xeba
   812a8:	52800082 	mov	w2, #0x4                   	// #4
   812ac:	f9400d08 	ldr	x8, [x8, #24]
   812b0:	d63f0100 	blr	x8
   812b4:	35000120 	cbnz	w0, 812d8 <<core::fmt::builders::PadAdapter as core::fmt::Write>::write_str+0x230>
   812b8:	cb1b0262 	sub	x2, x19, x27
   812bc:	8b1b0281 	add	x1, x20, x27
   812c0:	eb1b027f 	cmp	x19, x27
   812c4:	54fff1e1 	b.ne	81100 <<core::fmt::builders::PadAdapter as core::fmt::Write>::write_str+0x58>  // b.any
   812c8:	2a1f03e8 	mov	w8, wzr
   812cc:	17ffff91 	b	81110 <<core::fmt::builders::PadAdapter as core::fmt::Write>::write_str+0x68>
   812d0:	2a1f03e0 	mov	w0, wzr
   812d4:	14000002 	b	812dc <<core::fmt::builders::PadAdapter as core::fmt::Write>::write_str+0x234>
   812d8:	52800020 	mov	w0, #0x1                   	// #1
   812dc:	a9464ff4 	ldp	x20, x19, [sp, #96]
   812e0:	a94557f6 	ldp	x22, x21, [sp, #80]
   812e4:	a9445ff8 	ldp	x24, x23, [sp, #64]
   812e8:	a94367fa 	ldp	x26, x25, [sp, #48]
   812ec:	a9426ffc 	ldp	x28, x27, [sp, #32]
   812f0:	a9417bfd 	ldp	x29, x30, [sp, #16]
   812f4:	9101c3ff 	add	sp, sp, #0x70
   812f8:	d65f03c0 	ret
   812fc:	90000022 	adrp	x2, 85000 <compiler_builtins::mem::__llvm_memset_element_unordered_atomic_16+0x774>
   81300:	91072042 	add	x2, x2, #0x1c8
   81304:	97fffcc2 	bl	8060c <core::slice::index::slice_start_index_len_fail>
   81308:	d4200020 	brk	#0x1

000000000008130c <core::fmt::Write::write_char>:
   8130c:	f81f0ffe 	str	x30, [sp, #-16]!
   81310:	7102003f 	cmp	w1, #0x80
   81314:	b9000fff 	str	wzr, [sp, #12]
   81318:	540000e2 	b.cs	81334 <core::fmt::Write::write_char+0x28>  // b.hs, b.nlast
   8131c:	52800022 	mov	w2, #0x1                   	// #1
   81320:	390033e1 	strb	w1, [sp, #12]
   81324:	910033e1 	add	x1, sp, #0xc
   81328:	97ffff60 	bl	810a8 <<core::fmt::builders::PadAdapter as core::fmt::Write>::write_str>
   8132c:	f84107fe 	ldr	x30, [sp], #16
   81330:	d65f03c0 	ret
   81334:	7120003f 	cmp	w1, #0x800
   81338:	54000182 	b.cs	81368 <core::fmt::Write::write_char+0x5c>  // b.hs, b.nlast
   8133c:	53067c28 	lsr	w8, w1, #6
   81340:	52801009 	mov	w9, #0x80                  	// #128
   81344:	321a0508 	orr	w8, w8, #0xc0
   81348:	33001429 	bfxil	w9, w1, #0, #6
   8134c:	52800042 	mov	w2, #0x2                   	// #2
   81350:	390033e8 	strb	w8, [sp, #12]
   81354:	390037e9 	strb	w9, [sp, #13]
   81358:	910033e1 	add	x1, sp, #0xc
   8135c:	97ffff53 	bl	810a8 <<core::fmt::builders::PadAdapter as core::fmt::Write>::write_str>
   81360:	f84107fe 	ldr	x30, [sp], #16
   81364:	d65f03c0 	ret
   81368:	7140403f 	cmp	w1, #0x10, lsl #12
   8136c:	540001e2 	b.cs	813a8 <core::fmt::Write::write_char+0x9c>  // b.hs, b.nlast
   81370:	530c7c28 	lsr	w8, w1, #12
   81374:	52801009 	mov	w9, #0x80                  	// #128
   81378:	5280100a 	mov	w10, #0x80                  	// #128
   8137c:	321b0908 	orr	w8, w8, #0xe0
   81380:	33062c29 	bfxil	w9, w1, #6, #6
   81384:	3300142a 	bfxil	w10, w1, #0, #6
   81388:	52800062 	mov	w2, #0x3                   	// #3
   8138c:	390033e8 	strb	w8, [sp, #12]
   81390:	390037e9 	strb	w9, [sp, #13]
   81394:	39003bea 	strb	w10, [sp, #14]
   81398:	910033e1 	add	x1, sp, #0xc
   8139c:	97ffff43 	bl	810a8 <<core::fmt::builders::PadAdapter as core::fmt::Write>::write_str>
   813a0:	f84107fe 	ldr	x30, [sp], #16
   813a4:	d65f03c0 	ret
   813a8:	52801e08 	mov	w8, #0xf0                  	// #240
   813ac:	52801009 	mov	w9, #0x80                  	// #128
   813b0:	5280100a 	mov	w10, #0x80                  	// #128
   813b4:	5280100b 	mov	w11, #0x80                  	// #128
   813b8:	33125028 	bfxil	w8, w1, #18, #3
   813bc:	330c4429 	bfxil	w9, w1, #12, #6
   813c0:	33062c2a 	bfxil	w10, w1, #6, #6
   813c4:	3300142b 	bfxil	w11, w1, #0, #6
   813c8:	52800082 	mov	w2, #0x4                   	// #4
   813cc:	390033e8 	strb	w8, [sp, #12]
   813d0:	390037e9 	strb	w9, [sp, #13]
   813d4:	39003bea 	strb	w10, [sp, #14]
   813d8:	39003feb 	strb	w11, [sp, #15]
   813dc:	910033e1 	add	x1, sp, #0xc
   813e0:	97ffff32 	bl	810a8 <<core::fmt::builders::PadAdapter as core::fmt::Write>::write_str>
   813e4:	f84107fe 	ldr	x30, [sp], #16
   813e8:	d65f03c0 	ret

00000000000813ec <core::fmt::Write::write_fmt>:
   813ec:	d10103ff 	sub	sp, sp, #0x40
   813f0:	a90303fe 	stp	x30, x0, [sp, #48]
   813f4:	910003e0 	mov	x0, sp
   813f8:	52800602 	mov	w2, #0x30                  	// #48
   813fc:	94000b31 	bl	840c0 <memcpy>
   81400:	90000021 	adrp	x1, 85000 <compiler_builtins::mem::__llvm_memset_element_unordered_atomic_16+0x774>
   81404:	9105e021 	add	x1, x1, #0x178
   81408:	9100e3e0 	add	x0, sp, #0x38
   8140c:	910003e2 	mov	x2, sp
   81410:	97fffe29 	bl	80cb4 <core::fmt::write>
   81414:	f9401bfe 	ldr	x30, [sp, #48]
   81418:	910103ff 	add	sp, sp, #0x40
   8141c:	d65f03c0 	ret

0000000000081420 <<&mut W as core::fmt::Write>::write_str>:
   81420:	f9400000 	ldr	x0, [x0]
   81424:	17ffff21 	b	810a8 <<core::fmt::builders::PadAdapter as core::fmt::Write>::write_str>

0000000000081428 <<&mut W as core::fmt::Write>::write_char>:
   81428:	f81f0ffe 	str	x30, [sp, #-16]!
   8142c:	f9400000 	ldr	x0, [x0]
   81430:	7102003f 	cmp	w1, #0x80
   81434:	b9000fff 	str	wzr, [sp, #12]
   81438:	540000e2 	b.cs	81454 <<&mut W as core::fmt::Write>::write_char+0x2c>  // b.hs, b.nlast
   8143c:	52800022 	mov	w2, #0x1                   	// #1
   81440:	390033e1 	strb	w1, [sp, #12]
   81444:	910033e1 	add	x1, sp, #0xc
   81448:	97ffff18 	bl	810a8 <<core::fmt::builders::PadAdapter as core::fmt::Write>::write_str>
   8144c:	f84107fe 	ldr	x30, [sp], #16
   81450:	d65f03c0 	ret
   81454:	7120003f 	cmp	w1, #0x800
   81458:	54000182 	b.cs	81488 <<&mut W as core::fmt::Write>::write_char+0x60>  // b.hs, b.nlast
   8145c:	53067c28 	lsr	w8, w1, #6
   81460:	52801009 	mov	w9, #0x80                  	// #128
   81464:	321a0508 	orr	w8, w8, #0xc0
   81468:	33001429 	bfxil	w9, w1, #0, #6
   8146c:	52800042 	mov	w2, #0x2                   	// #2
   81470:	390033e8 	strb	w8, [sp, #12]
   81474:	390037e9 	strb	w9, [sp, #13]
   81478:	910033e1 	add	x1, sp, #0xc
   8147c:	97ffff0b 	bl	810a8 <<core::fmt::builders::PadAdapter as core::fmt::Write>::write_str>
   81480:	f84107fe 	ldr	x30, [sp], #16
   81484:	d65f03c0 	ret
   81488:	7140403f 	cmp	w1, #0x10, lsl #12
   8148c:	540001e2 	b.cs	814c8 <<&mut W as core::fmt::Write>::write_char+0xa0>  // b.hs, b.nlast
   81490:	530c7c28 	lsr	w8, w1, #12
   81494:	52801009 	mov	w9, #0x80                  	// #128
   81498:	5280100a 	mov	w10, #0x80                  	// #128
   8149c:	321b0908 	orr	w8, w8, #0xe0
   814a0:	33062c29 	bfxil	w9, w1, #6, #6
   814a4:	3300142a 	bfxil	w10, w1, #0, #6
   814a8:	52800062 	mov	w2, #0x3                   	// #3
   814ac:	390033e8 	strb	w8, [sp, #12]
   814b0:	390037e9 	strb	w9, [sp, #13]
   814b4:	39003bea 	strb	w10, [sp, #14]
   814b8:	910033e1 	add	x1, sp, #0xc
   814bc:	97fffefb 	bl	810a8 <<core::fmt::builders::PadAdapter as core::fmt::Write>::write_str>
   814c0:	f84107fe 	ldr	x30, [sp], #16
   814c4:	d65f03c0 	ret
   814c8:	52801e08 	mov	w8, #0xf0                  	// #240
   814cc:	52801009 	mov	w9, #0x80                  	// #128
   814d0:	5280100a 	mov	w10, #0x80                  	// #128
   814d4:	5280100b 	mov	w11, #0x80                  	// #128
   814d8:	33125028 	bfxil	w8, w1, #18, #3
   814dc:	330c4429 	bfxil	w9, w1, #12, #6
   814e0:	33062c2a 	bfxil	w10, w1, #6, #6
   814e4:	3300142b 	bfxil	w11, w1, #0, #6
   814e8:	52800082 	mov	w2, #0x4                   	// #4
   814ec:	390033e8 	strb	w8, [sp, #12]
   814f0:	390037e9 	strb	w9, [sp, #13]
   814f4:	39003bea 	strb	w10, [sp, #14]
   814f8:	39003feb 	strb	w11, [sp, #15]
   814fc:	910033e1 	add	x1, sp, #0xc
   81500:	97fffeea 	bl	810a8 <<core::fmt::builders::PadAdapter as core::fmt::Write>::write_str>
   81504:	f84107fe 	ldr	x30, [sp], #16
   81508:	d65f03c0 	ret

000000000008150c <<&mut W as core::fmt::Write>::write_fmt>:
   8150c:	d10103ff 	sub	sp, sp, #0x40
   81510:	f9400008 	ldr	x8, [x0]
   81514:	910003e0 	mov	x0, sp
   81518:	52800602 	mov	w2, #0x30                  	// #48
   8151c:	a90323fe 	stp	x30, x8, [sp, #48]
   81520:	94000ae8 	bl	840c0 <memcpy>
   81524:	90000021 	adrp	x1, 85000 <compiler_builtins::mem::__llvm_memset_element_unordered_atomic_16+0x774>
   81528:	9105e021 	add	x1, x1, #0x178
   8152c:	9100e3e0 	add	x0, sp, #0x38
   81530:	910003e2 	mov	x2, sp
   81534:	97fffde0 	bl	80cb4 <core::fmt::write>
   81538:	f9401bfe 	ldr	x30, [sp, #48]
   8153c:	910103ff 	add	sp, sp, #0x40
   81540:	d65f03c0 	ret

0000000000081544 <core::fmt::num::imp::<impl core::fmt::Display for u8>::fmt>:
   81544:	d10103ff 	sub	sp, sp, #0x40
   81548:	f9001bfe 	str	x30, [sp, #48]
   8154c:	39400009 	ldrb	w9, [x0]
   81550:	aa0103e8 	mov	x8, x1
   81554:	12001d2a 	and	w10, w9, #0xff
   81558:	71018d5f 	cmp	w10, #0x63
   8155c:	54000209 	b.ls	8159c <core::fmt::num::imp::<impl core::fmt::Display for u8>::fmt+0x58>  // b.plast
   81560:	5280052b 	mov	w11, #0x29                  	// #41
   81564:	1b0b7d4a 	mul	w10, w10, w11
   81568:	12800c6b 	mov	w11, #0xffffff9c            	// #-100
   8156c:	530c7d4c 	lsr	w12, w10, #12
   81570:	9000002a 	adrp	x10, 85000 <compiler_builtins::mem::__llvm_memset_element_unordered_atomic_16+0x774>
   81574:	9102b14a 	add	x10, x10, #0xac
   81578:	1b0b2589 	madd	w9, w12, w11, w9
   8157c:	8b290549 	add	x9, x10, w9, uxtb #1
   81580:	5280048a 	mov	w10, #0x24                  	// #36
   81584:	3940052b 	ldrb	w11, [x9, #1]
   81588:	3940012d 	ldrb	w13, [x9]
   8158c:	2a0c03e9 	mov	w9, w12
   81590:	3900bbeb 	strb	w11, [sp, #46]
   81594:	3900b7ed 	strb	w13, [sp, #45]
   81598:	14000004 	b	815a8 <core::fmt::num::imp::<impl core::fmt::Display for u8>::fmt+0x64>
   8159c:	7100295f 	cmp	w10, #0xa
   815a0:	540000c2 	b.cs	815b8 <core::fmt::num::imp::<impl core::fmt::Display for u8>::fmt+0x74>  // b.hs, b.nlast
   815a4:	528004ca 	mov	w10, #0x26                  	// #38
   815a8:	1100c129 	add	w9, w9, #0x30
   815ac:	910023eb 	add	x11, sp, #0x8
   815b0:	382a6969 	strb	w9, [x11, x10]
   815b4:	1400000a 	b	815dc <core::fmt::num::imp::<impl core::fmt::Display for u8>::fmt+0x98>
   815b8:	92401d29 	and	x9, x9, #0xff
   815bc:	9000002a 	adrp	x10, 85000 <compiler_builtins::mem::__llvm_memset_element_unordered_atomic_16+0x774>
   815c0:	9102b14a 	add	x10, x10, #0xac
   815c4:	8b090549 	add	x9, x10, x9, lsl #1
   815c8:	528004aa 	mov	w10, #0x25                  	// #37
   815cc:	3940052b 	ldrb	w11, [x9, #1]
   815d0:	39400129 	ldrb	w9, [x9]
   815d4:	3900bbeb 	strb	w11, [sp, #46]
   815d8:	3900b7e9 	strb	w9, [sp, #45]
   815dc:	910023e9 	add	x9, sp, #0x8
   815e0:	528004eb 	mov	w11, #0x27                  	// #39
   815e4:	8b0a0123 	add	x3, x9, x10
   815e8:	cb0a0164 	sub	x4, x11, x10
   815ec:	b0000021 	adrp	x1, 86000 <compiler_builtins::mem::__llvm_memset_element_unordered_atomic_16+0x1774>
   815f0:	910b2021 	add	x1, x1, #0x2c8
   815f4:	aa0803e0 	mov	x0, x8
   815f8:	aa1f03e2 	mov	x2, xzr
   815fc:	97fffb2c 	bl	802ac <core::fmt::Formatter::pad_integral>
   81600:	f9401bfe 	ldr	x30, [sp, #48]
   81604:	910103ff 	add	sp, sp, #0x40
   81608:	d65f03c0 	ret

000000000008160c <core::fmt::num::<impl core::fmt::Binary for i8>::fmt>:
   8160c:	d10243ff 	sub	sp, sp, #0x90
   81610:	f90043fe 	str	x30, [sp, #128]
   81614:	52800fe8 	mov	w8, #0x7f                  	// #127
   81618:	39400009 	ldrb	w9, [x0]
   8161c:	910003ea 	mov	x10, sp
   81620:	53017d2b 	lsr	w11, w9, #1
   81624:	5280060c 	mov	w12, #0x30                  	// #48
   81628:	3300012c 	bfxil	w12, w9, #0, #1
   8162c:	7100053f 	cmp	w9, #0x1
   81630:	aa0803e0 	mov	x0, x8
   81634:	d1000508 	sub	x8, x8, #0x1
   81638:	2a0b03e9 	mov	w9, w11
   8163c:	3820694c 	strb	w12, [x10, x0]
   81640:	54ffff08 	b.hi	81620 <core::fmt::num::<impl core::fmt::Binary for i8>::fmt+0x14>  // b.pmore
   81644:	f102041f 	cmp	x0, #0x81
   81648:	54000202 	b.cs	81688 <core::fmt::num::<impl core::fmt::Binary for i8>::fmt+0x7c>  // b.hs, b.nlast
   8164c:	91000408 	add	x8, x0, #0x1
   81650:	910003e9 	mov	x9, sp
   81654:	5280102a 	mov	w10, #0x81                  	// #129
   81658:	8b080129 	add	x9, x9, x8
   8165c:	cb080144 	sub	x4, x10, x8
   81660:	90000028 	adrp	x8, 85000 <compiler_builtins::mem::__llvm_memset_element_unordered_atomic_16+0x774>
   81664:	9102a108 	add	x8, x8, #0xa8
   81668:	d1000523 	sub	x3, x9, #0x1
   8166c:	aa0103e0 	mov	x0, x1
   81670:	aa0803e1 	mov	x1, x8
   81674:	52800042 	mov	w2, #0x2                   	// #2
   81678:	97fffb0d 	bl	802ac <core::fmt::Formatter::pad_integral>
   8167c:	f94043fe 	ldr	x30, [sp, #128]
   81680:	910243ff 	add	sp, sp, #0x90
   81684:	d65f03c0 	ret
   81688:	90000022 	adrp	x2, 85000 <compiler_builtins::mem::__llvm_memset_element_unordered_atomic_16+0x774>
   8168c:	91024042 	add	x2, x2, #0x90
   81690:	52801001 	mov	w1, #0x80                  	// #128
   81694:	97fffbde 	bl	8060c <core::slice::index::slice_start_index_len_fail>
   81698:	d4200020 	brk	#0x1

000000000008169c <core::fmt::num::<impl core::fmt::LowerHex for i64>::fmt>:
   8169c:	d10243ff 	sub	sp, sp, #0x90
   816a0:	f90043fe 	str	x30, [sp, #128]
   816a4:	52800fe8 	mov	w8, #0x7f                  	// #127
   816a8:	52800ae9 	mov	w9, #0x57                  	// #87
   816ac:	f940000c 	ldr	x12, [x0]
   816b0:	5280060a 	mov	w10, #0x30                  	// #48
   816b4:	910003eb 	mov	x11, sp
   816b8:	12000d8d 	and	w13, w12, #0xf
   816bc:	d344fd8e 	lsr	x14, x12, #4
   816c0:	710029bf 	cmp	w13, #0xa
   816c4:	aa0803e0 	mov	x0, x8
   816c8:	1a89314f 	csel	w15, w10, w9, cc  // cc = lo, ul, last
   816cc:	f1003d9f 	cmp	x12, #0xf
   816d0:	d1000508 	sub	x8, x8, #0x1
   816d4:	aa0e03ec 	mov	x12, x14
   816d8:	0b0d01ed 	add	w13, w15, w13
   816dc:	3820696d 	strb	w13, [x11, x0]
   816e0:	54fffec8 	b.hi	816b8 <core::fmt::num::<impl core::fmt::LowerHex for i64>::fmt+0x1c>  // b.pmore
   816e4:	f102041f 	cmp	x0, #0x81
   816e8:	54000202 	b.cs	81728 <core::fmt::num::<impl core::fmt::LowerHex for i64>::fmt+0x8c>  // b.hs, b.nlast
   816ec:	91000408 	add	x8, x0, #0x1
   816f0:	910003e9 	mov	x9, sp
   816f4:	5280102a 	mov	w10, #0x81                  	// #129
   816f8:	8b080129 	add	x9, x9, x8
   816fc:	cb080144 	sub	x4, x10, x8
   81700:	90000028 	adrp	x8, 85000 <compiler_builtins::mem::__llvm_memset_element_unordered_atomic_16+0x774>
   81704:	9102a908 	add	x8, x8, #0xaa
   81708:	d1000523 	sub	x3, x9, #0x1
   8170c:	aa0103e0 	mov	x0, x1
   81710:	aa0803e1 	mov	x1, x8
   81714:	52800042 	mov	w2, #0x2                   	// #2
   81718:	97fffae5 	bl	802ac <core::fmt::Formatter::pad_integral>
   8171c:	f94043fe 	ldr	x30, [sp, #128]
   81720:	910243ff 	add	sp, sp, #0x90
   81724:	d65f03c0 	ret
   81728:	90000022 	adrp	x2, 85000 <compiler_builtins::mem::__llvm_memset_element_unordered_atomic_16+0x774>
   8172c:	91024042 	add	x2, x2, #0x90
   81730:	52801001 	mov	w1, #0x80                  	// #128
   81734:	97fffbb6 	bl	8060c <core::slice::index::slice_start_index_len_fail>
   81738:	d4200020 	brk	#0x1

000000000008173c <<core::fmt::Error as core::fmt::Debug>::fmt>:
   8173c:	a9402020 	ldp	x0, x8, [x1]
   81740:	90000021 	adrp	x1, 85000 <compiler_builtins::mem::__llvm_memset_element_unordered_atomic_16+0x774>
   81744:	9108e021 	add	x1, x1, #0x238
   81748:	528000a2 	mov	w2, #0x5                   	// #5
   8174c:	f9400d03 	ldr	x3, [x8, #24]
   81750:	d61f0060 	br	x3

0000000000081754 <<libkernel::memory::arch_mmu::translation_entry::TranslationTableEntry<libkernel::memory::arch_mmu::translation_entry::Level1> as core::fmt::Display>::fmt>:
   81754:	90000008 	adrp	x8, 81000 <core::fmt::num::imp::<impl core::fmt::Display for u32>::fmt+0x128>
   81758:	911a7108 	add	x8, x8, #0x69c
   8175c:	90000029 	adrp	x9, 85000 <compiler_builtins::mem::__llvm_memset_element_unordered_atomic_16+0x774>
   81760:	913ca129 	add	x9, x9, #0xf28
   81764:	a9bb23e0 	stp	x0, x8, [sp, #-80]!
   81768:	52800028 	mov	w8, #0x1                   	// #1
   8176c:	9000002a 	adrp	x10, 85000 <compiler_builtins::mem::__llvm_memset_element_unordered_atomic_16+0x774>
   81770:	9109014a 	add	x10, x10, #0x240
   81774:	910043e2 	add	x2, sp, #0x10
   81778:	a9400420 	ldp	x0, x1, [x1]
   8177c:	a90123e9 	stp	x9, x8, [sp, #16]
   81780:	910003e9 	mov	x9, sp
   81784:	a90223ea 	stp	x10, x8, [sp, #32]
   81788:	a903fbe8 	stp	x8, x30, [sp, #56]
   8178c:	f9001be9 	str	x9, [sp, #48]
   81790:	97fffd49 	bl	80cb4 <core::fmt::write>
   81794:	f94023fe 	ldr	x30, [sp, #64]
   81798:	910143ff 	add	sp, sp, #0x50
   8179c:	d65f03c0 	ret

00000000000817a0 <libkernel::memory::arch_mmu::translation_entry::Descriptor::get_address>:
   817a0:	d1000808 	sub	x8, x0, #0x2
   817a4:	f100091f 	cmp	x8, #0x2
   817a8:	540000e3 	b.cc	817c4 <libkernel::memory::arch_mmu::translation_entry::Descriptor::get_address+0x24>  // b.lo, b.ul, b.last
   817ac:	f100041f 	cmp	x0, #0x1
   817b0:	54000100 	b.eq	817d0 <libkernel::memory::arch_mmu::translation_entry::Descriptor::get_address+0x30>  // b.none
   817b4:	b5000200 	cbnz	x0, 817f4 <libkernel::memory::arch_mmu::translation_entry::Descriptor::get_address+0x54>
   817b8:	d360bc28 	ubfx	x8, x1, #32, #16
   817bc:	92624429 	and	x9, x1, #0xffffc0000000
   817c0:	14000006 	b	817d8 <libkernel::memory::arch_mmu::translation_entry::Descriptor::get_address+0x38>
   817c4:	d360bc28 	ubfx	x8, x1, #32, #16
   817c8:	92748c29 	and	x9, x1, #0xfffffffff000
   817cc:	14000003 	b	817d8 <libkernel::memory::arch_mmu::translation_entry::Descriptor::get_address+0x38>
   817d0:	d360bc28 	ubfx	x8, x1, #32, #16
   817d4:	926b6829 	and	x9, x1, #0xffffffe00000
   817d8:	f100011f 	cmp	x8, #0x0
   817dc:	b000002a 	adrp	x10, 86000 <compiler_builtins::mem::__llvm_memset_element_unordered_atomic_16+0x1774>
   817e0:	9107014a 	add	x10, x10, #0x1c0
   817e4:	1a9f17e8 	cset	w8, eq  // eq = none
   817e8:	9a891141 	csel	x1, x10, x9, ne  // ne = any
   817ec:	2a0803e0 	mov	w0, w8
   817f0:	d65f03c0 	ret
   817f4:	2a1f03e0 	mov	w0, wzr
   817f8:	d65f03c0 	ret

00000000000817fc <libkernel::memory::arch_mmu::translation_entry::Descriptor::set_attributes>:
   817fc:	92401c29 	and	x9, x1, #0xff
   81800:	f000000a 	adrp	x10, 84000 <kernel_main+0x1184>
   81804:	9123414a 	add	x10, x10, #0x8d0
   81808:	aa0003e8 	mov	x8, x0
   8180c:	1000008b 	adr	x11, 8181c <libkernel::memory::arch_mmu::translation_entry::Descriptor::set_attributes+0x20>
   81810:	3869694c 	ldrb	w12, [x10, x9]
   81814:	8b0c096b 	add	x11, x11, x12, lsl #2
   81818:	d61f0160 	br	x11
   8181c:	f9400109 	ldr	x9, [x8]
   81820:	f1000d3f 	cmp	x9, #0x3
   81824:	54000be0 	b.eq	819a0 <libkernel::memory::arch_mmu::translation_entry::Descriptor::set_attributes+0x1a4>  // b.none
   81828:	f100053f 	cmp	x9, #0x1
   8182c:	54000ce0 	b.eq	819c8 <libkernel::memory::arch_mmu::translation_entry::Descriptor::set_attributes+0x1cc>  // b.none
   81830:	b5000aa9 	cbnz	x9, 81984 <libkernel::memory::arch_mmu::translation_entry::Descriptor::set_attributes+0x188>
   81834:	f9400509 	ldr	x9, [x8, #8]
   81838:	d280800a 	mov	x10, #0x400                 	// #1024
   8183c:	f2e00c0a 	movk	x10, #0x60, lsl #48
   81840:	aa1f03e0 	mov	x0, xzr
   81844:	aa0a0129 	orr	x9, x9, x10
   81848:	5280608a 	mov	w10, #0x304                 	// #772
   8184c:	aa0a0129 	orr	x9, x9, x10
   81850:	a900251f 	stp	xzr, x9, [x8]
   81854:	d65f03c0 	ret
   81858:	f9400109 	ldr	x9, [x8]
   8185c:	f1000d3f 	cmp	x9, #0x3
   81860:	54000c80 	b.eq	819f0 <libkernel::memory::arch_mmu::translation_entry::Descriptor::set_attributes+0x1f4>  // b.none
   81864:	f100053f 	cmp	x9, #0x1
   81868:	54000d80 	b.eq	81a18 <libkernel::memory::arch_mmu::translation_entry::Descriptor::set_attributes+0x21c>  // b.none
   8186c:	b50008c9 	cbnz	x9, 81984 <libkernel::memory::arch_mmu::translation_entry::Descriptor::set_attributes+0x188>
   81870:	f9400509 	ldr	x9, [x8, #8]
   81874:	d280800a 	mov	x10, #0x400                 	// #1024
   81878:	f2e00c0a 	movk	x10, #0x60, lsl #48
   8187c:	aa1f03e0 	mov	x0, xzr
   81880:	aa0a0129 	orr	x9, x9, x10
   81884:	5280708a 	mov	w10, #0x384                 	// #900
   81888:	aa0a0129 	orr	x9, x9, x10
   8188c:	a900251f 	stp	xzr, x9, [x8]
   81890:	d65f03c0 	ret
   81894:	f9400109 	ldr	x9, [x8]
   81898:	f1000d3f 	cmp	x9, #0x3
   8189c:	54000d20 	b.eq	81a40 <libkernel::memory::arch_mmu::translation_entry::Descriptor::set_attributes+0x244>  // b.none
   818a0:	f100053f 	cmp	x9, #0x1
   818a4:	54000de0 	b.eq	81a60 <libkernel::memory::arch_mmu::translation_entry::Descriptor::set_attributes+0x264>  // b.none
   818a8:	b50006e9 	cbnz	x9, 81984 <libkernel::memory::arch_mmu::translation_entry::Descriptor::set_attributes+0x188>
   818ac:	d280f08a 	mov	x10, #0x784                 	// #1924
   818b0:	aa1f03e0 	mov	x0, xzr
   818b4:	f9400509 	ldr	x9, [x8, #8]
   818b8:	f2e0080a 	movk	x10, #0x40, lsl #48
   818bc:	aa0a0129 	orr	x9, x9, x10
   818c0:	a900251f 	stp	xzr, x9, [x8]
   818c4:	d65f03c0 	ret
   818c8:	f9400109 	ldr	x9, [x8]
   818cc:	f1000d3f 	cmp	x9, #0x3
   818d0:	54000d80 	b.eq	81a80 <libkernel::memory::arch_mmu::translation_entry::Descriptor::set_attributes+0x284>  // b.none
   818d4:	f100053f 	cmp	x9, #0x1
   818d8:	54000e00 	b.eq	81a98 <libkernel::memory::arch_mmu::translation_entry::Descriptor::set_attributes+0x29c>  // b.none
   818dc:	b5000549 	cbnz	x9, 81984 <libkernel::memory::arch_mmu::translation_entry::Descriptor::set_attributes+0x188>
   818e0:	f9400509 	ldr	x9, [x8, #8]
   818e4:	aa1f03e0 	mov	x0, xzr
   818e8:	b2780929 	orr	x9, x9, #0x700
   818ec:	a900251f 	stp	xzr, x9, [x8]
   818f0:	d65f03c0 	ret
   818f4:	f9400109 	ldr	x9, [x8]
   818f8:	f1000d3f 	cmp	x9, #0x3
   818fc:	54000da0 	b.eq	81ab0 <libkernel::memory::arch_mmu::translation_entry::Descriptor::set_attributes+0x2b4>  // b.none
   81900:	f100053f 	cmp	x9, #0x1
   81904:	54000e60 	b.eq	81ad0 <libkernel::memory::arch_mmu::translation_entry::Descriptor::set_attributes+0x2d4>  // b.none
   81908:	b50003e9 	cbnz	x9, 81984 <libkernel::memory::arch_mmu::translation_entry::Descriptor::set_attributes+0x188>
   8190c:	f9400509 	ldr	x9, [x8, #8]
   81910:	d280800a 	mov	x10, #0x400                 	// #1024
   81914:	aa1f03e0 	mov	x0, xzr
   81918:	f2e00c0a 	movk	x10, #0x60, lsl #48
   8191c:	aa0a0129 	orr	x9, x9, x10
   81920:	a900251f 	stp	xzr, x9, [x8]
   81924:	d65f03c0 	ret
   81928:	f9400109 	ldr	x9, [x8]
   8192c:	f1000d3f 	cmp	x9, #0x3
   81930:	54000e00 	b.eq	81af0 <libkernel::memory::arch_mmu::translation_entry::Descriptor::set_attributes+0x2f4>  // b.none
   81934:	f100053f 	cmp	x9, #0x1
   81938:	54000ee0 	b.eq	81b14 <libkernel::memory::arch_mmu::translation_entry::Descriptor::set_attributes+0x318>  // b.none
   8193c:	b5000249 	cbnz	x9, 81984 <libkernel::memory::arch_mmu::translation_entry::Descriptor::set_attributes+0x188>
   81940:	f9400509 	ldr	x9, [x8, #8]
   81944:	d280800a 	mov	x10, #0x400                 	// #1024
   81948:	f2e00c0a 	movk	x10, #0x60, lsl #48
   8194c:	aa1f03e0 	mov	x0, xzr
   81950:	aa0a0129 	orr	x9, x9, x10
   81954:	b2790129 	orr	x9, x9, #0x80
   81958:	a900251f 	stp	xzr, x9, [x8]
   8195c:	d65f03c0 	ret
   81960:	f9400109 	ldr	x9, [x8]
   81964:	f100093f 	cmp	x9, #0x2
   81968:	540000e1 	b.ne	81984 <libkernel::memory::arch_mmu::translation_entry::Descriptor::set_attributes+0x188>  // b.any
   8196c:	f9400509 	ldr	x9, [x8, #8]
   81970:	aa1f03e0 	mov	x0, xzr
   81974:	5280004a 	mov	w10, #0x2                   	// #2
   81978:	b2450929 	orr	x9, x9, #0x3800000000000000
   8197c:	a900250a 	stp	x10, x9, [x8]
   81980:	d65f03c0 	ret
   81984:	b0000020 	adrp	x0, 86000 <compiler_builtins::mem::__llvm_memset_element_unordered_atomic_16+0x1774>
   81988:	91052000 	add	x0, x0, #0x148
   8198c:	d65f03c0 	ret
   81990:	52800089 	mov	w9, #0x4                   	// #4
   81994:	aa1f03e0 	mov	x0, xzr
   81998:	f9000109 	str	x9, [x8]
   8199c:	d65f03c0 	ret
   819a0:	f9400509 	ldr	x9, [x8, #8]
   819a4:	d280800a 	mov	x10, #0x400                 	// #1024
   819a8:	f2e00c0a 	movk	x10, #0x60, lsl #48
   819ac:	aa1f03e0 	mov	x0, xzr
   819b0:	5280006b 	mov	w11, #0x3                   	// #3
   819b4:	aa0a0129 	orr	x9, x9, x10
   819b8:	5280608a 	mov	w10, #0x304                 	// #772
   819bc:	aa0a0129 	orr	x9, x9, x10
   819c0:	a900250b 	stp	x11, x9, [x8]
   819c4:	d65f03c0 	ret
   819c8:	f9400509 	ldr	x9, [x8, #8]
   819cc:	d280800a 	mov	x10, #0x400                 	// #1024
   819d0:	f2e00c0a 	movk	x10, #0x60, lsl #48
   819d4:	aa1f03e0 	mov	x0, xzr
   819d8:	aa0a0129 	orr	x9, x9, x10
   819dc:	5280608a 	mov	w10, #0x304                 	// #772
   819e0:	5280002b 	mov	w11, #0x1                   	// #1
   819e4:	aa0a0129 	orr	x9, x9, x10
   819e8:	a900250b 	stp	x11, x9, [x8]
   819ec:	d65f03c0 	ret
   819f0:	f9400509 	ldr	x9, [x8, #8]
   819f4:	d280800a 	mov	x10, #0x400                 	// #1024
   819f8:	f2e00c0a 	movk	x10, #0x60, lsl #48
   819fc:	aa1f03e0 	mov	x0, xzr
   81a00:	5280006b 	mov	w11, #0x3                   	// #3
   81a04:	aa0a0129 	orr	x9, x9, x10
   81a08:	5280708a 	mov	w10, #0x384                 	// #900
   81a0c:	aa0a0129 	orr	x9, x9, x10
   81a10:	a900250b 	stp	x11, x9, [x8]
   81a14:	d65f03c0 	ret
   81a18:	f9400509 	ldr	x9, [x8, #8]
   81a1c:	d280800a 	mov	x10, #0x400                 	// #1024
   81a20:	f2e00c0a 	movk	x10, #0x60, lsl #48
   81a24:	aa1f03e0 	mov	x0, xzr
   81a28:	aa0a0129 	orr	x9, x9, x10
   81a2c:	5280708a 	mov	w10, #0x384                 	// #900
   81a30:	5280002b 	mov	w11, #0x1                   	// #1
   81a34:	aa0a0129 	orr	x9, x9, x10
   81a38:	a900250b 	stp	x11, x9, [x8]
   81a3c:	d65f03c0 	ret
   81a40:	f9400509 	ldr	x9, [x8, #8]
   81a44:	d280f08a 	mov	x10, #0x784                 	// #1924
   81a48:	aa1f03e0 	mov	x0, xzr
   81a4c:	f2e0080a 	movk	x10, #0x40, lsl #48
   81a50:	5280006b 	mov	w11, #0x3                   	// #3
   81a54:	aa0a0129 	orr	x9, x9, x10
   81a58:	a900250b 	stp	x11, x9, [x8]
   81a5c:	d65f03c0 	ret
   81a60:	d280f08a 	mov	x10, #0x784                 	// #1924
   81a64:	aa1f03e0 	mov	x0, xzr
   81a68:	f9400509 	ldr	x9, [x8, #8]
   81a6c:	f2e0080a 	movk	x10, #0x40, lsl #48
   81a70:	5280002b 	mov	w11, #0x1                   	// #1
   81a74:	aa0a0129 	orr	x9, x9, x10
   81a78:	a900250b 	stp	x11, x9, [x8]
   81a7c:	d65f03c0 	ret
   81a80:	f9400509 	ldr	x9, [x8, #8]
   81a84:	aa1f03e0 	mov	x0, xzr
   81a88:	5280006a 	mov	w10, #0x3                   	// #3
   81a8c:	b2780929 	orr	x9, x9, #0x700
   81a90:	a900250a 	stp	x10, x9, [x8]
   81a94:	d65f03c0 	ret
   81a98:	aa1f03e0 	mov	x0, xzr
   81a9c:	f9400509 	ldr	x9, [x8, #8]
   81aa0:	5280002a 	mov	w10, #0x1                   	// #1
   81aa4:	b2780929 	orr	x9, x9, #0x700
   81aa8:	a900250a 	stp	x10, x9, [x8]
   81aac:	d65f03c0 	ret
   81ab0:	f9400509 	ldr	x9, [x8, #8]
   81ab4:	d280800a 	mov	x10, #0x400                 	// #1024
   81ab8:	aa1f03e0 	mov	x0, xzr
   81abc:	f2e00c0a 	movk	x10, #0x60, lsl #48
   81ac0:	5280006b 	mov	w11, #0x3                   	// #3
   81ac4:	aa0a0129 	orr	x9, x9, x10
   81ac8:	a900250b 	stp	x11, x9, [x8]
   81acc:	d65f03c0 	ret
   81ad0:	f9400509 	ldr	x9, [x8, #8]
   81ad4:	d280800a 	mov	x10, #0x400                 	// #1024
   81ad8:	aa1f03e0 	mov	x0, xzr
   81adc:	f2e00c0a 	movk	x10, #0x60, lsl #48
   81ae0:	5280002b 	mov	w11, #0x1                   	// #1
   81ae4:	aa0a0129 	orr	x9, x9, x10
   81ae8:	a900250b 	stp	x11, x9, [x8]
   81aec:	d65f03c0 	ret
   81af0:	f9400509 	ldr	x9, [x8, #8]
   81af4:	d280800a 	mov	x10, #0x400                 	// #1024
   81af8:	f2e00c0a 	movk	x10, #0x60, lsl #48
   81afc:	aa1f03e0 	mov	x0, xzr
   81b00:	aa0a0129 	orr	x9, x9, x10
   81b04:	5280006a 	mov	w10, #0x3                   	// #3
   81b08:	b2790129 	orr	x9, x9, #0x80
   81b0c:	a900250a 	stp	x10, x9, [x8]
   81b10:	d65f03c0 	ret
   81b14:	f9400509 	ldr	x9, [x8, #8]
   81b18:	d280800a 	mov	x10, #0x400                 	// #1024
   81b1c:	f2e00c0a 	movk	x10, #0x60, lsl #48
   81b20:	aa1f03e0 	mov	x0, xzr
   81b24:	aa0a0129 	orr	x9, x9, x10
   81b28:	5280002a 	mov	w10, #0x1                   	// #1
   81b2c:	b2790129 	orr	x9, x9, #0x80
   81b30:	a900250a 	stp	x10, x9, [x8]
   81b34:	d65f03c0 	ret

0000000000081b38 <<libkernel::memory::arch_mmu::translation_entry::Descriptor as core::fmt::Debug>::fmt>:
   81b38:	d10483ff 	sub	sp, sp, #0x120
   81b3c:	f90083fd 	str	x29, [sp, #256]
   81b40:	a9114ffe 	stp	x30, x19, [sp, #272]
   81b44:	f9400008 	ldr	x8, [x0]
   81b48:	f0000009 	adrp	x9, 84000 <kernel_main+0x1184>
   81b4c:	91236129 	add	x9, x9, #0x8d8
   81b50:	aa0103f3 	mov	x19, x1
   81b54:	1000008a 	adr	x10, 81b64 <<libkernel::memory::arch_mmu::translation_entry::Descriptor as core::fmt::Debug>::fmt+0x2c>
   81b58:	3868692b 	ldrb	w11, [x9, x8]
   81b5c:	8b0b094a 	add	x10, x10, x11, lsl #2
   81b60:	d61f0140 	br	x10
   81b64:	f9400401 	ldr	x1, [x0, #8]
   81b68:	aa1f03e0 	mov	x0, xzr
   81b6c:	d376d828 	ubfx	x8, x1, #54, #1
   81b70:	d375d429 	ubfx	x9, x1, #53, #1
   81b74:	d374d02a 	ubfx	x10, x1, #52, #1
   81b78:	530b2c2b 	ubfx	w11, w1, #11, #1
   81b7c:	3902b3e8 	strb	w8, [sp, #172]
   81b80:	530a2828 	ubfx	w8, w1, #10, #1
   81b84:	3902c3e9 	strb	w9, [sp, #176]
   81b88:	53082429 	ubfx	w9, w1, #8, #2
   81b8c:	3902d3ea 	strb	w10, [sp, #180]
   81b90:	12001c2a 	and	w10, w1, #0xff
   81b94:	3902e3eb 	strb	w11, [sp, #184]
   81b98:	53061c2b 	ubfx	w11, w1, #6, #2
   81b9c:	3902f3e8 	strb	w8, [sp, #188]
   81ba0:	53051548 	ubfx	w8, w10, #5, #1
   81ba4:	390303e9 	strb	w9, [sp, #192]
   81ba8:	53021149 	ubfx	w9, w10, #2, #3
   81bac:	390313eb 	strb	w11, [sp, #196]
   81bb0:	390323e8 	strb	w8, [sp, #200]
   81bb4:	390333e9 	strb	w9, [sp, #204]
   81bb8:	97fffefa 	bl	817a0 <libkernel::memory::arch_mmu::translation_entry::Descriptor::get_address>
   81bbc:	b4001b40 	cbz	x0, 81f24 <<libkernel::memory::arch_mmu::translation_entry::Descriptor as core::fmt::Debug>::fmt+0x3ec>
   81bc0:	9102b3e8 	add	x8, sp, #0xac
   81bc4:	90000009 	adrp	x9, 81000 <core::fmt::num::imp::<impl core::fmt::Display for u32>::fmt+0x128>
   81bc8:	91151129 	add	x9, x9, #0x544
   81bcc:	9102c3ea 	add	x10, sp, #0xb0
   81bd0:	9000000b 	adrp	x11, 81000 <core::fmt::num::imp::<impl core::fmt::Display for u32>::fmt+0x128>
   81bd4:	9118316b 	add	x11, x11, #0x60c
   81bd8:	f90087e1 	str	x1, [sp, #264]
   81bdc:	a900a7e8 	stp	x8, x9, [sp, #8]
   81be0:	9102d3e8 	add	x8, sp, #0xb4
   81be4:	a901a7ea 	stp	x10, x9, [sp, #24]
   81be8:	9102e3ea 	add	x10, sp, #0xb8
   81bec:	a902a7e8 	stp	x8, x9, [sp, #40]
   81bf0:	9102f3e8 	add	x8, sp, #0xbc
   81bf4:	a903a7ea 	stp	x10, x9, [sp, #56]
   81bf8:	910303ea 	add	x10, sp, #0xc0
   81bfc:	a904a7e8 	stp	x8, x9, [sp, #72]
   81c00:	910313e8 	add	x8, sp, #0xc4
   81c04:	a905afea 	stp	x10, x11, [sp, #88]
   81c08:	910323ea 	add	x10, sp, #0xc8
   81c0c:	a906afe8 	stp	x8, x11, [sp, #104]
   81c10:	910333e8 	add	x8, sp, #0xcc
   81c14:	a907a7ea 	stp	x10, x9, [sp, #120]
   81c18:	b0000009 	adrp	x9, 82000 <<libkernel::memory::arch_mmu::translation_entry::Descriptor as core::fmt::Display>::fmt+0xac>
   81c1c:	91220129 	add	x9, x9, #0x880
   81c20:	9000002a 	adrp	x10, 85000 <compiler_builtins::mem::__llvm_memset_element_unordered_atomic_16+0x774>
   81c24:	9112614a 	add	x10, x10, #0x498
   81c28:	a908afe8 	stp	x8, x11, [sp, #136]
   81c2c:	910423e8 	add	x8, sp, #0x108
   81c30:	a909a7e8 	stp	x8, x9, [sp, #152]
   81c34:	52800148 	mov	w8, #0xa                   	// #10
   81c38:	90000029 	adrp	x9, 85000 <compiler_builtins::mem::__llvm_memset_element_unordered_atomic_16+0x774>
   81c3c:	9127a129 	add	x9, x9, #0x9e8
   81c40:	140000a2 	b	81ec8 <<libkernel::memory::arch_mmu::translation_entry::Descriptor as core::fmt::Debug>::fmt+0x390>
   81c44:	f9400401 	ldr	x1, [x0, #8]
   81c48:	52800040 	mov	w0, #0x2                   	// #2
   81c4c:	d37ffc28 	lsr	x8, x1, #63
   81c50:	d37df829 	ubfx	x9, x1, #61, #2
   81c54:	d37cf02a 	ubfx	x10, x1, #60, #1
   81c58:	d37bec2b 	ubfx	x11, x1, #59, #1
   81c5c:	390303e8 	strb	w8, [sp, #192]
   81c60:	390313e9 	strb	w9, [sp, #196]
   81c64:	390323ea 	strb	w10, [sp, #200]
   81c68:	390333eb 	strb	w11, [sp, #204]
   81c6c:	97fffecd 	bl	817a0 <libkernel::memory::arch_mmu::translation_entry::Descriptor::get_address>
   81c70:	b4001420 	cbz	x0, 81ef4 <<libkernel::memory::arch_mmu::translation_entry::Descriptor as core::fmt::Debug>::fmt+0x3bc>
   81c74:	910303e8 	add	x8, sp, #0xc0
   81c78:	90000009 	adrp	x9, 81000 <core::fmt::num::imp::<impl core::fmt::Display for u32>::fmt+0x128>
   81c7c:	91151129 	add	x9, x9, #0x544
   81c80:	910313ea 	add	x10, sp, #0xc4
   81c84:	9000000b 	adrp	x11, 81000 <core::fmt::num::imp::<impl core::fmt::Display for u32>::fmt+0x128>
   81c88:	9118316b 	add	x11, x11, #0x60c
   81c8c:	f90087e1 	str	x1, [sp, #264]
   81c90:	a900a7e8 	stp	x8, x9, [sp, #8]
   81c94:	910323e8 	add	x8, sp, #0xc8
   81c98:	a901afea 	stp	x10, x11, [sp, #24]
   81c9c:	910333ea 	add	x10, sp, #0xcc
   81ca0:	a902a7e8 	stp	x8, x9, [sp, #40]
   81ca4:	910423e8 	add	x8, sp, #0x108
   81ca8:	a903a7ea 	stp	x10, x9, [sp, #56]
   81cac:	b0000009 	adrp	x9, 82000 <<libkernel::memory::arch_mmu::translation_entry::Descriptor as core::fmt::Display>::fmt+0xac>
   81cb0:	91220129 	add	x9, x9, #0x880
   81cb4:	9000002a 	adrp	x10, 85000 <compiler_builtins::mem::__llvm_memset_element_unordered_atomic_16+0x774>
   81cb8:	911ec14a 	add	x10, x10, #0x7b0
   81cbc:	a904a7e8 	stp	x8, x9, [sp, #72]
   81cc0:	528000a8 	mov	w8, #0x5                   	// #5
   81cc4:	90000029 	adrp	x9, 85000 <compiler_builtins::mem::__llvm_memset_element_unordered_atomic_16+0x774>
   81cc8:	911d8129 	add	x9, x9, #0x760
   81ccc:	1400007f 	b	81ec8 <<libkernel::memory::arch_mmu::translation_entry::Descriptor as core::fmt::Debug>::fmt+0x390>
   81cd0:	f9400401 	ldr	x1, [x0, #8]
   81cd4:	52800060 	mov	w0, #0x3                   	// #3
   81cd8:	d376d828 	ubfx	x8, x1, #54, #1
   81cdc:	d375d429 	ubfx	x9, x1, #53, #1
   81ce0:	d374d02a 	ubfx	x10, x1, #52, #1
   81ce4:	530b2c2b 	ubfx	w11, w1, #11, #1
   81ce8:	3902b3e8 	strb	w8, [sp, #172]
   81cec:	530a2828 	ubfx	w8, w1, #10, #1
   81cf0:	3902c3e9 	strb	w9, [sp, #176]
   81cf4:	53082429 	ubfx	w9, w1, #8, #2
   81cf8:	3902d3ea 	strb	w10, [sp, #180]
   81cfc:	12001c2a 	and	w10, w1, #0xff
   81d00:	3902e3eb 	strb	w11, [sp, #184]
   81d04:	53061c2b 	ubfx	w11, w1, #6, #2
   81d08:	3902f3e8 	strb	w8, [sp, #188]
   81d0c:	53051548 	ubfx	w8, w10, #5, #1
   81d10:	390303e9 	strb	w9, [sp, #192]
   81d14:	53021149 	ubfx	w9, w10, #2, #3
   81d18:	390313eb 	strb	w11, [sp, #196]
   81d1c:	390323e8 	strb	w8, [sp, #200]
   81d20:	390333e9 	strb	w9, [sp, #204]
   81d24:	97fffe9f 	bl	817a0 <libkernel::memory::arch_mmu::translation_entry::Descriptor::get_address>
   81d28:	b4000f20 	cbz	x0, 81f0c <<libkernel::memory::arch_mmu::translation_entry::Descriptor as core::fmt::Debug>::fmt+0x3d4>
   81d2c:	9102b3e8 	add	x8, sp, #0xac
   81d30:	90000009 	adrp	x9, 81000 <core::fmt::num::imp::<impl core::fmt::Display for u32>::fmt+0x128>
   81d34:	91151129 	add	x9, x9, #0x544
   81d38:	9102c3ea 	add	x10, sp, #0xb0
   81d3c:	9000000b 	adrp	x11, 81000 <core::fmt::num::imp::<impl core::fmt::Display for u32>::fmt+0x128>
   81d40:	9118316b 	add	x11, x11, #0x60c
   81d44:	f90087e1 	str	x1, [sp, #264]
   81d48:	a900a7e8 	stp	x8, x9, [sp, #8]
   81d4c:	9102d3e8 	add	x8, sp, #0xb4
   81d50:	a901a7ea 	stp	x10, x9, [sp, #24]
   81d54:	9102e3ea 	add	x10, sp, #0xb8
   81d58:	a902a7e8 	stp	x8, x9, [sp, #40]
   81d5c:	9102f3e8 	add	x8, sp, #0xbc
   81d60:	a903a7ea 	stp	x10, x9, [sp, #56]
   81d64:	910303ea 	add	x10, sp, #0xc0
   81d68:	a904a7e8 	stp	x8, x9, [sp, #72]
   81d6c:	910313e8 	add	x8, sp, #0xc4
   81d70:	a905afea 	stp	x10, x11, [sp, #88]
   81d74:	910323ea 	add	x10, sp, #0xc8
   81d78:	a906afe8 	stp	x8, x11, [sp, #104]
   81d7c:	910333e8 	add	x8, sp, #0xcc
   81d80:	a907a7ea 	stp	x10, x9, [sp, #120]
   81d84:	b0000009 	adrp	x9, 82000 <<libkernel::memory::arch_mmu::translation_entry::Descriptor as core::fmt::Display>::fmt+0xac>
   81d88:	91220129 	add	x9, x9, #0x880
   81d8c:	9000002a 	adrp	x10, 85000 <compiler_builtins::mem::__llvm_memset_element_unordered_atomic_16+0x774>
   81d90:	9112614a 	add	x10, x10, #0x498
   81d94:	a908afe8 	stp	x8, x11, [sp, #136]
   81d98:	910423e8 	add	x8, sp, #0x108
   81d9c:	a909a7e8 	stp	x8, x9, [sp, #152]
   81da0:	52800148 	mov	w8, #0xa                   	// #10
   81da4:	90000029 	adrp	x9, 85000 <compiler_builtins::mem::__llvm_memset_element_unordered_atomic_16+0x774>
   81da8:	910fe129 	add	x9, x9, #0x3f8
   81dac:	14000047 	b	81ec8 <<libkernel::memory::arch_mmu::translation_entry::Descriptor as core::fmt::Debug>::fmt+0x390>
   81db0:	a9400660 	ldp	x0, x1, [x19]
   81db4:	90000028 	adrp	x8, 85000 <compiler_builtins::mem::__llvm_memset_element_unordered_atomic_16+0x774>
   81db8:	910e0108 	add	x8, x8, #0x380
   81dbc:	52800029 	mov	w9, #0x1                   	// #1
   81dc0:	b000002a 	adrp	x10, 86000 <compiler_builtins::mem::__llvm_memset_element_unordered_atomic_16+0x1774>
   81dc4:	910b214a 	add	x10, x10, #0x2c8
   81dc8:	910023e2 	add	x2, sp, #0x8
   81dcc:	f90007ff 	str	xzr, [sp, #8]
   81dd0:	a901a7e8 	stp	x8, x9, [sp, #24]
   81dd4:	a902ffea 	stp	x10, xzr, [sp, #40]
   81dd8:	97fffbb7 	bl	80cb4 <core::fmt::write>
   81ddc:	a9514ffe 	ldp	x30, x19, [sp, #272]
   81de0:	f94083fd 	ldr	x29, [sp, #256]
   81de4:	910483ff 	add	sp, sp, #0x120
   81de8:	d65f03c0 	ret
   81dec:	f9400401 	ldr	x1, [x0, #8]
   81df0:	52800020 	mov	w0, #0x1                   	// #1
   81df4:	d376d828 	ubfx	x8, x1, #54, #1
   81df8:	d375d429 	ubfx	x9, x1, #53, #1
   81dfc:	d374d02a 	ubfx	x10, x1, #52, #1
   81e00:	530b2c2b 	ubfx	w11, w1, #11, #1
   81e04:	3902b3e8 	strb	w8, [sp, #172]
   81e08:	530a2828 	ubfx	w8, w1, #10, #1
   81e0c:	3902c3e9 	strb	w9, [sp, #176]
   81e10:	53082429 	ubfx	w9, w1, #8, #2
   81e14:	3902d3ea 	strb	w10, [sp, #180]
   81e18:	12001c2a 	and	w10, w1, #0xff
   81e1c:	3902e3eb 	strb	w11, [sp, #184]
   81e20:	53061c2b 	ubfx	w11, w1, #6, #2
   81e24:	3902f3e8 	strb	w8, [sp, #188]
   81e28:	53051548 	ubfx	w8, w10, #5, #1
   81e2c:	390303e9 	strb	w9, [sp, #192]
   81e30:	53021149 	ubfx	w9, w10, #2, #3
   81e34:	390313eb 	strb	w11, [sp, #196]
   81e38:	390323e8 	strb	w8, [sp, #200]
   81e3c:	390333e9 	strb	w9, [sp, #204]
   81e40:	97fffe58 	bl	817a0 <libkernel::memory::arch_mmu::translation_entry::Descriptor::get_address>
   81e44:	b40007c0 	cbz	x0, 81f3c <<libkernel::memory::arch_mmu::translation_entry::Descriptor as core::fmt::Debug>::fmt+0x404>
   81e48:	9102b3e8 	add	x8, sp, #0xac
   81e4c:	90000009 	adrp	x9, 81000 <core::fmt::num::imp::<impl core::fmt::Display for u32>::fmt+0x128>
   81e50:	91151129 	add	x9, x9, #0x544
   81e54:	9102c3ea 	add	x10, sp, #0xb0
   81e58:	9000000b 	adrp	x11, 81000 <core::fmt::num::imp::<impl core::fmt::Display for u32>::fmt+0x128>
   81e5c:	9118316b 	add	x11, x11, #0x60c
   81e60:	f90087e1 	str	x1, [sp, #264]
   81e64:	a900a7e8 	stp	x8, x9, [sp, #8]
   81e68:	9102d3e8 	add	x8, sp, #0xb4
   81e6c:	a901a7ea 	stp	x10, x9, [sp, #24]
   81e70:	9102e3ea 	add	x10, sp, #0xb8
   81e74:	a902a7e8 	stp	x8, x9, [sp, #40]
   81e78:	9102f3e8 	add	x8, sp, #0xbc
   81e7c:	a903a7ea 	stp	x10, x9, [sp, #56]
   81e80:	910303ea 	add	x10, sp, #0xc0
   81e84:	a904a7e8 	stp	x8, x9, [sp, #72]
   81e88:	910313e8 	add	x8, sp, #0xc4
   81e8c:	a905afea 	stp	x10, x11, [sp, #88]
   81e90:	910323ea 	add	x10, sp, #0xc8
   81e94:	a906afe8 	stp	x8, x11, [sp, #104]
   81e98:	910333e8 	add	x8, sp, #0xcc
   81e9c:	a907a7ea 	stp	x10, x9, [sp, #120]
   81ea0:	b0000009 	adrp	x9, 82000 <<libkernel::memory::arch_mmu::translation_entry::Descriptor as core::fmt::Display>::fmt+0xac>
   81ea4:	91220129 	add	x9, x9, #0x880
   81ea8:	9000002a 	adrp	x10, 85000 <compiler_builtins::mem::__llvm_memset_element_unordered_atomic_16+0x774>
   81eac:	9112614a 	add	x10, x10, #0x498
   81eb0:	a908afe8 	stp	x8, x11, [sp, #136]
   81eb4:	910423e8 	add	x8, sp, #0x108
   81eb8:	a909a7e8 	stp	x8, x9, [sp, #152]
   81ebc:	52800148 	mov	w8, #0xa                   	// #10
   81ec0:	90000029 	adrp	x9, 85000 <compiler_builtins::mem::__llvm_memset_element_unordered_atomic_16+0x774>
   81ec4:	91242129 	add	x9, x9, #0x908
   81ec8:	a9400660 	ldp	x0, x1, [x19]
   81ecc:	a90d23ea 	stp	x10, x8, [sp, #208]
   81ed0:	910023ea 	add	x10, sp, #0x8
   81ed4:	a90e23e9 	stp	x9, x8, [sp, #224]
   81ed8:	910343e2 	add	x2, sp, #0xd0
   81edc:	a90f23ea 	stp	x10, x8, [sp, #240]
   81ee0:	97fffb75 	bl	80cb4 <core::fmt::write>
   81ee4:	a9514ffe 	ldp	x30, x19, [sp, #272]
   81ee8:	f94083fd 	ldr	x29, [sp, #256]
   81eec:	910483ff 	add	sp, sp, #0x120
   81ef0:	d65f03c0 	ret
   81ef4:	90000020 	adrp	x0, 85000 <compiler_builtins::mem::__llvm_memset_element_unordered_atomic_16+0x774>
   81ef8:	913d8000 	add	x0, x0, #0xf60
   81efc:	90000021 	adrp	x1, 85000 <compiler_builtins::mem::__llvm_memset_element_unordered_atomic_16+0x774>
   81f00:	91232021 	add	x1, x1, #0x8c8
   81f04:	97fffb58 	bl	80c64 <core::panicking::panic>
   81f08:	d4200020 	brk	#0x1
   81f0c:	90000020 	adrp	x0, 85000 <compiler_builtins::mem::__llvm_memset_element_unordered_atomic_16+0x774>
   81f10:	913d8000 	add	x0, x0, #0xf60
   81f14:	90000021 	adrp	x1, 85000 <compiler_builtins::mem::__llvm_memset_element_unordered_atomic_16+0x774>
   81f18:	911c0021 	add	x1, x1, #0x700
   81f1c:	97fffb52 	bl	80c64 <core::panicking::panic>
   81f20:	d4200020 	brk	#0x1
   81f24:	90000020 	adrp	x0, 85000 <compiler_builtins::mem::__llvm_memset_element_unordered_atomic_16+0x774>
   81f28:	913d8000 	add	x0, x0, #0xf60
   81f2c:	90000021 	adrp	x1, 85000 <compiler_builtins::mem::__llvm_memset_element_unordered_atomic_16+0x774>
   81f30:	912a2021 	add	x1, x1, #0xa88
   81f34:	97fffb4c 	bl	80c64 <core::panicking::panic>
   81f38:	d4200020 	brk	#0x1
   81f3c:	90000020 	adrp	x0, 85000 <compiler_builtins::mem::__llvm_memset_element_unordered_atomic_16+0x774>
   81f40:	913d8000 	add	x0, x0, #0xf60
   81f44:	90000021 	adrp	x1, 85000 <compiler_builtins::mem::__llvm_memset_element_unordered_atomic_16+0x774>
   81f48:	9126a021 	add	x1, x1, #0x9a8
   81f4c:	97fffb46 	bl	80c64 <core::panicking::panic>
   81f50:	d4200020 	brk	#0x1

0000000000081f54 <<libkernel::memory::arch_mmu::translation_entry::Descriptor as core::fmt::Display>::fmt>:
   81f54:	d101c3ff 	sub	sp, sp, #0x70
   81f58:	a9064ffe 	stp	x30, x19, [sp, #96]
   81f5c:	f9400008 	ldr	x8, [x0]
   81f60:	f0000009 	adrp	x9, 84000 <kernel_main+0x1184>
   81f64:	91237529 	add	x9, x9, #0x8dd
   81f68:	aa0103f3 	mov	x19, x1
   81f6c:	1000008a 	adr	x10, 81f7c <<libkernel::memory::arch_mmu::translation_entry::Descriptor as core::fmt::Display>::fmt+0x28>
   81f70:	3868692b 	ldrb	w11, [x9, x8]
   81f74:	8b0b094a 	add	x10, x10, x11, lsl #2
   81f78:	d61f0140 	br	x10
   81f7c:	f9400401 	ldr	x1, [x0, #8]
   81f80:	d2808fe9 	mov	x9, #0x47f                 	// #1151
   81f84:	f2e00c09 	movk	x9, #0x60, lsl #48
   81f88:	927ed028 	and	x8, x1, #0x7ffffffffffffc
   81f8c:	924c5d08 	and	x8, x8, #0xfff0000000000fff
   81f90:	eb09011f 	cmp	x8, x9
   81f94:	54000ccc 	b.gt	8212c <<libkernel::memory::arch_mmu::translation_entry::Descriptor as core::fmt::Display>::fmt+0x1d8>
   81f98:	f11c011f 	cmp	x8, #0x700
   81f9c:	54001040 	b.eq	821a4 <<libkernel::memory::arch_mmu::translation_entry::Descriptor as core::fmt::Display>::fmt+0x250>  // b.none
   81fa0:	d280f089 	mov	x9, #0x784                 	// #1924
   81fa4:	f2e00809 	movk	x9, #0x40, lsl #48
   81fa8:	eb09011f 	cmp	x8, x9
   81fac:	54001020 	b.eq	821b0 <<libkernel::memory::arch_mmu::translation_entry::Descriptor as core::fmt::Display>::fmt+0x25c>  // b.none
   81fb0:	d2808009 	mov	x9, #0x400                 	// #1024
   81fb4:	f2e00c09 	movk	x9, #0x60, lsl #48
   81fb8:	eb09011f 	cmp	x8, x9
   81fbc:	540014a1 	b.ne	82250 <<libkernel::memory::arch_mmu::translation_entry::Descriptor as core::fmt::Display>::fmt+0x2fc>  // b.any
   81fc0:	90000028 	adrp	x8, 85000 <compiler_builtins::mem::__llvm_memset_element_unordered_atomic_16+0x774>
   81fc4:	910d9108 	add	x8, x8, #0x364
   81fc8:	140000a4 	b	82258 <<libkernel::memory::arch_mmu::translation_entry::Descriptor as core::fmt::Display>::fmt+0x304>
   81fcc:	f9400401 	ldr	x1, [x0, #8]
   81fd0:	90000028 	adrp	x8, 85000 <compiler_builtins::mem::__llvm_memset_element_unordered_atomic_16+0x774>
   81fd4:	910d9d08 	add	x8, x8, #0x367
   81fd8:	9000002a 	adrp	x10, 85000 <compiler_builtins::mem::__llvm_memset_element_unordered_atomic_16+0x774>
   81fdc:	910d994a 	add	x10, x10, #0x366
   81fe0:	52800040 	mov	w0, #0x2                   	// #2
   81fe4:	d37bfc29 	lsr	x9, x1, #59
   81fe8:	f1001d3f 	cmp	x9, #0x7
   81fec:	9a880148 	csel	x8, x10, x8, eq  // eq = none
   81ff0:	f90013e8 	str	x8, [sp, #32]
   81ff4:	97fffdeb 	bl	817a0 <libkernel::memory::arch_mmu::translation_entry::Descriptor::get_address>
   81ff8:	b40018a0 	cbz	x0, 8230c <<libkernel::memory::arch_mmu::translation_entry::Descriptor as core::fmt::Display>::fmt+0x3b8>
   81ffc:	910083e8 	add	x8, sp, #0x20
   82000:	90000009 	adrp	x9, 82000 <<libkernel::memory::arch_mmu::translation_entry::Descriptor as core::fmt::Display>::fmt+0xac>
   82004:	910db129 	add	x9, x9, #0x36c
   82008:	f90017e1 	str	x1, [sp, #40]
   8200c:	f000000a 	adrp	x10, 85000 <compiler_builtins::mem::__llvm_memset_element_unordered_atomic_16+0x774>
   82010:	912c014a 	add	x10, x10, #0xb00
   82014:	140000ae 	b	822cc <<libkernel::memory::arch_mmu::translation_entry::Descriptor as core::fmt::Display>::fmt+0x378>
   82018:	f9400401 	ldr	x1, [x0, #8]
   8201c:	d2808fe9 	mov	x9, #0x47f                 	// #1151
   82020:	f2e00c09 	movk	x9, #0x60, lsl #48
   82024:	927ed028 	and	x8, x1, #0x7ffffffffffffc
   82028:	924c5d08 	and	x8, x8, #0xfff0000000000fff
   8202c:	eb09011f 	cmp	x8, x9
   82030:	5400060c 	b.gt	820f0 <<libkernel::memory::arch_mmu::translation_entry::Descriptor as core::fmt::Display>::fmt+0x19c>
   82034:	f11c011f 	cmp	x8, #0x700
   82038:	54000c20 	b.eq	821bc <<libkernel::memory::arch_mmu::translation_entry::Descriptor as core::fmt::Display>::fmt+0x268>  // b.none
   8203c:	d280f089 	mov	x9, #0x784                 	// #1924
   82040:	f2e00809 	movk	x9, #0x40, lsl #48
   82044:	eb09011f 	cmp	x8, x9
   82048:	54000c00 	b.eq	821c8 <<libkernel::memory::arch_mmu::translation_entry::Descriptor as core::fmt::Display>::fmt+0x274>  // b.none
   8204c:	d2808009 	mov	x9, #0x400                 	// #1024
   82050:	f2e00c09 	movk	x9, #0x60, lsl #48
   82054:	eb09011f 	cmp	x8, x9
   82058:	54000d61 	b.ne	82204 <<libkernel::memory::arch_mmu::translation_entry::Descriptor as core::fmt::Display>::fmt+0x2b0>  // b.any
   8205c:	f0000008 	adrp	x8, 85000 <compiler_builtins::mem::__llvm_memset_element_unordered_atomic_16+0x774>
   82060:	910d9108 	add	x8, x8, #0x364
   82064:	1400006a 	b	8220c <<libkernel::memory::arch_mmu::translation_entry::Descriptor as core::fmt::Display>::fmt+0x2b8>
   82068:	a9400660 	ldp	x0, x1, [x19]
   8206c:	f0000008 	adrp	x8, 85000 <compiler_builtins::mem::__llvm_memset_element_unordered_atomic_16+0x774>
   82070:	910e0108 	add	x8, x8, #0x380
   82074:	52800029 	mov	w9, #0x1                   	// #1
   82078:	9000002a 	adrp	x10, 86000 <compiler_builtins::mem::__llvm_memset_element_unordered_atomic_16+0x1774>
   8207c:	910b214a 	add	x10, x10, #0x2c8
   82080:	f9001bff 	str	xzr, [sp, #48]
   82084:	a90427e8 	stp	x8, x9, [sp, #64]
   82088:	a9057fea 	stp	x10, xzr, [sp, #80]
   8208c:	9100c3e2 	add	x2, sp, #0x30
   82090:	97fffb09 	bl	80cb4 <core::fmt::write>
   82094:	a9464ffe 	ldp	x30, x19, [sp, #96]
   82098:	9101c3ff 	add	sp, sp, #0x70
   8209c:	d65f03c0 	ret
   820a0:	f9400401 	ldr	x1, [x0, #8]
   820a4:	d2808fe9 	mov	x9, #0x47f                 	// #1151
   820a8:	f2e00c09 	movk	x9, #0x60, lsl #48
   820ac:	927ed028 	and	x8, x1, #0x7ffffffffffffc
   820b0:	924c5d08 	and	x8, x8, #0xfff0000000000fff
   820b4:	eb09011f 	cmp	x8, x9
   820b8:	5400058c 	b.gt	82168 <<libkernel::memory::arch_mmu::translation_entry::Descriptor as core::fmt::Display>::fmt+0x214>
   820bc:	f11c011f 	cmp	x8, #0x700
   820c0:	540008a0 	b.eq	821d4 <<libkernel::memory::arch_mmu::translation_entry::Descriptor as core::fmt::Display>::fmt+0x280>  // b.none
   820c4:	d280f089 	mov	x9, #0x784                 	// #1924
   820c8:	f2e00809 	movk	x9, #0x40, lsl #48
   820cc:	eb09011f 	cmp	x8, x9
   820d0:	54000880 	b.eq	821e0 <<libkernel::memory::arch_mmu::translation_entry::Descriptor as core::fmt::Display>::fmt+0x28c>  // b.none
   820d4:	d2808009 	mov	x9, #0x400                 	// #1024
   820d8:	f2e00c09 	movk	x9, #0x60, lsl #48
   820dc:	eb09011f 	cmp	x8, x9
   820e0:	54000de1 	b.ne	8229c <<libkernel::memory::arch_mmu::translation_entry::Descriptor as core::fmt::Display>::fmt+0x348>  // b.any
   820e4:	f0000008 	adrp	x8, 85000 <compiler_builtins::mem::__llvm_memset_element_unordered_atomic_16+0x774>
   820e8:	910d9108 	add	x8, x8, #0x364
   820ec:	1400006e 	b	822a4 <<libkernel::memory::arch_mmu::translation_entry::Descriptor as core::fmt::Display>::fmt+0x350>
   820f0:	d2809009 	mov	x9, #0x480                 	// #1152
   820f4:	f2e00c09 	movk	x9, #0x60, lsl #48
   820f8:	eb09011f 	cmp	x8, x9
   820fc:	54000780 	b.eq	821ec <<libkernel::memory::arch_mmu::translation_entry::Descriptor as core::fmt::Display>::fmt+0x298>  // b.none
   82100:	d280e089 	mov	x9, #0x704                 	// #1796
   82104:	f2e00c09 	movk	x9, #0x60, lsl #48
   82108:	eb09011f 	cmp	x8, x9
   8210c:	54000760 	b.eq	821f8 <<libkernel::memory::arch_mmu::translation_entry::Descriptor as core::fmt::Display>::fmt+0x2a4>  // b.none
   82110:	d280f089 	mov	x9, #0x784                 	// #1924
   82114:	f2e00c09 	movk	x9, #0x60, lsl #48
   82118:	eb09011f 	cmp	x8, x9
   8211c:	54000741 	b.ne	82204 <<libkernel::memory::arch_mmu::translation_entry::Descriptor as core::fmt::Display>::fmt+0x2b0>  // b.any
   82120:	f0000008 	adrp	x8, 85000 <compiler_builtins::mem::__llvm_memset_element_unordered_atomic_16+0x774>
   82124:	910d8508 	add	x8, x8, #0x361
   82128:	14000039 	b	8220c <<libkernel::memory::arch_mmu::translation_entry::Descriptor as core::fmt::Display>::fmt+0x2b8>
   8212c:	d2809009 	mov	x9, #0x480                 	// #1152
   82130:	f2e00c09 	movk	x9, #0x60, lsl #48
   82134:	eb09011f 	cmp	x8, x9
   82138:	54000800 	b.eq	82238 <<libkernel::memory::arch_mmu::translation_entry::Descriptor as core::fmt::Display>::fmt+0x2e4>  // b.none
   8213c:	d280e089 	mov	x9, #0x704                 	// #1796
   82140:	f2e00c09 	movk	x9, #0x60, lsl #48
   82144:	eb09011f 	cmp	x8, x9
   82148:	540007e0 	b.eq	82244 <<libkernel::memory::arch_mmu::translation_entry::Descriptor as core::fmt::Display>::fmt+0x2f0>  // b.none
   8214c:	d280f089 	mov	x9, #0x784                 	// #1924
   82150:	f2e00c09 	movk	x9, #0x60, lsl #48
   82154:	eb09011f 	cmp	x8, x9
   82158:	540007c1 	b.ne	82250 <<libkernel::memory::arch_mmu::translation_entry::Descriptor as core::fmt::Display>::fmt+0x2fc>  // b.any
   8215c:	f0000008 	adrp	x8, 85000 <compiler_builtins::mem::__llvm_memset_element_unordered_atomic_16+0x774>
   82160:	910d8508 	add	x8, x8, #0x361
   82164:	1400003d 	b	82258 <<libkernel::memory::arch_mmu::translation_entry::Descriptor as core::fmt::Display>::fmt+0x304>
   82168:	d2809009 	mov	x9, #0x480                 	// #1152
   8216c:	f2e00c09 	movk	x9, #0x60, lsl #48
   82170:	eb09011f 	cmp	x8, x9
   82174:	54000880 	b.eq	82284 <<libkernel::memory::arch_mmu::translation_entry::Descriptor as core::fmt::Display>::fmt+0x330>  // b.none
   82178:	d280e089 	mov	x9, #0x704                 	// #1796
   8217c:	f2e00c09 	movk	x9, #0x60, lsl #48
   82180:	eb09011f 	cmp	x8, x9
   82184:	54000860 	b.eq	82290 <<libkernel::memory::arch_mmu::translation_entry::Descriptor as core::fmt::Display>::fmt+0x33c>  // b.none
   82188:	d280f089 	mov	x9, #0x784                 	// #1924
   8218c:	f2e00c09 	movk	x9, #0x60, lsl #48
   82190:	eb09011f 	cmp	x8, x9
   82194:	54000841 	b.ne	8229c <<libkernel::memory::arch_mmu::translation_entry::Descriptor as core::fmt::Display>::fmt+0x348>  // b.any
   82198:	f0000008 	adrp	x8, 85000 <compiler_builtins::mem::__llvm_memset_element_unordered_atomic_16+0x774>
   8219c:	910d8508 	add	x8, x8, #0x361
   821a0:	14000041 	b	822a4 <<libkernel::memory::arch_mmu::translation_entry::Descriptor as core::fmt::Display>::fmt+0x350>
   821a4:	f0000008 	adrp	x8, 85000 <compiler_builtins::mem::__llvm_memset_element_unordered_atomic_16+0x774>
   821a8:	910d8d08 	add	x8, x8, #0x363
   821ac:	1400002b 	b	82258 <<libkernel::memory::arch_mmu::translation_entry::Descriptor as core::fmt::Display>::fmt+0x304>
   821b0:	f0000008 	adrp	x8, 85000 <compiler_builtins::mem::__llvm_memset_element_unordered_atomic_16+0x774>
   821b4:	910d8908 	add	x8, x8, #0x362
   821b8:	14000028 	b	82258 <<libkernel::memory::arch_mmu::translation_entry::Descriptor as core::fmt::Display>::fmt+0x304>
   821bc:	f0000008 	adrp	x8, 85000 <compiler_builtins::mem::__llvm_memset_element_unordered_atomic_16+0x774>
   821c0:	910d8d08 	add	x8, x8, #0x363
   821c4:	14000012 	b	8220c <<libkernel::memory::arch_mmu::translation_entry::Descriptor as core::fmt::Display>::fmt+0x2b8>
   821c8:	f0000008 	adrp	x8, 85000 <compiler_builtins::mem::__llvm_memset_element_unordered_atomic_16+0x774>
   821cc:	910d8908 	add	x8, x8, #0x362
   821d0:	1400000f 	b	8220c <<libkernel::memory::arch_mmu::translation_entry::Descriptor as core::fmt::Display>::fmt+0x2b8>
   821d4:	f0000008 	adrp	x8, 85000 <compiler_builtins::mem::__llvm_memset_element_unordered_atomic_16+0x774>
   821d8:	910d8d08 	add	x8, x8, #0x363
   821dc:	14000032 	b	822a4 <<libkernel::memory::arch_mmu::translation_entry::Descriptor as core::fmt::Display>::fmt+0x350>
   821e0:	f0000008 	adrp	x8, 85000 <compiler_builtins::mem::__llvm_memset_element_unordered_atomic_16+0x774>
   821e4:	910d8908 	add	x8, x8, #0x362
   821e8:	1400002f 	b	822a4 <<libkernel::memory::arch_mmu::translation_entry::Descriptor as core::fmt::Display>::fmt+0x350>
   821ec:	f0000008 	adrp	x8, 85000 <compiler_builtins::mem::__llvm_memset_element_unordered_atomic_16+0x774>
   821f0:	910d9508 	add	x8, x8, #0x365
   821f4:	14000006 	b	8220c <<libkernel::memory::arch_mmu::translation_entry::Descriptor as core::fmt::Display>::fmt+0x2b8>
   821f8:	f0000008 	adrp	x8, 85000 <compiler_builtins::mem::__llvm_memset_element_unordered_atomic_16+0x774>
   821fc:	910d8108 	add	x8, x8, #0x360
   82200:	14000003 	b	8220c <<libkernel::memory::arch_mmu::translation_entry::Descriptor as core::fmt::Display>::fmt+0x2b8>
   82204:	f0000008 	adrp	x8, 85000 <compiler_builtins::mem::__llvm_memset_element_unordered_atomic_16+0x774>
   82208:	910d9d08 	add	x8, x8, #0x367
   8220c:	52800060 	mov	w0, #0x3                   	// #3
   82210:	f90013e8 	str	x8, [sp, #32]
   82214:	97fffd63 	bl	817a0 <libkernel::memory::arch_mmu::translation_entry::Descriptor::get_address>
   82218:	b4000860 	cbz	x0, 82324 <<libkernel::memory::arch_mmu::translation_entry::Descriptor as core::fmt::Display>::fmt+0x3d0>
   8221c:	910083e8 	add	x8, sp, #0x20
   82220:	90000009 	adrp	x9, 82000 <<libkernel::memory::arch_mmu::translation_entry::Descriptor as core::fmt::Display>::fmt+0xac>
   82224:	910db129 	add	x9, x9, #0x36c
   82228:	f000000a 	adrp	x10, 85000 <compiler_builtins::mem::__llvm_memset_element_unordered_atomic_16+0x774>
   8222c:	912ae14a 	add	x10, x10, #0xab8
   82230:	f90017e1 	str	x1, [sp, #40]
   82234:	14000026 	b	822cc <<libkernel::memory::arch_mmu::translation_entry::Descriptor as core::fmt::Display>::fmt+0x378>
   82238:	f0000008 	adrp	x8, 85000 <compiler_builtins::mem::__llvm_memset_element_unordered_atomic_16+0x774>
   8223c:	910d9508 	add	x8, x8, #0x365
   82240:	14000006 	b	82258 <<libkernel::memory::arch_mmu::translation_entry::Descriptor as core::fmt::Display>::fmt+0x304>
   82244:	f0000008 	adrp	x8, 85000 <compiler_builtins::mem::__llvm_memset_element_unordered_atomic_16+0x774>
   82248:	910d8108 	add	x8, x8, #0x360
   8224c:	14000003 	b	82258 <<libkernel::memory::arch_mmu::translation_entry::Descriptor as core::fmt::Display>::fmt+0x304>
   82250:	f0000008 	adrp	x8, 85000 <compiler_builtins::mem::__llvm_memset_element_unordered_atomic_16+0x774>
   82254:	910d9d08 	add	x8, x8, #0x367
   82258:	aa1f03e0 	mov	x0, xzr
   8225c:	f90013e8 	str	x8, [sp, #32]
   82260:	97fffd50 	bl	817a0 <libkernel::memory::arch_mmu::translation_entry::Descriptor::get_address>
   82264:	b40006c0 	cbz	x0, 8233c <<libkernel::memory::arch_mmu::translation_entry::Descriptor as core::fmt::Display>::fmt+0x3e8>
   82268:	910083e8 	add	x8, sp, #0x20
   8226c:	90000009 	adrp	x9, 82000 <<libkernel::memory::arch_mmu::translation_entry::Descriptor as core::fmt::Display>::fmt+0xac>
   82270:	910db129 	add	x9, x9, #0x36c
   82274:	f90017e1 	str	x1, [sp, #40]
   82278:	f000000a 	adrp	x10, 85000 <compiler_builtins::mem::__llvm_memset_element_unordered_atomic_16+0x774>
   8227c:	912e414a 	add	x10, x10, #0xb90
   82280:	14000013 	b	822cc <<libkernel::memory::arch_mmu::translation_entry::Descriptor as core::fmt::Display>::fmt+0x378>
   82284:	f0000008 	adrp	x8, 85000 <compiler_builtins::mem::__llvm_memset_element_unordered_atomic_16+0x774>
   82288:	910d9508 	add	x8, x8, #0x365
   8228c:	14000006 	b	822a4 <<libkernel::memory::arch_mmu::translation_entry::Descriptor as core::fmt::Display>::fmt+0x350>
   82290:	f0000008 	adrp	x8, 85000 <compiler_builtins::mem::__llvm_memset_element_unordered_atomic_16+0x774>
   82294:	910d8108 	add	x8, x8, #0x360
   82298:	14000003 	b	822a4 <<libkernel::memory::arch_mmu::translation_entry::Descriptor as core::fmt::Display>::fmt+0x350>
   8229c:	f0000008 	adrp	x8, 85000 <compiler_builtins::mem::__llvm_memset_element_unordered_atomic_16+0x774>
   822a0:	910d9d08 	add	x8, x8, #0x367
   822a4:	52800020 	mov	w0, #0x1                   	// #1
   822a8:	f90013e8 	str	x8, [sp, #32]
   822ac:	97fffd3d 	bl	817a0 <libkernel::memory::arch_mmu::translation_entry::Descriptor::get_address>
   822b0:	b4000520 	cbz	x0, 82354 <<libkernel::memory::arch_mmu::translation_entry::Descriptor as core::fmt::Display>::fmt+0x400>
   822b4:	910083e8 	add	x8, sp, #0x20
   822b8:	90000009 	adrp	x9, 82000 <<libkernel::memory::arch_mmu::translation_entry::Descriptor as core::fmt::Display>::fmt+0xac>
   822bc:	910db129 	add	x9, x9, #0x36c
   822c0:	f90017e1 	str	x1, [sp, #40]
   822c4:	f000000a 	adrp	x10, 85000 <compiler_builtins::mem::__llvm_memset_element_unordered_atomic_16+0x774>
   822c8:	912d414a 	add	x10, x10, #0xb50
   822cc:	a90027e8 	stp	x8, x9, [sp]
   822d0:	9100a3e8 	add	x8, sp, #0x28
   822d4:	90000009 	adrp	x9, 82000 <<libkernel::memory::arch_mmu::translation_entry::Descriptor as core::fmt::Display>::fmt+0xac>
   822d8:	91220129 	add	x9, x9, #0x880
   822dc:	a9400660 	ldp	x0, x1, [x19]
   822e0:	a90127e8 	stp	x8, x9, [sp, #16]
   822e4:	52800048 	mov	w8, #0x2                   	// #2
   822e8:	910003e9 	mov	x9, sp
   822ec:	f9001bff 	str	xzr, [sp, #48]
   822f0:	a90423ea 	stp	x10, x8, [sp, #64]
   822f4:	a90523e9 	stp	x9, x8, [sp, #80]
   822f8:	9100c3e2 	add	x2, sp, #0x30
   822fc:	97fffa6e 	bl	80cb4 <core::fmt::write>
   82300:	a9464ffe 	ldp	x30, x19, [sp, #96]
   82304:	9101c3ff 	add	sp, sp, #0x70
   82308:	d65f03c0 	ret
   8230c:	f0000000 	adrp	x0, 85000 <compiler_builtins::mem::__llvm_memset_element_unordered_atomic_16+0x774>
   82310:	913d8000 	add	x0, x0, #0xf60
   82314:	f0000001 	adrp	x1, 85000 <compiler_builtins::mem::__llvm_memset_element_unordered_atomic_16+0x774>
   82318:	912c8021 	add	x1, x1, #0xb20
   8231c:	97fffa52 	bl	80c64 <core::panicking::panic>
   82320:	d4200020 	brk	#0x1
   82324:	f0000000 	adrp	x0, 85000 <compiler_builtins::mem::__llvm_memset_element_unordered_atomic_16+0x774>
   82328:	913d8000 	add	x0, x0, #0xf60
   8232c:	f0000001 	adrp	x1, 85000 <compiler_builtins::mem::__llvm_memset_element_unordered_atomic_16+0x774>
   82330:	912b6021 	add	x1, x1, #0xad8
   82334:	97fffa4c 	bl	80c64 <core::panicking::panic>
   82338:	d4200020 	brk	#0x1
   8233c:	f0000000 	adrp	x0, 85000 <compiler_builtins::mem::__llvm_memset_element_unordered_atomic_16+0x774>
   82340:	913d8000 	add	x0, x0, #0xf60
   82344:	f0000001 	adrp	x1, 85000 <compiler_builtins::mem::__llvm_memset_element_unordered_atomic_16+0x774>
   82348:	912ec021 	add	x1, x1, #0xbb0
   8234c:	97fffa46 	bl	80c64 <core::panicking::panic>
   82350:	d4200020 	brk	#0x1
   82354:	f0000000 	adrp	x0, 85000 <compiler_builtins::mem::__llvm_memset_element_unordered_atomic_16+0x774>
   82358:	913d8000 	add	x0, x0, #0xf60
   8235c:	f0000001 	adrp	x1, 85000 <compiler_builtins::mem::__llvm_memset_element_unordered_atomic_16+0x774>
   82360:	912dc021 	add	x1, x1, #0xb70
   82364:	97fffa40 	bl	80c64 <core::panicking::panic>
   82368:	d4200020 	brk	#0x1

000000000008236c <<&T as core::fmt::Display>::fmt>:
   8236c:	d10103ff 	sub	sp, sp, #0x40
   82370:	f9001bfe 	str	x30, [sp, #48]
   82374:	f9400008 	ldr	x8, [x0]
   82378:	d0000009 	adrp	x9, 84000 <kernel_main+0x1184>
   8237c:	91238929 	add	x9, x9, #0x8e2
   82380:	39400108 	ldrb	w8, [x8]
   82384:	1000008a 	adr	x10, 82394 <<&T as core::fmt::Display>::fmt+0x28>
   82388:	3868692b 	ldrb	w11, [x9, x8]
   8238c:	8b0b094a 	add	x10, x10, x11, lsl #2
   82390:	d61f0140 	br	x10
   82394:	f0000008 	adrp	x8, 85000 <compiler_builtins::mem::__llvm_memset_element_unordered_atomic_16+0x774>
   82398:	910d4108 	add	x8, x8, #0x350
   8239c:	14000015 	b	823f0 <<&T as core::fmt::Display>::fmt+0x84>
   823a0:	f0000008 	adrp	x8, 85000 <compiler_builtins::mem::__llvm_memset_element_unordered_atomic_16+0x774>
   823a4:	910cc108 	add	x8, x8, #0x330
   823a8:	14000012 	b	823f0 <<&T as core::fmt::Display>::fmt+0x84>
   823ac:	f0000008 	adrp	x8, 85000 <compiler_builtins::mem::__llvm_memset_element_unordered_atomic_16+0x774>
   823b0:	910c4108 	add	x8, x8, #0x310
   823b4:	1400000f 	b	823f0 <<&T as core::fmt::Display>::fmt+0x84>
   823b8:	f0000008 	adrp	x8, 85000 <compiler_builtins::mem::__llvm_memset_element_unordered_atomic_16+0x774>
   823bc:	910ba108 	add	x8, x8, #0x2e8
   823c0:	1400000c 	b	823f0 <<&T as core::fmt::Display>::fmt+0x84>
   823c4:	f0000008 	adrp	x8, 85000 <compiler_builtins::mem::__llvm_memset_element_unordered_atomic_16+0x774>
   823c8:	910ac108 	add	x8, x8, #0x2b0
   823cc:	14000009 	b	823f0 <<&T as core::fmt::Display>::fmt+0x84>
   823d0:	f0000008 	adrp	x8, 85000 <compiler_builtins::mem::__llvm_memset_element_unordered_atomic_16+0x774>
   823d4:	910a4108 	add	x8, x8, #0x290
   823d8:	14000006 	b	823f0 <<&T as core::fmt::Display>::fmt+0x84>
   823dc:	f0000008 	adrp	x8, 85000 <compiler_builtins::mem::__llvm_memset_element_unordered_atomic_16+0x774>
   823e0:	9109c108 	add	x8, x8, #0x270
   823e4:	14000003 	b	823f0 <<&T as core::fmt::Display>::fmt+0x84>
   823e8:	f0000008 	adrp	x8, 85000 <compiler_builtins::mem::__llvm_memset_element_unordered_atomic_16+0x774>
   823ec:	91098108 	add	x8, x8, #0x260
   823f0:	a9400420 	ldp	x0, x1, [x1]
   823f4:	52800029 	mov	w9, #0x1                   	// #1
   823f8:	9000002a 	adrp	x10, 86000 <compiler_builtins::mem::__llvm_memset_element_unordered_atomic_16+0x1774>
   823fc:	910b214a 	add	x10, x10, #0x2c8
   82400:	910003e2 	mov	x2, sp
   82404:	f90003ff 	str	xzr, [sp]
   82408:	f9000be8 	str	x8, [sp, #16]
   8240c:	a901abe9 	stp	x9, x10, [sp, #24]
   82410:	f90017ff 	str	xzr, [sp, #40]
   82414:	97fffa28 	bl	80cb4 <core::fmt::write>
   82418:	f9401bfe 	ldr	x30, [sp, #48]
   8241c:	910103ff 	add	sp, sp, #0x40
   82420:	d65f03c0 	ret

0000000000082424 <libkernel::print::_print>:
   82424:	d10143ff 	sub	sp, sp, #0x50
   82428:	f9001bfe 	str	x30, [sp, #48]
   8242c:	a9044ff4 	stp	x20, x19, [sp, #64]
   82430:	b0000028 	adrp	x8, 87000 <libkernel::console::CONSOLE>
   82434:	91002108 	add	x8, x8, #0x8
   82438:	aa0003e1 	mov	x1, x0
   8243c:	910003e0 	mov	x0, sp
   82440:	52800602 	mov	w2, #0x30                  	// #48
   82444:	a9405113 	ldp	x19, x20, [x8]
   82448:	9400071e 	bl	840c0 <memcpy>
   8244c:	f9401a88 	ldr	x8, [x20, #48]
   82450:	910003e1 	mov	x1, sp
   82454:	aa1303e0 	mov	x0, x19
   82458:	d63f0100 	blr	x8
   8245c:	370000e0 	tbnz	w0, #0, 82478 <libkernel::print::_print+0x54>
   82460:	a9444ff4 	ldp	x20, x19, [sp, #64]
   82464:	b0000020 	adrp	x0, 87000 <libkernel::console::CONSOLE>
   82468:	91000000 	add	x0, x0, #0x0
   8246c:	f9401bfe 	ldr	x30, [sp, #48]
   82470:	910143ff 	add	sp, sp, #0x50
   82474:	14000020 	b	824f4 <unlock>
   82478:	90000020 	adrp	x0, 86000 <compiler_builtins::mem::__llvm_memset_element_unordered_atomic_16+0x1774>
   8247c:	9100a000 	add	x0, x0, #0x28
   82480:	f0000002 	adrp	x2, 85000 <compiler_builtins::mem::__llvm_memset_element_unordered_atomic_16+0x774>
   82484:	912f2042 	add	x2, x2, #0xbc8
   82488:	f0000003 	adrp	x3, 85000 <compiler_builtins::mem::__llvm_memset_element_unordered_atomic_16+0x774>
   8248c:	91300063 	add	x3, x3, #0xc00
   82490:	9100e3e1 	add	x1, sp, #0x38
   82494:	97fffaef 	bl	81050 <core::result::unwrap_failed>
   82498:	d4200020 	brk	#0x1

000000000008249c <<&T as core::fmt::Display>::fmt>:
   8249c:	f9400009 	ldr	x9, [x0]
   824a0:	aa0103e8 	mov	x8, x1
   824a4:	aa0803e0 	mov	x0, x8
   824a8:	a9400921 	ldp	x1, x2, [x9]
   824ac:	17fff86d 	b	80660 <core::fmt::Formatter::pad>

00000000000824b0 <<&T as core::fmt::Display>::fmt>:
   824b0:	d10143ff 	sub	sp, sp, #0x50
   824b4:	f9001bfe 	str	x30, [sp, #48]
   824b8:	a9044ff4 	stp	x20, x19, [sp, #64]
   824bc:	f9400008 	ldr	x8, [x0]
   824c0:	910003e0 	mov	x0, sp
   824c4:	a9405033 	ldp	x19, x20, [x1]
   824c8:	52800602 	mov	w2, #0x30                  	// #48
   824cc:	aa0803e1 	mov	x1, x8
   824d0:	940006fc 	bl	840c0 <memcpy>
   824d4:	910003e2 	mov	x2, sp
   824d8:	aa1303e0 	mov	x0, x19
   824dc:	aa1403e1 	mov	x1, x20
   824e0:	97fff9f5 	bl	80cb4 <core::fmt::write>
   824e4:	a9444ff4 	ldp	x20, x19, [sp, #64]
   824e8:	f9401bfe 	ldr	x30, [sp, #48]
   824ec:	910143ff 	add	sp, sp, #0x50
   824f0:	d65f03c0 	ret

00000000000824f4 <unlock>:
   824f4:	d65f03c0 	ret

00000000000824f8 <try_lock>:
   824f8:	52800020 	mov	w0, #0x1                   	// #1
   824fc:	d65f03c0 	ret

0000000000082500 <<core::option::Option<T> as core::fmt::Debug>::fmt>:
   82500:	d10283ff 	sub	sp, sp, #0xa0
   82504:	a9075ffe 	stp	x30, x23, [sp, #112]
   82508:	a90857f6 	stp	x22, x21, [sp, #128]
   8250c:	a9094ff4 	stp	x20, x19, [sp, #144]
   82510:	f9400008 	ldr	x8, [x0]
   82514:	aa0103f6 	mov	x22, x1
   82518:	b4000228 	cbz	x8, 8255c <<core::option::Option<T> as core::fmt::Debug>::fmt+0x5c>
   8251c:	a94052d3 	ldp	x19, x20, [x22]
   82520:	aa0003f5 	mov	x21, x0
   82524:	d0000001 	adrp	x1, 84000 <kernel_main+0x1184>
   82528:	913b0821 	add	x1, x1, #0xec2
   8252c:	52800082 	mov	w2, #0x4                   	// #4
   82530:	aa1303e0 	mov	x0, x19
   82534:	f9400e97 	ldr	x23, [x20, #24]
   82538:	d63f02e0 	blr	x23
   8253c:	36000240 	tbz	w0, #0, 82584 <<core::option::Option<T> as core::fmt::Debug>::fmt+0x84>
   82540:	52800036 	mov	w22, #0x1                   	// #1
   82544:	2a1603e0 	mov	w0, w22
   82548:	a9494ff4 	ldp	x20, x19, [sp, #144]
   8254c:	a94857f6 	ldp	x22, x21, [sp, #128]
   82550:	a9475ffe 	ldp	x30, x23, [sp, #112]
   82554:	910283ff 	add	sp, sp, #0xa0
   82558:	d65f03c0 	ret
   8255c:	a94022c0 	ldp	x0, x8, [x22]
   82560:	d0000001 	adrp	x1, 84000 <kernel_main+0x1184>
   82564:	913b1821 	add	x1, x1, #0xec6
   82568:	a9494ff4 	ldp	x20, x19, [sp, #144]
   8256c:	52800082 	mov	w2, #0x4                   	// #4
   82570:	a94857f6 	ldp	x22, x21, [sp, #128]
   82574:	a9475ffe 	ldp	x30, x23, [sp, #112]
   82578:	f9400d03 	ldr	x3, [x8, #24]
   8257c:	910283ff 	add	sp, sp, #0xa0
   82580:	d61f0060 	br	x3
   82584:	3940c2c8 	ldrb	w8, [x22, #48]
   82588:	371003e8 	tbnz	w8, #2, 82604 <<core::option::Option<T> as core::fmt::Debug>::fmt+0x104>
   8258c:	f0000001 	adrp	x1, 85000 <compiler_builtins::mem::__llvm_memset_element_unordered_atomic_16+0x774>
   82590:	9101d021 	add	x1, x1, #0x74
   82594:	aa1303e0 	mov	x0, x19
   82598:	52800022 	mov	w2, #0x1                   	// #1
   8259c:	52800036 	mov	w22, #0x1                   	// #1
   825a0:	d63f02e0 	blr	x23
   825a4:	3707fd00 	tbnz	w0, #0, 82544 <<core::option::Option<T> as core::fmt::Debug>::fmt+0x44>
   825a8:	f94006a8 	ldr	x8, [x21, #8]
   825ac:	d354cd09 	ubfx	x9, x8, #20, #32
   825b0:	b50008e9 	cbnz	x9, 826cc <<core::option::Option<T> as core::fmt::Debug>::fmt+0x1cc>
   825b4:	d374cd08 	lsl	x8, x8, #12
   825b8:	9100a3e9 	add	x9, sp, #0x28
   825bc:	9000000a 	adrp	x10, 82000 <<libkernel::memory::arch_mmu::translation_entry::Descriptor as core::fmt::Display>::fmt+0xac>
   825c0:	911bf14a 	add	x10, x10, #0x6fc
   825c4:	f000000b 	adrp	x11, 85000 <compiler_builtins::mem::__llvm_memset_element_unordered_atomic_16+0x774>
   825c8:	913a416b 	add	x11, x11, #0xe90
   825cc:	f90017e8 	str	x8, [sp, #40]
   825d0:	52800048 	mov	w8, #0x2                   	// #2
   825d4:	a900abe9 	stp	x9, x10, [sp, #8]
   825d8:	910023e9 	add	x9, sp, #0x8
   825dc:	52800036 	mov	w22, #0x1                   	// #1
   825e0:	910103e2 	add	x2, sp, #0x40
   825e4:	aa1303e0 	mov	x0, x19
   825e8:	aa1403e1 	mov	x1, x20
   825ec:	f90023ff 	str	xzr, [sp, #64]
   825f0:	a90523eb 	stp	x11, x8, [sp, #80]
   825f4:	a9065be9 	stp	x9, x22, [sp, #96]
   825f8:	97fff9af 	bl	80cb4 <core::fmt::write>
   825fc:	3707fa40 	tbnz	w0, #0, 82544 <<core::option::Option<T> as core::fmt::Debug>::fmt+0x44>
   82600:	14000029 	b	826a4 <<core::option::Option<T> as core::fmt::Debug>::fmt+0x1a4>
   82604:	f0000001 	adrp	x1, 85000 <compiler_builtins::mem::__llvm_memset_element_unordered_atomic_16+0x774>
   82608:	9101c821 	add	x1, x1, #0x72
   8260c:	aa1303e0 	mov	x0, x19
   82610:	52800042 	mov	w2, #0x2                   	// #2
   82614:	d63f02e0 	blr	x23
   82618:	52800036 	mov	w22, #0x1                   	// #1
   8261c:	3707f940 	tbnz	w0, #0, 82544 <<core::option::Option<T> as core::fmt::Debug>::fmt+0x44>
   82620:	f94006a8 	ldr	x8, [x21, #8]
   82624:	910093e9 	add	x9, sp, #0x24
   82628:	390093f6 	strb	w22, [sp, #36]
   8262c:	a900d3f3 	stp	x19, x20, [sp, #8]
   82630:	d354cd0a 	ubfx	x10, x8, #20, #32
   82634:	f9000fe9 	str	x9, [sp, #24]
   82638:	b50004aa 	cbnz	x10, 826cc <<core::option::Option<T> as core::fmt::Debug>::fmt+0x1cc>
   8263c:	d374cd08 	lsl	x8, x8, #12
   82640:	9100e3e9 	add	x9, sp, #0x38
   82644:	9000000a 	adrp	x10, 82000 <<libkernel::memory::arch_mmu::translation_entry::Descriptor as core::fmt::Display>::fmt+0xac>
   82648:	911bf14a 	add	x10, x10, #0x6fc
   8264c:	f000000b 	adrp	x11, 85000 <compiler_builtins::mem::__llvm_memset_element_unordered_atomic_16+0x774>
   82650:	913a416b 	add	x11, x11, #0xe90
   82654:	f90017e9 	str	x9, [sp, #40]
   82658:	9100a3e9 	add	x9, sp, #0x28
   8265c:	a90323ea 	stp	x10, x8, [sp, #48]
   82660:	52800048 	mov	w8, #0x2                   	// #2
   82664:	5280002a 	mov	w10, #0x1                   	// #1
   82668:	f0000001 	adrp	x1, 85000 <compiler_builtins::mem::__llvm_memset_element_unordered_atomic_16+0x774>
   8266c:	91010021 	add	x1, x1, #0x40
   82670:	910023e0 	add	x0, sp, #0x8
   82674:	910103e2 	add	x2, sp, #0x40
   82678:	f90023ff 	str	xzr, [sp, #64]
   8267c:	a90523eb 	stp	x11, x8, [sp, #80]
   82680:	a9062be9 	stp	x9, x10, [sp, #96]
   82684:	97fff98c 	bl	80cb4 <core::fmt::write>
   82688:	3707f5c0 	tbnz	w0, #0, 82540 <<core::option::Option<T> as core::fmt::Debug>::fmt+0x40>
   8268c:	f0000001 	adrp	x1, 85000 <compiler_builtins::mem::__llvm_memset_element_unordered_atomic_16+0x774>
   82690:	9101c021 	add	x1, x1, #0x70
   82694:	910023e0 	add	x0, sp, #0x8
   82698:	52800042 	mov	w2, #0x2                   	// #2
   8269c:	97fffa83 	bl	810a8 <<core::fmt::builders::PadAdapter as core::fmt::Write>::write_str>
   826a0:	3707f500 	tbnz	w0, #0, 82540 <<core::option::Option<T> as core::fmt::Debug>::fmt+0x40>
   826a4:	d0000001 	adrp	x1, 84000 <kernel_main+0x1184>
   826a8:	913fc021 	add	x1, x1, #0xff0
   826ac:	aa1303e0 	mov	x0, x19
   826b0:	52800022 	mov	w2, #0x1                   	// #1
   826b4:	d63f02e0 	blr	x23
   826b8:	a9494ff4 	ldp	x20, x19, [sp, #144]
   826bc:	a94857f6 	ldp	x22, x21, [sp, #128]
   826c0:	a9475ffe 	ldp	x30, x23, [sp, #112]
   826c4:	910283ff 	add	sp, sp, #0xa0
   826c8:	d65f03c0 	ret
   826cc:	90000028 	adrp	x8, 86000 <compiler_builtins::mem::__llvm_memset_element_unordered_atomic_16+0x1774>
   826d0:	91070108 	add	x8, x8, #0x1c0
   826d4:	90000020 	adrp	x0, 86000 <compiler_builtins::mem::__llvm_memset_element_unordered_atomic_16+0x1774>
   826d8:	9100a000 	add	x0, x0, #0x28
   826dc:	f0000002 	adrp	x2, 85000 <compiler_builtins::mem::__llvm_memset_element_unordered_atomic_16+0x774>
   826e0:	913ac042 	add	x2, x2, #0xeb0
   826e4:	f0000003 	adrp	x3, 85000 <compiler_builtins::mem::__llvm_memset_element_unordered_atomic_16+0x774>
   826e8:	913be063 	add	x3, x3, #0xef8
   826ec:	910103e1 	add	x1, sp, #0x40
   826f0:	f90023e8 	str	x8, [sp, #64]
   826f4:	97fffa57 	bl	81050 <core::result::unwrap_failed>
   826f8:	d4200020 	brk	#0x1

00000000000826fc <<libkernel::memory::arch_mmu::address::PhysicalAddress as core::fmt::Debug>::fmt>:
   826fc:	d10183ff 	sub	sp, sp, #0x60
   82700:	f0ffffe8 	adrp	x8, 81000 <core::fmt::num::imp::<impl core::fmt::Display for u32>::fmt+0x128>
   82704:	911a7108 	add	x8, x8, #0x69c
   82708:	f940000b 	ldr	x11, [x0]
   8270c:	d0ffffe9 	adrp	x9, 80000 <_start>
   82710:	9104d129 	add	x9, x9, #0x134
   82714:	910163ea 	add	x10, sp, #0x58
   82718:	a90023e0 	stp	x0, x8, [sp]
   8271c:	f000000c 	adrp	x12, 85000 <compiler_builtins::mem::__llvm_memset_element_unordered_atomic_16+0x774>
   82720:	9138618c 	add	x12, x12, #0xe18
   82724:	d34cfd68 	lsr	x8, x11, #12
   82728:	a9400420 	ldp	x0, x1, [x1]
   8272c:	a90127ea 	stp	x10, x9, [sp, #16]
   82730:	52800049 	mov	w9, #0x2                   	// #2
   82734:	a90523fe 	stp	x30, x8, [sp, #80]
   82738:	f0000008 	adrp	x8, 85000 <compiler_builtins::mem::__llvm_memset_element_unordered_atomic_16+0x774>
   8273c:	9137e108 	add	x8, x8, #0xdf8
   82740:	910003ea 	mov	x10, sp
   82744:	910083e2 	add	x2, sp, #0x20
   82748:	a90227ec 	stp	x12, x9, [sp, #32]
   8274c:	a90327e8 	stp	x8, x9, [sp, #48]
   82750:	a90427ea 	stp	x10, x9, [sp, #64]
   82754:	97fff958 	bl	80cb4 <core::fmt::write>
   82758:	f9402bfe 	ldr	x30, [sp, #80]
   8275c:	910183ff 	add	sp, sp, #0x60
   82760:	d65f03c0 	ret

0000000000082764 <<libkernel::memory::arch_mmu::address::VirtualAddress as core::fmt::Debug>::fmt>:
   82764:	d10243ff 	sub	sp, sp, #0x90
   82768:	f0ffffe8 	adrp	x8, 81000 <core::fmt::num::imp::<impl core::fmt::Display for u32>::fmt+0x128>
   8276c:	911a7108 	add	x8, x8, #0x69c
   82770:	f9400009 	ldr	x9, [x0]
   82774:	910103eb 	add	x11, sp, #0x40
   82778:	910143e2 	add	x2, sp, #0x50
   8277c:	a90023e0 	stp	x0, x8, [sp]
   82780:	d0ffffe8 	adrp	x8, 80000 <_start>
   82784:	9104d108 	add	x8, x8, #0x134
   82788:	d35e9932 	ubfx	x18, x9, #30, #9
   8278c:	d355752a 	ubfx	x10, x9, #21, #9
   82790:	d34c5129 	ubfx	x9, x9, #12, #9
   82794:	a9400420 	ldp	x0, x1, [x1]
   82798:	a90123eb 	stp	x11, x8, [sp, #16]
   8279c:	910123eb 	add	x11, sp, #0x48
   827a0:	a90827fe 	stp	x30, x9, [sp, #128]
   827a4:	910223e9 	add	x9, sp, #0x88
   827a8:	a9042bf2 	stp	x18, x10, [sp, #64]
   827ac:	f000000a 	adrp	x10, 85000 <compiler_builtins::mem::__llvm_memset_element_unordered_atomic_16+0x774>
   827b0:	9134214a 	add	x10, x10, #0xd08
   827b4:	a90223eb 	stp	x11, x8, [sp, #32]
   827b8:	a90323e9 	stp	x9, x8, [sp, #48]
   827bc:	52800088 	mov	w8, #0x4                   	// #4
   827c0:	528000a9 	mov	w9, #0x5                   	// #5
   827c4:	910003eb 	mov	x11, sp
   827c8:	a90523ea 	stp	x10, x8, [sp, #80]
   827cc:	f000000a 	adrp	x10, 85000 <compiler_builtins::mem::__llvm_memset_element_unordered_atomic_16+0x774>
   827d0:	9132e14a 	add	x10, x10, #0xcb8
   827d4:	a90723eb 	stp	x11, x8, [sp, #112]
   827d8:	a90627ea 	stp	x10, x9, [sp, #96]
   827dc:	97fff936 	bl	80cb4 <core::fmt::write>
   827e0:	f94043fe 	ldr	x30, [sp, #128]
   827e4:	910243ff 	add	sp, sp, #0x90
   827e8:	d65f03c0 	ret

00000000000827ec <<libkernel::memory::arch_mmu::address::FrameNumber as core::fmt::Debug>::fmt>:
   827ec:	d10143ff 	sub	sp, sp, #0x50
   827f0:	f90023fe 	str	x30, [sp, #64]
   827f4:	f9400008 	ldr	x8, [x0]
   827f8:	d354cd09 	ubfx	x9, x8, #20, #32
   827fc:	b50002a9 	cbnz	x9, 82850 <<libkernel::memory::arch_mmu::address::FrameNumber as core::fmt::Debug>::fmt+0x64>
   82800:	d374cd08 	lsl	x8, x8, #12
   82804:	910123e9 	add	x9, sp, #0x48
   82808:	9000000a 	adrp	x10, 82000 <<libkernel::memory::arch_mmu::translation_entry::Descriptor as core::fmt::Display>::fmt+0xac>
   8280c:	911bf14a 	add	x10, x10, #0x6fc
   82810:	a9400420 	ldp	x0, x1, [x1]
   82814:	f90027e8 	str	x8, [sp, #72]
   82818:	f0000008 	adrp	x8, 85000 <compiler_builtins::mem::__llvm_memset_element_unordered_atomic_16+0x774>
   8281c:	913a4108 	add	x8, x8, #0xe90
   82820:	a9002be9 	stp	x9, x10, [sp]
   82824:	52800049 	mov	w9, #0x2                   	// #2
   82828:	5280002a 	mov	w10, #0x1                   	// #1
   8282c:	910043e2 	add	x2, sp, #0x10
   82830:	f9000bff 	str	xzr, [sp, #16]
   82834:	a90227e8 	stp	x8, x9, [sp, #32]
   82838:	910003e8 	mov	x8, sp
   8283c:	a9032be8 	stp	x8, x10, [sp, #48]
   82840:	97fff91d 	bl	80cb4 <core::fmt::write>
   82844:	f94023fe 	ldr	x30, [sp, #64]
   82848:	910143ff 	add	sp, sp, #0x50
   8284c:	d65f03c0 	ret
   82850:	90000028 	adrp	x8, 86000 <compiler_builtins::mem::__llvm_memset_element_unordered_atomic_16+0x1774>
   82854:	91070108 	add	x8, x8, #0x1c0
   82858:	90000020 	adrp	x0, 86000 <compiler_builtins::mem::__llvm_memset_element_unordered_atomic_16+0x1774>
   8285c:	9100a000 	add	x0, x0, #0x28
   82860:	f0000002 	adrp	x2, 85000 <compiler_builtins::mem::__llvm_memset_element_unordered_atomic_16+0x774>
   82864:	913ac042 	add	x2, x2, #0xeb0
   82868:	f0000003 	adrp	x3, 85000 <compiler_builtins::mem::__llvm_memset_element_unordered_atomic_16+0x774>
   8286c:	913be063 	add	x3, x3, #0xef8
   82870:	910043e1 	add	x1, sp, #0x10
   82874:	f9000be8 	str	x8, [sp, #16]
   82878:	97fff9f6 	bl	81050 <core::result::unwrap_failed>
   8287c:	d4200020 	brk	#0x1

0000000000082880 <<libkernel::memory::arch_mmu::address::VirtualAddress as core::fmt::Display>::fmt>:
   82880:	f0ffffe8 	adrp	x8, 81000 <core::fmt::num::imp::<impl core::fmt::Display for u32>::fmt+0x128>
   82884:	911a7108 	add	x8, x8, #0x69c
   82888:	f0000009 	adrp	x9, 85000 <compiler_builtins::mem::__llvm_memset_element_unordered_atomic_16+0x774>
   8288c:	913ca129 	add	x9, x9, #0xf28
   82890:	a9bb23e0 	stp	x0, x8, [sp, #-80]!
   82894:	52800028 	mov	w8, #0x1                   	// #1
   82898:	9000002a 	adrp	x10, 86000 <compiler_builtins::mem::__llvm_memset_element_unordered_atomic_16+0x1774>
   8289c:	9108c14a 	add	x10, x10, #0x230
   828a0:	910043e2 	add	x2, sp, #0x10
   828a4:	a9400420 	ldp	x0, x1, [x1]
   828a8:	a90123e9 	stp	x9, x8, [sp, #16]
   828ac:	910003e9 	mov	x9, sp
   828b0:	a90223ea 	stp	x10, x8, [sp, #32]
   828b4:	a903fbe8 	stp	x8, x30, [sp, #56]
   828b8:	f9001be9 	str	x9, [sp, #48]
   828bc:	97fff8fe 	bl	80cb4 <core::fmt::write>
   828c0:	f94023fe 	ldr	x30, [sp, #64]
   828c4:	910143ff 	add	sp, sp, #0x50
   828c8:	d65f03c0 	ret

00000000000828cc <<libkernel::bsp::device_driver::mini_uart::MiniUart as libkernel::console::interface::Console>::init>:
   828cc:	528a0888 	mov	w8, #0x5044                	// #20548
   828d0:	52800029 	mov	w9, #0x1                   	// #1
   828d4:	72bfc428 	movk	w8, #0xfe21, lsl #16
   828d8:	5280006a 	mov	w10, #0x3                   	// #3
   828dc:	528043ab 	mov	w11, #0x21d                 	// #541
   828e0:	b81c0109 	stur	w9, [x8, #-64]
   828e4:	528018c9 	mov	w9, #0xc6                  	// #198
   828e8:	b900011f 	str	wzr, [x8]
   828ec:	b9001d1f 	str	wzr, [x8, #28]
   828f0:	b900090a 	str	w10, [x8, #8]
   828f4:	b9000d1f 	str	wzr, [x8, #12]
   828f8:	b900011f 	str	wzr, [x8]
   828fc:	b9000509 	str	w9, [x8, #4]
   82900:	b900250b 	str	w11, [x8, #36]
   82904:	b9001d0a 	str	w10, [x8, #28]
   82908:	d65f03c0 	ret

000000000008290c <<libkernel::bsp::device_driver::mini_uart::MiniUart as libkernel::console::interface::Console>::_write_str>:
   8290c:	b40005a2 	cbz	x2, 829c0 <<libkernel::bsp::device_driver::mini_uart::MiniUart as libkernel::console::interface::Console>::_write_str+0xb4>
   82910:	528a0809 	mov	w9, #0x5040                	// #20544
   82914:	8b020028 	add	x8, x1, x2
   82918:	72bfc429 	movk	w9, #0xfe21, lsl #16
   8291c:	aa0103eb 	mov	x11, x1
   82920:	38c0156a 	ldrsb	w10, [x11], #1
   82924:	12001d4c 	and	w12, w10, #0xff
   82928:	37f8008a 	tbnz	w10, #31, 82938 <<libkernel::bsp::device_driver::mini_uart::MiniUart as libkernel::console::interface::Console>::_write_str+0x2c>
   8292c:	2a0c03ea 	mov	w10, w12
   82930:	aa0b03e1 	mov	x1, x11
   82934:	1400001b 	b	829a0 <<libkernel::bsp::device_driver::mini_uart::MiniUart as libkernel::console::interface::Console>::_write_str+0x94>
   82938:	3940042a 	ldrb	w10, [x1, #1]
   8293c:	1200118b 	and	w11, w12, #0x1f
   82940:	71037d9f 	cmp	w12, #0xdf
   82944:	1200154a 	and	w10, w10, #0x3f
   82948:	540001c9 	b.ls	82980 <<libkernel::bsp::device_driver::mini_uart::MiniUart as libkernel::console::interface::Console>::_write_str+0x74>  // b.plast
   8294c:	3940082d 	ldrb	w13, [x1, #2]
   82950:	7103c19f 	cmp	w12, #0xf0
   82954:	120015ad 	and	w13, w13, #0x3f
   82958:	331a154d 	bfi	w13, w10, #6, #6
   8295c:	54000183 	b.cc	8298c <<libkernel::bsp::device_driver::mini_uart::MiniUart as libkernel::console::interface::Console>::_write_str+0x80>  // b.lo, b.ul, b.last
   82960:	39400c2a 	ldrb	w10, [x1, #3]
   82964:	1200154a 	and	w10, w10, #0x3f
   82968:	331a2daa 	bfi	w10, w13, #6, #12
   8296c:	330e096a 	bfi	w10, w11, #18, #3
   82970:	7144415f 	cmp	w10, #0x110, lsl #12
   82974:	54000260 	b.eq	829c0 <<libkernel::bsp::device_driver::mini_uart::MiniUart as libkernel::console::interface::Console>::_write_str+0xb4>  // b.none
   82978:	91001021 	add	x1, x1, #0x4
   8297c:	14000009 	b	829a0 <<libkernel::bsp::device_driver::mini_uart::MiniUart as libkernel::console::interface::Console>::_write_str+0x94>
   82980:	91000821 	add	x1, x1, #0x2
   82984:	331a116a 	bfi	w10, w11, #6, #5
   82988:	14000006 	b	829a0 <<libkernel::bsp::device_driver::mini_uart::MiniUart as libkernel::console::interface::Console>::_write_str+0x94>
   8298c:	3314116d 	bfi	w13, w11, #12, #5
   82990:	91000c21 	add	x1, x1, #0x3
   82994:	2a0d03ea 	mov	w10, w13
   82998:	14000002 	b	829a0 <<libkernel::bsp::device_driver::mini_uart::MiniUart as libkernel::console::interface::Console>::_write_str+0x94>
   8299c:	d503201f 	nop
   829a0:	b940152b 	ldr	w11, [x9, #20]
   829a4:	362fffcb 	tbz	w11, #5, 8299c <<libkernel::bsp::device_driver::mini_uart::MiniUart as libkernel::console::interface::Console>::_write_str+0x90>
   829a8:	b900012a 	str	w10, [x9]
   829ac:	eb08003f 	cmp	x1, x8
   829b0:	f940040a 	ldr	x10, [x0, #8]
   829b4:	9100054a 	add	x10, x10, #0x1
   829b8:	f900040a 	str	x10, [x0, #8]
   829bc:	54fffb01 	b.ne	8291c <<libkernel::bsp::device_driver::mini_uart::MiniUart as libkernel::console::interface::Console>::_write_str+0x10>  // b.any
   829c0:	2a1f03e0 	mov	w0, wzr
   829c4:	d65f03c0 	ret

00000000000829c8 <<libkernel::bsp::device_driver::mini_uart::MiniUart as libkernel::console::interface::Console>::_write_char>:
   829c8:	528a0809 	mov	w9, #0x5040                	// #20544
   829cc:	aa0003e8 	mov	x8, x0
   829d0:	72bfc429 	movk	w9, #0xfe21, lsl #16
   829d4:	b940152a 	ldr	w10, [x9, #20]
   829d8:	3728008a 	tbnz	w10, #5, 829e8 <<libkernel::bsp::device_driver::mini_uart::MiniUart as libkernel::console::interface::Console>::_write_char+0x20>
   829dc:	d503201f 	nop
   829e0:	b940152a 	ldr	w10, [x9, #20]
   829e4:	362fffca 	tbz	w10, #5, 829dc <<libkernel::bsp::device_driver::mini_uart::MiniUart as libkernel::console::interface::Console>::_write_char+0x14>
   829e8:	b9000121 	str	w1, [x9]
   829ec:	2a1f03e0 	mov	w0, wzr
   829f0:	f9400509 	ldr	x9, [x8, #8]
   829f4:	91000529 	add	x9, x9, #0x1
   829f8:	f9000509 	str	x9, [x8, #8]
   829fc:	d65f03c0 	ret

0000000000082a00 <<libkernel::bsp::device_driver::mini_uart::MiniUart as libkernel::console::interface::Console>::_write_fmt>:
   82a00:	d10103ff 	sub	sp, sp, #0x40
   82a04:	a90303fe 	stp	x30, x0, [sp, #48]
   82a08:	910003e0 	mov	x0, sp
   82a0c:	52800602 	mov	w2, #0x30                  	// #48
   82a10:	940005ac 	bl	840c0 <memcpy>
   82a14:	90000021 	adrp	x1, 86000 <compiler_builtins::mem::__llvm_memset_element_unordered_atomic_16+0x1774>
   82a18:	91040021 	add	x1, x1, #0x100
   82a1c:	9100e3e0 	add	x0, sp, #0x38
   82a20:	910003e2 	mov	x2, sp
   82a24:	97fff8a4 	bl	80cb4 <core::fmt::write>
   82a28:	f9401bfe 	ldr	x30, [sp, #48]
   82a2c:	910103ff 	add	sp, sp, #0x40
   82a30:	d65f03c0 	ret

0000000000082a34 <<&mut W as core::fmt::Write>::write_str>:
   82a34:	b40005c2 	cbz	x2, 82aec <<&mut W as core::fmt::Write>::write_str+0xb8>
   82a38:	528a080a 	mov	w10, #0x5040                	// #20544
   82a3c:	f9400008 	ldr	x8, [x0]
   82a40:	8b020029 	add	x9, x1, x2
   82a44:	72bfc42a 	movk	w10, #0xfe21, lsl #16
   82a48:	aa0103ec 	mov	x12, x1
   82a4c:	38c0158b 	ldrsb	w11, [x12], #1
   82a50:	12001d6d 	and	w13, w11, #0xff
   82a54:	37f8008b 	tbnz	w11, #31, 82a64 <<&mut W as core::fmt::Write>::write_str+0x30>
   82a58:	2a0d03eb 	mov	w11, w13
   82a5c:	aa0c03e1 	mov	x1, x12
   82a60:	1400001b 	b	82acc <<&mut W as core::fmt::Write>::write_str+0x98>
   82a64:	3940042b 	ldrb	w11, [x1, #1]
   82a68:	120011ac 	and	w12, w13, #0x1f
   82a6c:	71037dbf 	cmp	w13, #0xdf
   82a70:	1200156b 	and	w11, w11, #0x3f
   82a74:	540001c9 	b.ls	82aac <<&mut W as core::fmt::Write>::write_str+0x78>  // b.plast
   82a78:	3940082e 	ldrb	w14, [x1, #2]
   82a7c:	7103c1bf 	cmp	w13, #0xf0
   82a80:	120015ce 	and	w14, w14, #0x3f
   82a84:	331a156e 	bfi	w14, w11, #6, #6
   82a88:	54000183 	b.cc	82ab8 <<&mut W as core::fmt::Write>::write_str+0x84>  // b.lo, b.ul, b.last
   82a8c:	39400c2b 	ldrb	w11, [x1, #3]
   82a90:	1200156b 	and	w11, w11, #0x3f
   82a94:	331a2dcb 	bfi	w11, w14, #6, #12
   82a98:	330e098b 	bfi	w11, w12, #18, #3
   82a9c:	7144417f 	cmp	w11, #0x110, lsl #12
   82aa0:	54000260 	b.eq	82aec <<&mut W as core::fmt::Write>::write_str+0xb8>  // b.none
   82aa4:	91001021 	add	x1, x1, #0x4
   82aa8:	14000009 	b	82acc <<&mut W as core::fmt::Write>::write_str+0x98>
   82aac:	91000821 	add	x1, x1, #0x2
   82ab0:	331a118b 	bfi	w11, w12, #6, #5
   82ab4:	14000006 	b	82acc <<&mut W as core::fmt::Write>::write_str+0x98>
   82ab8:	3314118e 	bfi	w14, w12, #12, #5
   82abc:	91000c21 	add	x1, x1, #0x3
   82ac0:	2a0e03eb 	mov	w11, w14
   82ac4:	14000002 	b	82acc <<&mut W as core::fmt::Write>::write_str+0x98>
   82ac8:	d503201f 	nop
   82acc:	b940154c 	ldr	w12, [x10, #20]
   82ad0:	362fffcc 	tbz	w12, #5, 82ac8 <<&mut W as core::fmt::Write>::write_str+0x94>
   82ad4:	b900014b 	str	w11, [x10]
   82ad8:	eb09003f 	cmp	x1, x9
   82adc:	f940050b 	ldr	x11, [x8, #8]
   82ae0:	9100056b 	add	x11, x11, #0x1
   82ae4:	f900050b 	str	x11, [x8, #8]
   82ae8:	54fffb01 	b.ne	82a48 <<&mut W as core::fmt::Write>::write_str+0x14>  // b.any
   82aec:	2a1f03e0 	mov	w0, wzr
   82af0:	d65f03c0 	ret

0000000000082af4 <<&mut W as core::fmt::Write>::write_char>:
   82af4:	d10043ff 	sub	sp, sp, #0x10
   82af8:	f9400008 	ldr	x8, [x0]
   82afc:	7102003f 	cmp	w1, #0x80
   82b00:	b9000fff 	str	wzr, [sp, #12]
   82b04:	54000082 	b.cs	82b14 <<&mut W as core::fmt::Write>::write_char+0x20>  // b.hs, b.nlast
   82b08:	5280002a 	mov	w10, #0x1                   	// #1
   82b0c:	390033e1 	strb	w1, [sp, #12]
   82b10:	14000025 	b	82ba4 <<&mut W as core::fmt::Write>::write_char+0xb0>
   82b14:	7120003f 	cmp	w1, #0x800
   82b18:	54000122 	b.cs	82b3c <<&mut W as core::fmt::Write>::write_char+0x48>  // b.hs, b.nlast
   82b1c:	53067c29 	lsr	w9, w1, #6
   82b20:	5280100b 	mov	w11, #0x80                  	// #128
   82b24:	321a0529 	orr	w9, w9, #0xc0
   82b28:	3300142b 	bfxil	w11, w1, #0, #6
   82b2c:	5280004a 	mov	w10, #0x2                   	// #2
   82b30:	390033e9 	strb	w9, [sp, #12]
   82b34:	390037eb 	strb	w11, [sp, #13]
   82b38:	1400001b 	b	82ba4 <<&mut W as core::fmt::Write>::write_char+0xb0>
   82b3c:	7140403f 	cmp	w1, #0x10, lsl #12
   82b40:	54000182 	b.cs	82b70 <<&mut W as core::fmt::Write>::write_char+0x7c>  // b.hs, b.nlast
   82b44:	530c7c29 	lsr	w9, w1, #12
   82b48:	5280100b 	mov	w11, #0x80                  	// #128
   82b4c:	5280100c 	mov	w12, #0x80                  	// #128
   82b50:	321b0929 	orr	w9, w9, #0xe0
   82b54:	33062c2b 	bfxil	w11, w1, #6, #6
   82b58:	3300142c 	bfxil	w12, w1, #0, #6
   82b5c:	5280006a 	mov	w10, #0x3                   	// #3
   82b60:	390033e9 	strb	w9, [sp, #12]
   82b64:	390037eb 	strb	w11, [sp, #13]
   82b68:	39003bec 	strb	w12, [sp, #14]
   82b6c:	1400000e 	b	82ba4 <<&mut W as core::fmt::Write>::write_char+0xb0>
   82b70:	52801e09 	mov	w9, #0xf0                  	// #240
   82b74:	5280100a 	mov	w10, #0x80                  	// #128
   82b78:	5280100b 	mov	w11, #0x80                  	// #128
   82b7c:	5280100c 	mov	w12, #0x80                  	// #128
   82b80:	33125029 	bfxil	w9, w1, #18, #3
   82b84:	330c442a 	bfxil	w10, w1, #12, #6
   82b88:	33062c2b 	bfxil	w11, w1, #6, #6
   82b8c:	3300142c 	bfxil	w12, w1, #0, #6
   82b90:	390033e9 	strb	w9, [sp, #12]
   82b94:	390037ea 	strb	w10, [sp, #13]
   82b98:	5280008a 	mov	w10, #0x4                   	// #4
   82b9c:	39003beb 	strb	w11, [sp, #14]
   82ba0:	39003fec 	strb	w12, [sp, #15]
   82ba4:	910033eb 	add	x11, sp, #0xc
   82ba8:	528a0809 	mov	w9, #0x5040                	// #20544
   82bac:	72bfc429 	movk	w9, #0xfe21, lsl #16
   82bb0:	8b0a016a 	add	x10, x11, x10
   82bb4:	aa0b03ed 	mov	x13, x11
   82bb8:	38c015ac 	ldrsb	w12, [x13], #1
   82bbc:	12001d8e 	and	w14, w12, #0xff
   82bc0:	37f8008c 	tbnz	w12, #31, 82bd0 <<&mut W as core::fmt::Write>::write_char+0xdc>
   82bc4:	2a0e03ec 	mov	w12, w14
   82bc8:	aa0d03eb 	mov	x11, x13
   82bcc:	1400001b 	b	82c38 <<&mut W as core::fmt::Write>::write_char+0x144>
   82bd0:	3940056c 	ldrb	w12, [x11, #1]
   82bd4:	120011cd 	and	w13, w14, #0x1f
   82bd8:	71037ddf 	cmp	w14, #0xdf
   82bdc:	1200158c 	and	w12, w12, #0x3f
   82be0:	540001c9 	b.ls	82c18 <<&mut W as core::fmt::Write>::write_char+0x124>  // b.plast
   82be4:	3940096f 	ldrb	w15, [x11, #2]
   82be8:	7103c1df 	cmp	w14, #0xf0
   82bec:	120015ef 	and	w15, w15, #0x3f
   82bf0:	331a158f 	bfi	w15, w12, #6, #6
   82bf4:	54000183 	b.cc	82c24 <<&mut W as core::fmt::Write>::write_char+0x130>  // b.lo, b.ul, b.last
   82bf8:	39400d6c 	ldrb	w12, [x11, #3]
   82bfc:	1200158c 	and	w12, w12, #0x3f
   82c00:	331a2dec 	bfi	w12, w15, #6, #12
   82c04:	330e09ac 	bfi	w12, w13, #18, #3
   82c08:	7144419f 	cmp	w12, #0x110, lsl #12
   82c0c:	54000260 	b.eq	82c58 <<&mut W as core::fmt::Write>::write_char+0x164>  // b.none
   82c10:	9100116b 	add	x11, x11, #0x4
   82c14:	14000009 	b	82c38 <<&mut W as core::fmt::Write>::write_char+0x144>
   82c18:	9100096b 	add	x11, x11, #0x2
   82c1c:	331a11ac 	bfi	w12, w13, #6, #5
   82c20:	14000006 	b	82c38 <<&mut W as core::fmt::Write>::write_char+0x144>
   82c24:	331411af 	bfi	w15, w13, #12, #5
   82c28:	91000d6b 	add	x11, x11, #0x3
   82c2c:	2a0f03ec 	mov	w12, w15
   82c30:	14000002 	b	82c38 <<&mut W as core::fmt::Write>::write_char+0x144>
   82c34:	d503201f 	nop
   82c38:	b940152d 	ldr	w13, [x9, #20]
   82c3c:	362fffcd 	tbz	w13, #5, 82c34 <<&mut W as core::fmt::Write>::write_char+0x140>
   82c40:	b900012c 	str	w12, [x9]
   82c44:	eb0a017f 	cmp	x11, x10
   82c48:	f940050c 	ldr	x12, [x8, #8]
   82c4c:	9100058c 	add	x12, x12, #0x1
   82c50:	f900050c 	str	x12, [x8, #8]
   82c54:	54fffb01 	b.ne	82bb4 <<&mut W as core::fmt::Write>::write_char+0xc0>  // b.any
   82c58:	2a1f03e0 	mov	w0, wzr
   82c5c:	910043ff 	add	sp, sp, #0x10
   82c60:	d65f03c0 	ret

0000000000082c64 <<&mut W as core::fmt::Write>::write_fmt>:
   82c64:	d10103ff 	sub	sp, sp, #0x40
   82c68:	f9400008 	ldr	x8, [x0]
   82c6c:	910003e0 	mov	x0, sp
   82c70:	52800602 	mov	w2, #0x30                  	// #48
   82c74:	a90323fe 	stp	x30, x8, [sp, #48]
   82c78:	94000512 	bl	840c0 <memcpy>
   82c7c:	90000021 	adrp	x1, 86000 <compiler_builtins::mem::__llvm_memset_element_unordered_atomic_16+0x1774>
   82c80:	91040021 	add	x1, x1, #0x100
   82c84:	9100e3e0 	add	x0, sp, #0x38
   82c88:	910003e2 	mov	x2, sp
   82c8c:	97fff80a 	bl	80cb4 <core::fmt::write>
   82c90:	f9401bfe 	ldr	x30, [sp, #48]
   82c94:	910103ff 	add	sp, sp, #0x40
   82c98:	d65f03c0 	ret

0000000000082c9c <<libkernel::bsp::device_driver::mini_uart::MiniUart as libkernel::console::interface::Console>::_flush>:
   82c9c:	528a0a88 	mov	w8, #0x5054                	// #20564
   82ca0:	72bfc428 	movk	w8, #0xfe21, lsl #16
   82ca4:	b9400109 	ldr	w9, [x8]
   82ca8:	37300089 	tbnz	w9, #6, 82cb8 <<libkernel::bsp::device_driver::mini_uart::MiniUart as libkernel::console::interface::Console>::_flush+0x1c>
   82cac:	d503201f 	nop
   82cb0:	b9400109 	ldr	w9, [x8]
   82cb4:	3637ffc9 	tbz	w9, #6, 82cac <<libkernel::bsp::device_driver::mini_uart::MiniUart as libkernel::console::interface::Console>::_flush+0x10>
   82cb8:	d65f03c0 	ret

0000000000082cbc <<libkernel::bsp::device_driver::mini_uart::MiniUart as libkernel::console::interface::Console>::_read_char>:
   82cbc:	528a0a89 	mov	w9, #0x5054                	// #20564
   82cc0:	aa0003e8 	mov	x8, x0
   82cc4:	72bfc429 	movk	w9, #0xfe21, lsl #16
   82cc8:	b940012a 	ldr	w10, [x9]
   82ccc:	370000ca 	tbnz	w10, #0, 82ce4 <<libkernel::bsp::device_driver::mini_uart::MiniUart as libkernel::console::interface::Console>::_read_char+0x28>
   82cd0:	b940012a 	ldr	w10, [x9]
   82cd4:	3700008a 	tbnz	w10, #0, 82ce4 <<libkernel::bsp::device_driver::mini_uart::MiniUart as libkernel::console::interface::Console>::_read_char+0x28>
   82cd8:	d503201f 	nop
   82cdc:	b940012a 	ldr	w10, [x9]
   82ce0:	3607ffca 	tbz	w10, #0, 82cd8 <<libkernel::bsp::device_driver::mini_uart::MiniUart as libkernel::console::interface::Console>::_read_char+0x1c>
   82ce4:	b85ec129 	ldur	w9, [x9, #-20]
   82ce8:	f940010a 	ldr	x10, [x8]
   82cec:	12001d20 	and	w0, w9, #0xff
   82cf0:	91000549 	add	x9, x10, #0x1
   82cf4:	f9000109 	str	x9, [x8]
   82cf8:	d65f03c0 	ret

0000000000082cfc <<libkernel::bsp::device_driver::mini_uart::MiniUart as libkernel::console::interface::Console>::_clear_rx>:
   82cfc:	528a0808 	mov	w8, #0x5040                	// #20544
   82d00:	72bfc428 	movk	w8, #0xfe21, lsl #16
   82d04:	b9401509 	ldr	w9, [x8, #20]
   82d08:	360000e9 	tbz	w9, #0, 82d24 <<libkernel::bsp::device_driver::mini_uart::MiniUart as libkernel::console::interface::Console>::_clear_rx+0x28>
   82d0c:	b940011f 	ldr	wzr, [x8]
   82d10:	f9400009 	ldr	x9, [x0]
   82d14:	91000529 	add	x9, x9, #0x1
   82d18:	f9000009 	str	x9, [x0]
   82d1c:	b9401509 	ldr	w9, [x8, #20]
   82d20:	3707ff69 	tbnz	w9, #0, 82d0c <<libkernel::bsp::device_driver::mini_uart::MiniUart as libkernel::console::interface::Console>::_clear_rx+0x10>
   82d24:	d65f03c0 	ret

0000000000082d28 <<libkernel::bsp::device_driver::mini_uart::MiniUart as libkernel::console::interface::Console>::_chars_written>:
   82d28:	f9400400 	ldr	x0, [x0, #8]
   82d2c:	d65f03c0 	ret

0000000000082d30 <<libkernel::bsp::device_driver::mini_uart::MiniUart as libkernel::console::interface::Console>::_chars_read>:
   82d30:	f9400000 	ldr	x0, [x0]
   82d34:	d65f03c0 	ret

0000000000082d38 <<&T as core::fmt::Debug>::fmt>:
   82d38:	d10143ff 	sub	sp, sp, #0x50
   82d3c:	f90023fe 	str	x30, [sp, #64]
   82d40:	f9400008 	ldr	x8, [x0]
   82d44:	d000000a 	adrp	x10, 84000 <kernel_main+0x1184>
   82d48:	9123a94a 	add	x10, x10, #0x8ea
   82d4c:	39400109 	ldrb	w9, [x8]
   82d50:	1000008b 	adr	x11, 82d60 <<&T as core::fmt::Debug>::fmt+0x28>
   82d54:	3869694c 	ldrb	w12, [x10, x9]
   82d58:	8b0c096b 	add	x11, x11, x12, lsl #2
   82d5c:	d61f0160 	br	x11
   82d60:	91002108 	add	x8, x8, #0x8
   82d64:	910123e9 	add	x9, sp, #0x48
   82d68:	9000000a 	adrp	x10, 82000 <<libkernel::memory::arch_mmu::translation_entry::Descriptor as core::fmt::Display>::fmt+0xac>
   82d6c:	9112714a 	add	x10, x10, #0x49c
   82d70:	a9400420 	ldp	x0, x1, [x1]
   82d74:	f90027e8 	str	x8, [sp, #72]
   82d78:	90000028 	adrp	x8, 86000 <compiler_builtins::mem::__llvm_memset_element_unordered_atomic_16+0x1774>
   82d7c:	9108c108 	add	x8, x8, #0x230
   82d80:	a9002be9 	stp	x9, x10, [sp]
   82d84:	52800029 	mov	w9, #0x1                   	// #1
   82d88:	910003ea 	mov	x10, sp
   82d8c:	910043e2 	add	x2, sp, #0x10
   82d90:	f9000bff 	str	xzr, [sp, #16]
   82d94:	f90013e8 	str	x8, [sp, #32]
   82d98:	a902abe9 	stp	x9, x10, [sp, #40]
   82d9c:	f9001fe9 	str	x9, [sp, #56]
   82da0:	97fff7c5 	bl	80cb4 <core::fmt::write>
   82da4:	f94023fe 	ldr	x30, [sp, #64]
   82da8:	910143ff 	add	sp, sp, #0x50
   82dac:	d65f03c0 	ret

0000000000082db0 <_panic_exit>:
   82db0:	d503205f 	wfe
   82db4:	17ffffff 	b	82db0 <_panic_exit>

0000000000082db8 <rust_begin_unwind>:
   82db8:	d10343ff 	sub	sp, sp, #0xd0
   82dbc:	f90063fe 	str	x30, [sp, #192]
   82dc0:	d0000028 	adrp	x8, 88000 <libkernel::bsp::device_driver::mini_uart::MINI_UART>
   82dc4:	39404109 	ldrb	w9, [x8, #16]
   82dc8:	35000569 	cbnz	w9, 82e74 <rust_begin_unwind+0xbc>
   82dcc:	52800029 	mov	w9, #0x1                   	// #1
   82dd0:	39004109 	strb	w9, [x8, #16]
   82dd4:	90000029 	adrp	x9, 86000 <compiler_builtins::mem::__llvm_memset_element_unordered_atomic_16+0x1774>
   82dd8:	910b2129 	add	x9, x9, #0x2c8
   82ddc:	f90013ff 	str	xzr, [sp, #32]
   82de0:	a941200a 	ldp	x10, x8, [x0, #16]
   82de4:	910083e0 	add	x0, sp, #0x20
   82de8:	f100015f 	cmp	x10, #0x0
   82dec:	29422d0c 	ldp	w12, w11, [x8, #16]
   82df0:	a9403508 	ldp	x8, x13, [x8]
   82df4:	a90a7fe9 	stp	x9, xzr, [sp, #160]
   82df8:	a90b7fe9 	stp	x9, xzr, [sp, #176]
   82dfc:	910243e9 	add	x9, sp, #0x90
   82e00:	29032fec 	stp	w12, w11, [sp, #24]
   82e04:	d0ffffeb 	adrp	x11, 80000 <_start>
   82e08:	913b616b 	add	x11, x11, #0xed8
   82e0c:	f9004bff 	str	xzr, [sp, #144]
   82e10:	a900b7e8 	stp	x8, x13, [sp, #8]
   82e14:	9a8a0128 	csel	x8, x9, x10, eq  // eq = none
   82e18:	910023e9 	add	x9, sp, #0x8
   82e1c:	d0ffffea 	adrp	x10, 80000 <_start>
   82e20:	9132614a 	add	x10, x10, #0xc98
   82e24:	f90067e8 	str	x8, [sp, #200]
   82e28:	910063e8 	add	x8, sp, #0x18
   82e2c:	a9052be9 	stp	x9, x10, [sp, #80]
   82e30:	910073e9 	add	x9, sp, #0x1c
   82e34:	a9062fe8 	stp	x8, x11, [sp, #96]
   82e38:	910323e8 	add	x8, sp, #0xc8
   82e3c:	9000002a 	adrp	x10, 86000 <compiler_builtins::mem::__llvm_memset_element_unordered_atomic_16+0x1774>
   82e40:	9109e14a 	add	x10, x10, #0x278
   82e44:	a9072fe9 	stp	x9, x11, [sp, #112]
   82e48:	90000009 	adrp	x9, 82000 <<libkernel::memory::arch_mmu::translation_entry::Descriptor as core::fmt::Display>::fmt+0xac>
   82e4c:	9112c129 	add	x9, x9, #0x4b0
   82e50:	a90827e8 	stp	x8, x9, [sp, #128]
   82e54:	528000a8 	mov	w8, #0x5                   	// #5
   82e58:	910143e9 	add	x9, sp, #0x50
   82e5c:	a90323ea 	stp	x10, x8, [sp, #48]
   82e60:	5280008a 	mov	w10, #0x4                   	// #4
   82e64:	a9042be9 	stp	x9, x10, [sp, #64]
   82e68:	97fffd6f 	bl	82424 <libkernel::print::_print>
   82e6c:	97ffffd1 	bl	82db0 <_panic_exit>
   82e70:	d4200020 	brk	#0x1
   82e74:	97ffffcf 	bl	82db0 <_panic_exit>
   82e78:	d4200020 	brk	#0x1

0000000000082e7c <kernel_main>:
   82e7c:	d105c3ff 	sub	sp, sp, #0x170
   82e80:	a9117bfd 	stp	x29, x30, [sp, #272]
   82e84:	a9126ffc 	stp	x28, x27, [sp, #288]
   82e88:	a91367fa 	stp	x26, x25, [sp, #304]
   82e8c:	a9145ff8 	stp	x24, x23, [sp, #320]
   82e90:	a91557f6 	stp	x22, x21, [sp, #336]
   82e94:	a9164ff4 	stp	x20, x19, [sp, #352]
   82e98:	b0000033 	adrp	x19, 87000 <libkernel::console::CONSOLE>
   82e9c:	91000273 	add	x19, x19, #0x0
   82ea0:	a940a260 	ldp	x0, x8, [x19, #8]
   82ea4:	f9400d08 	ldr	x8, [x8, #24]
   82ea8:	d63f0100 	blr	x8
   82eac:	aa1303e0 	mov	x0, x19
   82eb0:	97fffd91 	bl	824f4 <unlock>
   82eb4:	d5384248 	mrs	x8, currentel
   82eb8:	d3420d08 	ubfx	x8, x8, #2, #2
   82ebc:	f1000d1f 	cmp	x8, #0x3
   82ec0:	540000a1 	b.ne	82ed4 <kernel_main+0x58>  // b.any
   82ec4:	528000e8 	mov	w8, #0x7                   	// #7
   82ec8:	f0000009 	adrp	x9, 85000 <compiler_builtins::mem::__llvm_memset_element_unordered_atomic_16+0x774>
   82ecc:	9131e129 	add	x9, x9, #0xc78
   82ed0:	14000005 	b	82ee4 <kernel_main+0x68>
   82ed4:	f0000009 	adrp	x9, 85000 <compiler_builtins::mem::__llvm_memset_element_unordered_atomic_16+0x774>
   82ed8:	91322129 	add	x9, x9, #0xc88
   82edc:	f8687929 	ldr	x9, [x9, x8, lsl #3]
   82ee0:	52800068 	mov	w8, #0x3                   	// #3
   82ee4:	a90123e9 	stp	x9, x8, [sp, #16]
   82ee8:	910043e9 	add	x9, sp, #0x10
   82eec:	d0ffffe8 	adrp	x8, 80000 <_start>
   82ef0:	91326108 	add	x8, x8, #0xc98
   82ef4:	b000002b 	adrp	x11, 87000 <libkernel::console::CONSOLE>
   82ef8:	9100216b 	add	x11, x11, #0x8
   82efc:	9000002a 	adrp	x10, 86000 <compiler_builtins::mem::__llvm_memset_element_unordered_atomic_16+0x1774>
   82f00:	910ba14a 	add	x10, x10, #0x2e8
   82f04:	a90723e9 	stp	x9, x8, [sp, #112]
   82f08:	52800049 	mov	w9, #0x2                   	// #2
   82f0c:	a9402160 	ldp	x0, x8, [x11]
   82f10:	9101c3f5 	add	x21, sp, #0x70
   82f14:	910363e1 	add	x1, sp, #0xd8
   82f18:	a90ea7ea 	stp	x10, x9, [sp, #232]
   82f1c:	5280002a 	mov	w10, #0x1                   	// #1
   82f20:	f9006fff 	str	xzr, [sp, #216]
   82f24:	f9401908 	ldr	x8, [x8, #48]
   82f28:	a90fabf5 	stp	x21, x10, [sp, #248]
   82f2c:	d63f0100 	blr	x8
   82f30:	35007040 	cbnz	w0, 83d38 <kernel_main+0xebc>
   82f34:	aa1303e0 	mov	x0, x19
   82f38:	97fffd6f 	bl	824f4 <unlock>
   82f3c:	b2409be8 	mov	x8, #0x7fffffffff          	// #549755813887
   82f40:	910323e9 	add	x9, sp, #0xc8
   82f44:	f0fffff4 	adrp	x20, 81000 <core::fmt::num::imp::<impl core::fmt::Display for u32>::fmt+0x128>
   82f48:	911a7294 	add	x20, x20, #0x69c
   82f4c:	a940aa60 	ldp	x0, x10, [x19, #8]
   82f50:	f90067e8 	str	x8, [sp, #200]
   82f54:	52800028 	mov	w8, #0x1                   	// #1
   82f58:	a90753e9 	stp	x9, x20, [sp, #112]
   82f5c:	f0000009 	adrp	x9, 85000 <compiler_builtins::mem::__llvm_memset_element_unordered_atomic_16+0x774>
   82f60:	913f0129 	add	x9, x9, #0xfc0
   82f64:	f000000b 	adrp	x11, 85000 <compiler_builtins::mem::__llvm_memset_element_unordered_atomic_16+0x774>
   82f68:	913e816b 	add	x11, x11, #0xfa0
   82f6c:	910363e1 	add	x1, sp, #0xd8
   82f70:	a90fa3f5 	stp	x21, x8, [sp, #248]
   82f74:	a90da3e9 	stp	x9, x8, [sp, #216]
   82f78:	52800049 	mov	w9, #0x2                   	// #2
   82f7c:	a90ea7eb 	stp	x11, x9, [sp, #232]
   82f80:	f9401949 	ldr	x9, [x10, #48]
   82f84:	d63f0120 	blr	x9
   82f88:	35006d80 	cbnz	w0, 83d38 <kernel_main+0xebc>
   82f8c:	b0000020 	adrp	x0, 87000 <libkernel::console::CONSOLE>
   82f90:	91000000 	add	x0, x0, #0x0
   82f94:	97fffd58 	bl	824f4 <unlock>
   82f98:	d5380708 	mrs	x8, id_aa64mmfr0_el1
   82f9c:	f2640d1f 	tst	x8, #0xf0000000
   82fa0:	54007541 	b.ne	83e48 <kernel_main+0xfcc>  // b.any
   82fa4:	b000002b 	adrp	x11, 87000 <libkernel::console::CONSOLE>
   82fa8:	9100216b 	add	x11, x11, #0x8
   82fac:	90000029 	adrp	x9, 86000 <compiler_builtins::mem::__llvm_memset_element_unordered_atomic_16+0x1774>
   82fb0:	91006129 	add	x9, x9, #0x18
   82fb4:	5280002a 	mov	w10, #0x1                   	// #1
   82fb8:	9000003a 	adrp	x26, 86000 <compiler_builtins::mem::__llvm_memset_element_unordered_atomic_16+0x1774>
   82fbc:	910b235a 	add	x26, x26, #0x2c8
   82fc0:	910363e1 	add	x1, sp, #0xd8
   82fc4:	a9402160 	ldp	x0, x8, [x11]
   82fc8:	f9006fff 	str	xzr, [sp, #216]
   82fcc:	a90eabe9 	stp	x9, x10, [sp, #232]
   82fd0:	a90ffffa 	stp	x26, xzr, [sp, #248]
   82fd4:	f9401908 	ldr	x8, [x8, #48]
   82fd8:	d63f0100 	blr	x8
   82fdc:	35006ae0 	cbnz	w0, 83d38 <kernel_main+0xebc>
   82fe0:	b0000033 	adrp	x19, 87000 <libkernel::console::CONSOLE>
   82fe4:	91000273 	add	x19, x19, #0x0
   82fe8:	aa1303e0 	mov	x0, x19
   82fec:	97fffd42 	bl	824f4 <unlock>
   82ff0:	52860328 	mov	w8, #0x3019                	// #12313
   82ff4:	52888089 	mov	w9, #0x4404                	// #17412
   82ff8:	72a01008 	movk	w8, #0x80, lsl #16
   82ffc:	d5182048 	msr	tcr_el1, x8
   83000:	d518a209 	msr	mair_el1, x9
   83004:	d5382008 	mrs	x8, ttbr0_el1
   83008:	f27fb918 	ands	x24, x8, #0xfffffffffffe
   8300c:	540068a0 	b.eq	83d20 <kernel_main+0xea4>  // b.none
   83010:	90000029 	adrp	x9, 87000 <libkernel::console::CONSOLE>
   83014:	91002129 	add	x9, x9, #0x8
   83018:	b0000008 	adrp	x8, 84000 <kernel_main+0x1184>
   8301c:	9126e108 	add	x8, x8, #0x9b8
   83020:	5280004a 	mov	w10, #0x2                   	// #2
   83024:	910323f9 	add	x25, sp, #0xc8
   83028:	a9402520 	ldp	x0, x9, [x9]
   8302c:	f0fffff5 	adrp	x21, 82000 <<libkernel::memory::arch_mmu::translation_entry::Descriptor as core::fmt::Display>::fmt+0xac>
   83030:	912202b5 	add	x21, x21, #0x880
   83034:	9101c3f7 	add	x23, sp, #0x70
   83038:	a90eabe8 	stp	x8, x10, [sp, #232]
   8303c:	52800028 	mov	w8, #0x1                   	// #1
   83040:	910363e1 	add	x1, sp, #0xd8
   83044:	f90067f8 	str	x24, [sp, #200]
   83048:	f9401929 	ldr	x9, [x9, #48]
   8304c:	a90757f9 	stp	x25, x21, [sp, #112]
   83050:	f9006fff 	str	xzr, [sp, #216]
   83054:	a90fa3f7 	stp	x23, x8, [sp, #248]
   83058:	d63f0120 	blr	x9
   8305c:	350066e0 	cbnz	w0, 83d38 <kernel_main+0xebc>
   83060:	aa1303e0 	mov	x0, x19
   83064:	97fffd24 	bl	824f4 <unlock>
   83068:	b0000008 	adrp	x8, 84000 <kernel_main+0x1184>
   8306c:	91284108 	add	x8, x8, #0xa10
   83070:	b0ffffe9 	adrp	x9, 80000 <_start>
   83074:	9104d129 	add	x9, x9, #0x134
   83078:	a940aa60 	ldp	x0, x10, [x19, #8]
   8307c:	b000000b 	adrp	x11, 84000 <kernel_main+0x1184>
   83080:	9127816b 	add	x11, x11, #0x9e0
   83084:	a90727e8 	stp	x8, x9, [sp, #112]
   83088:	52800048 	mov	w8, #0x2                   	// #2
   8308c:	b0000009 	adrp	x9, 84000 <kernel_main+0x1184>
   83090:	9128c129 	add	x9, x9, #0xa30
   83094:	913fe316 	add	x22, x24, #0xff8
   83098:	910363e1 	add	x1, sp, #0xd8
   8309c:	a90853f9 	stp	x25, x20, [sp, #128]
   830a0:	a90da3e9 	stp	x9, x8, [sp, #216]
   830a4:	52800069 	mov	w9, #0x3                   	// #3
   830a8:	f90067f6 	str	x22, [sp, #200]
   830ac:	a90fa3f7 	stp	x23, x8, [sp, #248]
   830b0:	a90ea7eb 	stp	x11, x9, [sp, #232]
   830b4:	f9401949 	ldr	x9, [x10, #48]
   830b8:	d63f0120 	blr	x9
   830bc:	350063e0 	cbnz	w0, 83d38 <kernel_main+0xebc>
   830c0:	90000020 	adrp	x0, 87000 <libkernel::console::CONSOLE>
   830c4:	91000000 	add	x0, x0, #0x0
   830c8:	97fffd0b 	bl	824f4 <unlock>
   830cc:	394002c8 	ldrb	w8, [x22]
   830d0:	37006d48 	tbnz	w8, #0, 83e78 <kernel_main+0xffc>
   830d4:	9102c3ea 	add	x10, sp, #0xb0
   830d8:	d0ffffeb 	adrp	x11, 81000 <core::fmt::num::imp::<impl core::fmt::Display for u32>::fmt+0x128>
   830dc:	913d516b 	add	x11, x11, #0xf54
   830e0:	d2800069 	mov	x9, #0x3                   	// #3
   830e4:	52800048 	mov	w8, #0x2                   	// #2
   830e8:	f2e70009 	movk	x9, #0x3800, lsl #48
   830ec:	b0000017 	adrp	x23, 84000 <kernel_main+0x1184>
   830f0:	912b22f7 	add	x23, x23, #0xac8
   830f4:	a9072fea 	stp	x10, x11, [sp, #112]
   830f8:	9000002b 	adrp	x11, 87000 <libkernel::console::CONSOLE>
   830fc:	9100216b 	add	x11, x11, #0x8
   83100:	a90b27e8 	stp	x8, x9, [sp, #176]
   83104:	9101c3ea 	add	x10, sp, #0x70
   83108:	910363e1 	add	x1, sp, #0xd8
   8310c:	f9006fff 	str	xzr, [sp, #216]
   83110:	a9402560 	ldp	x0, x9, [x11]
   83114:	a90f2be8 	stp	x8, x10, [sp, #240]
   83118:	52800028 	mov	w8, #0x1                   	// #1
   8311c:	f90077f7 	str	x23, [sp, #232]
   83120:	f90083e8 	str	x8, [sp, #256]
   83124:	f9401929 	ldr	x9, [x9, #48]
   83128:	d63f0120 	blr	x9
   8312c:	35006060 	cbnz	w0, 83d38 <kernel_main+0xebc>
   83130:	90000020 	adrp	x0, 87000 <libkernel::console::CONSOLE>
   83134:	91000000 	add	x0, x0, #0x0
   83138:	97fffcef 	bl	824f4 <unlock>
   8313c:	d360ff08 	lsr	x8, x24, #32
   83140:	b5006b48 	cbnz	x8, 83ea8 <kernel_main+0x102c>
   83144:	9000002c 	adrp	x12, 87000 <libkernel::console::CONSOLE>
   83148:	9100218c 	add	x12, x12, #0x8
   8314c:	910283e8 	add	x8, sp, #0xa0
   83150:	f0ffffe9 	adrp	x9, 82000 <<libkernel::memory::arch_mmu::translation_entry::Descriptor as core::fmt::Display>::fmt+0xac>
   83154:	911bf129 	add	x9, x9, #0x6fc
   83158:	5280004b 	mov	w11, #0x2                   	// #2
   8315c:	a9402980 	ldp	x0, x10, [x12]
   83160:	b0000014 	adrp	x20, 84000 <kernel_main+0x1184>
   83164:	912c4294 	add	x20, x20, #0xb10
   83168:	a90727e8 	stp	x8, x9, [sp, #112]
   8316c:	9101c3e8 	add	x8, sp, #0x70
   83170:	910363e1 	add	x1, sp, #0xd8
   83174:	f90053f8 	str	x24, [sp, #160]
   83178:	f9006fff 	str	xzr, [sp, #216]
   8317c:	a90f23eb 	stp	x11, x8, [sp, #240]
   83180:	52800028 	mov	w8, #0x1                   	// #1
   83184:	f9401949 	ldr	x9, [x10, #48]
   83188:	f90077f4 	str	x20, [sp, #232]
   8318c:	f90083e8 	str	x8, [sp, #256]
   83190:	d63f0120 	blr	x9
   83194:	35005d20 	cbnz	w0, 83d38 <kernel_main+0xebc>
   83198:	90000033 	adrp	x19, 87000 <libkernel::console::CONSOLE>
   8319c:	91000273 	add	x19, x19, #0x0
   831a0:	aa1303e0 	mov	x0, x19
   831a4:	97fffcd4 	bl	824f4 <unlock>
   831a8:	f9405be8 	ldr	x8, [sp, #176]
   831ac:	f100091f 	cmp	x8, #0x2
   831b0:	54006941 	b.ne	83ed8 <kernel_main+0x105c>  // b.any
   831b4:	f9405fe9 	ldr	x9, [sp, #184]
   831b8:	d280e08a 	mov	x10, #0x704                 	// #1796
   831bc:	f2e00c0a 	movk	x10, #0x60, lsl #48
   831c0:	f94053e8 	ldr	x8, [sp, #160]
   831c4:	5280006b 	mov	w11, #0x3                   	// #3
   831c8:	aa0a0129 	orr	x9, x9, x10
   831cc:	f2402d1f 	tst	x8, #0xfff
   831d0:	a90ca7eb 	stp	x11, x9, [sp, #200]
   831d4:	540069a1 	b.ne	83f08 <kernel_main+0x108c>  // b.any
   831d8:	aa090108 	orr	x8, x8, x9
   831dc:	910323e9 	add	x9, sp, #0xc8
   831e0:	d0ffffea 	adrp	x10, 81000 <core::fmt::num::imp::<impl core::fmt::Display for u32>::fmt+0x128>
   831e4:	913d514a 	add	x10, x10, #0xf54
   831e8:	9101c3f9 	add	x25, sp, #0x70
   831ec:	910363e1 	add	x1, sp, #0xd8
   831f0:	a90d7fe8 	stp	x8, xzr, [sp, #208]
   831f4:	90000028 	adrp	x8, 87000 <libkernel::console::CONSOLE>
   831f8:	91002108 	add	x8, x8, #0x8
   831fc:	a9072be9 	stp	x9, x10, [sp, #112]
   83200:	52800049 	mov	w9, #0x2                   	// #2
   83204:	5280002a 	mov	w10, #0x1                   	// #1
   83208:	a9402100 	ldp	x0, x8, [x8]
   8320c:	a90ea7f7 	stp	x23, x9, [sp, #232]
   83210:	a90fabf9 	stp	x25, x10, [sp, #248]
   83214:	f9401908 	ldr	x8, [x8, #48]
   83218:	d63f0100 	blr	x8
   8321c:	350058e0 	cbnz	w0, 83d38 <kernel_main+0xebc>
   83220:	aa1303e0 	mov	x0, x19
   83224:	97fffcb4 	bl	824f4 <unlock>
   83228:	a94ca7e8 	ldp	x8, x9, [sp, #200]
   8322c:	5280004a 	mov	w10, #0x2                   	// #2
   83230:	910363e1 	add	x1, sp, #0xd8
   83234:	f9006fff 	str	xzr, [sp, #216]
   83238:	f100111f 	cmp	x8, #0x4
   8323c:	d0ffffe8 	adrp	x8, 81000 <core::fmt::num::imp::<impl core::fmt::Display for u32>::fmt+0x128>
   83240:	911d5108 	add	x8, x8, #0x754
   83244:	9a9f3129 	csel	x9, x9, xzr, cc  // cc = lo, ul, last
   83248:	f90002c9 	str	x9, [x22]
   8324c:	a940a660 	ldp	x0, x9, [x19, #8]
   83250:	a90723f6 	stp	x22, x8, [sp, #112]
   83254:	b0000008 	adrp	x8, 84000 <kernel_main+0x1184>
   83258:	912da108 	add	x8, x8, #0xb68
   8325c:	a90eabe8 	stp	x8, x10, [sp, #232]
   83260:	52800028 	mov	w8, #0x1                   	// #1
   83264:	f9401929 	ldr	x9, [x9, #48]
   83268:	a90fa3f9 	stp	x25, x8, [sp, #248]
   8326c:	d63f0120 	blr	x9
   83270:	35005640 	cbnz	w0, 83d38 <kernel_main+0xebc>
   83274:	90000033 	adrp	x19, 87000 <libkernel::console::CONSOLE>
   83278:	91000273 	add	x19, x19, #0x0
   8327c:	aa1303e0 	mov	x0, x19
   83280:	97fffc9d 	bl	824f4 <unlock>
   83284:	b0ffffe8 	adrp	x8, 80000 <_start>
   83288:	91000108 	add	x8, x8, #0x0
   8328c:	d370fd09 	lsr	x9, x8, #48
   83290:	f0000019 	adrp	x25, 86000 <compiler_builtins::mem::__llvm_memset_element_unordered_atomic_16+0x1774>
   83294:	91070339 	add	x25, x25, #0x1c0
   83298:	f100013f 	cmp	x9, #0x0
   8329c:	b50064e9 	cbnz	x9, 83f38 <kernel_main+0x10bc>
   832a0:	b0ffffe9 	adrp	x9, 80000 <_start>
   832a4:	91000129 	add	x9, x9, #0x0
   832a8:	9a88132a 	csel	x10, x25, x8, ne  // ne = any
   832ac:	d370fd28 	lsr	x8, x9, #48
   832b0:	f100011f 	cmp	x8, #0x0
   832b4:	f90013ea 	str	x10, [sp, #32]
   832b8:	b5006568 	cbnz	x8, 83f64 <kernel_main+0x10e8>
   832bc:	90000028 	adrp	x8, 87000 <libkernel::console::CONSOLE>
   832c0:	91000108 	add	x8, x8, #0x0
   832c4:	9a89132a 	csel	x10, x25, x9, ne  // ne = any
   832c8:	d370fd09 	lsr	x9, x8, #48
   832cc:	f100013f 	cmp	x9, #0x0
   832d0:	f90017ea 	str	x10, [sp, #40]
   832d4:	b50065e9 	cbnz	x9, 83f90 <kernel_main+0x1114>
   832d8:	b0000029 	adrp	x9, 88000 <libkernel::bsp::device_driver::mini_uart::MINI_UART>
   832dc:	91000129 	add	x9, x9, #0x0
   832e0:	9a88132a 	csel	x10, x25, x8, ne  // ne = any
   832e4:	d370fd28 	lsr	x8, x9, #48
   832e8:	f100011f 	cmp	x8, #0x0
   832ec:	f9001bea 	str	x10, [sp, #48]
   832f0:	b5006668 	cbnz	x8, 83fbc <kernel_main+0x1140>
   832f4:	d0000028 	adrp	x8, 89000 <__bss_end_exclusive>
   832f8:	91000108 	add	x8, x8, #0x0
   832fc:	9a89132a 	csel	x10, x25, x9, ne  // ne = any
   83300:	d370fd09 	lsr	x9, x8, #48
   83304:	f9001fea 	str	x10, [sp, #56]
   83308:	b5006709 	cbnz	x9, 83fe8 <kernel_main+0x116c>
   8330c:	f100013f 	cmp	x9, #0x0
   83310:	d2c00029 	mov	x9, #0x100000000           	// #4294967296
   83314:	f0fffff6 	adrp	x22, 82000 <<libkernel::memory::arch_mmu::translation_entry::Descriptor as core::fmt::Display>::fmt+0xac>
   83318:	911d92d6 	add	x22, x22, #0x764
   8331c:	52bfc00a 	mov	w10, #0xfe000000            	// #-33554432
   83320:	9a881328 	csel	x8, x25, x8, ne  // ne = any
   83324:	f9002fe9 	str	x9, [sp, #88]
   83328:	910083e9 	add	x9, sp, #0x20
   8332c:	9101c3f7 	add	x23, sp, #0x70
   83330:	910363e1 	add	x1, sp, #0xd8
   83334:	a904abf8 	stp	x24, x10, [sp, #72]
   83338:	5280004a 	mov	w10, #0x2                   	// #2
   8333c:	a9075be9 	stp	x9, x22, [sp, #112]
   83340:	90000029 	adrp	x9, 87000 <libkernel::console::CONSOLE>
   83344:	91002129 	add	x9, x9, #0x8
   83348:	f90023e8 	str	x8, [sp, #64]
   8334c:	b0000008 	adrp	x8, 84000 <kernel_main+0x1184>
   83350:	91310108 	add	x8, x8, #0xc40
   83354:	f9006fff 	str	xzr, [sp, #216]
   83358:	a9402520 	ldp	x0, x9, [x9]
   8335c:	a90eabe8 	stp	x8, x10, [sp, #232]
   83360:	52800028 	mov	w8, #0x1                   	// #1
   83364:	a90fa3f7 	stp	x23, x8, [sp, #248]
   83368:	f9401929 	ldr	x9, [x9, #48]
   8336c:	d63f0120 	blr	x9
   83370:	35004e40 	cbnz	w0, 83d38 <kernel_main+0xebc>
   83374:	aa1303e0 	mov	x0, x19
   83378:	97fffc5f 	bl	824f4 <unlock>
   8337c:	9100a3e8 	add	x8, sp, #0x28
   83380:	b0000009 	adrp	x9, 84000 <kernel_main+0x1184>
   83384:	9131c129 	add	x9, x9, #0xc70
   83388:	910363e1 	add	x1, sp, #0xd8
   8338c:	a940aa60 	ldp	x0, x10, [x19, #8]
   83390:	a9075be8 	stp	x8, x22, [sp, #112]
   83394:	52800048 	mov	w8, #0x2                   	// #2
   83398:	f9006fff 	str	xzr, [sp, #216]
   8339c:	a90ea3e9 	stp	x9, x8, [sp, #232]
   833a0:	52800029 	mov	w9, #0x1                   	// #1
   833a4:	f940194a 	ldr	x10, [x10, #48]
   833a8:	a90fa7f7 	stp	x23, x9, [sp, #248]
   833ac:	d63f0140 	blr	x10
   833b0:	35004c40 	cbnz	w0, 83d38 <kernel_main+0xebc>
   833b4:	aa1303e0 	mov	x0, x19
   833b8:	97fffc4f 	bl	824f4 <unlock>
   833bc:	9100c3e8 	add	x8, sp, #0x30
   833c0:	b0000009 	adrp	x9, 84000 <kernel_main+0x1184>
   833c4:	91328129 	add	x9, x9, #0xca0
   833c8:	9101c3f7 	add	x23, sp, #0x70
   833cc:	a940aa60 	ldp	x0, x10, [x19, #8]
   833d0:	a9075be8 	stp	x8, x22, [sp, #112]
   833d4:	52800048 	mov	w8, #0x2                   	// #2
   833d8:	910363e1 	add	x1, sp, #0xd8
   833dc:	f9006fff 	str	xzr, [sp, #216]
   833e0:	a90ea3e9 	stp	x9, x8, [sp, #232]
   833e4:	52800029 	mov	w9, #0x1                   	// #1
   833e8:	f940194a 	ldr	x10, [x10, #48]
   833ec:	a90fa7f7 	stp	x23, x9, [sp, #248]
   833f0:	d63f0140 	blr	x10
   833f4:	35004a20 	cbnz	w0, 83d38 <kernel_main+0xebc>
   833f8:	aa1303e0 	mov	x0, x19
   833fc:	97fffc3e 	bl	824f4 <unlock>
   83400:	9100e3e8 	add	x8, sp, #0x38
   83404:	b0000009 	adrp	x9, 84000 <kernel_main+0x1184>
   83408:	91334129 	add	x9, x9, #0xcd0
   8340c:	910363e1 	add	x1, sp, #0xd8
   83410:	a940aa60 	ldp	x0, x10, [x19, #8]
   83414:	a9075be8 	stp	x8, x22, [sp, #112]
   83418:	52800048 	mov	w8, #0x2                   	// #2
   8341c:	f9006fff 	str	xzr, [sp, #216]
   83420:	a90ea3e9 	stp	x9, x8, [sp, #232]
   83424:	52800029 	mov	w9, #0x1                   	// #1
   83428:	f940194a 	ldr	x10, [x10, #48]
   8342c:	a90fa7f7 	stp	x23, x9, [sp, #248]
   83430:	d63f0140 	blr	x10
   83434:	35004820 	cbnz	w0, 83d38 <kernel_main+0xebc>
   83438:	aa1303e0 	mov	x0, x19
   8343c:	97fffc2e 	bl	824f4 <unlock>
   83440:	910103e8 	add	x8, sp, #0x40
   83444:	b0000009 	adrp	x9, 84000 <kernel_main+0x1184>
   83448:	91340129 	add	x9, x9, #0xd00
   8344c:	9101c3f7 	add	x23, sp, #0x70
   83450:	a940aa60 	ldp	x0, x10, [x19, #8]
   83454:	a9075be8 	stp	x8, x22, [sp, #112]
   83458:	52800048 	mov	w8, #0x2                   	// #2
   8345c:	910363e1 	add	x1, sp, #0xd8
   83460:	f9006fff 	str	xzr, [sp, #216]
   83464:	a90ea3e9 	stp	x9, x8, [sp, #232]
   83468:	52800029 	mov	w9, #0x1                   	// #1
   8346c:	f940194a 	ldr	x10, [x10, #48]
   83470:	a90fa7f7 	stp	x23, x9, [sp, #248]
   83474:	d63f0140 	blr	x10
   83478:	35004600 	cbnz	w0, 83d38 <kernel_main+0xebc>
   8347c:	aa1303e0 	mov	x0, x19
   83480:	97fffc1d 	bl	824f4 <unlock>
   83484:	a940a660 	ldp	x0, x9, [x19, #8]
   83488:	910123e8 	add	x8, sp, #0x48
   8348c:	5280004a 	mov	w10, #0x2                   	// #2
   83490:	910363e1 	add	x1, sp, #0xd8
   83494:	f9006fff 	str	xzr, [sp, #216]
   83498:	a9075be8 	stp	x8, x22, [sp, #112]
   8349c:	52800028 	mov	w8, #0x1                   	// #1
   834a0:	f9401929 	ldr	x9, [x9, #48]
   834a4:	a90eabf4 	stp	x20, x10, [sp, #232]
   834a8:	a90fa3f7 	stp	x23, x8, [sp, #248]
   834ac:	d63f0120 	blr	x9
   834b0:	35004440 	cbnz	w0, 83d38 <kernel_main+0xebc>
   834b4:	aa1303e0 	mov	x0, x19
   834b8:	97fffc0f 	bl	824f4 <unlock>
   834bc:	910143e8 	add	x8, sp, #0x50
   834c0:	b0000009 	adrp	x9, 84000 <kernel_main+0x1184>
   834c4:	9134c129 	add	x9, x9, #0xd30
   834c8:	9101c3f4 	add	x20, sp, #0x70
   834cc:	a940aa60 	ldp	x0, x10, [x19, #8]
   834d0:	a9075be8 	stp	x8, x22, [sp, #112]
   834d4:	52800048 	mov	w8, #0x2                   	// #2
   834d8:	910363e1 	add	x1, sp, #0xd8
   834dc:	f9006fff 	str	xzr, [sp, #216]
   834e0:	a90ea3e9 	stp	x9, x8, [sp, #232]
   834e4:	52800029 	mov	w9, #0x1                   	// #1
   834e8:	f940194a 	ldr	x10, [x10, #48]
   834ec:	a90fa7f4 	stp	x20, x9, [sp, #248]
   834f0:	d63f0140 	blr	x10
   834f4:	35004220 	cbnz	w0, 83d38 <kernel_main+0xebc>
   834f8:	aa1303e0 	mov	x0, x19
   834fc:	97fffbfe 	bl	824f4 <unlock>
   83500:	910163e8 	add	x8, sp, #0x58
   83504:	b0000009 	adrp	x9, 84000 <kernel_main+0x1184>
   83508:	91358129 	add	x9, x9, #0xd60
   8350c:	910363e1 	add	x1, sp, #0xd8
   83510:	a940aa60 	ldp	x0, x10, [x19, #8]
   83514:	a9075be8 	stp	x8, x22, [sp, #112]
   83518:	52800048 	mov	w8, #0x2                   	// #2
   8351c:	f9006fff 	str	xzr, [sp, #216]
   83520:	a90ea3e9 	stp	x9, x8, [sp, #232]
   83524:	52800029 	mov	w9, #0x1                   	// #1
   83528:	f940194a 	ldr	x10, [x10, #48]
   8352c:	a90fa7f4 	stp	x20, x9, [sp, #248]
   83530:	d63f0140 	blr	x10
   83534:	35004020 	cbnz	w0, 83d38 <kernel_main+0xebc>
   83538:	90000033 	adrp	x19, 87000 <libkernel::console::CONSOLE>
   8353c:	91000273 	add	x19, x19, #0x0
   83540:	aa1303e0 	mov	x0, x19
   83544:	97fffbec 	bl	824f4 <unlock>
   83548:	12820008 	mov	w8, #0xffffefff            	// #-4097
   8354c:	eb08031f 	cmp	x24, x8
   83550:	54005648 	b.hi	84018 <kernel_main+0x119c>  // b.pmore
   83554:	91400709 	add	x9, x24, #0x1, lsl #12
   83558:	910183e8 	add	x8, sp, #0x60
   8355c:	d34cfd29 	lsr	x9, x9, #12
   83560:	f0ffffea 	adrp	x10, 82000 <<libkernel::memory::arch_mmu::translation_entry::Descriptor as core::fmt::Display>::fmt+0xac>
   83564:	911fb14a 	add	x10, x10, #0x7ec
   83568:	9101c3eb 	add	x11, sp, #0x70
   8356c:	910363e1 	add	x1, sp, #0xd8
   83570:	f9006fff 	str	xzr, [sp, #216]
   83574:	f90033e9 	str	x9, [sp, #96]
   83578:	90000029 	adrp	x9, 87000 <libkernel::console::CONSOLE>
   8357c:	91002129 	add	x9, x9, #0x8
   83580:	a9072be8 	stp	x8, x10, [sp, #112]
   83584:	b0000008 	adrp	x8, 84000 <kernel_main+0x1184>
   83588:	91366108 	add	x8, x8, #0xd98
   8358c:	5280004a 	mov	w10, #0x2                   	// #2
   83590:	a9402520 	ldp	x0, x9, [x9]
   83594:	a90eabe8 	stp	x8, x10, [sp, #232]
   83598:	52800028 	mov	w8, #0x1                   	// #1
   8359c:	f9401929 	ldr	x9, [x9, #48]
   835a0:	a90fa3eb 	stp	x11, x8, [sp, #248]
   835a4:	d63f0120 	blr	x9
   835a8:	35003c80 	cbnz	w0, 83d38 <kernel_main+0xebc>
   835ac:	aa1303e0 	mov	x0, x19
   835b0:	97fffbd1 	bl	824f4 <unlock>
   835b4:	a940a660 	ldp	x0, x9, [x19, #8]
   835b8:	b0000008 	adrp	x8, 84000 <kernel_main+0x1184>
   835bc:	91374108 	add	x8, x8, #0xdd0
   835c0:	5280002a 	mov	w10, #0x1                   	// #1
   835c4:	910363e1 	add	x1, sp, #0xd8
   835c8:	f94033fc 	ldr	x28, [sp, #96]
   835cc:	f9006fff 	str	xzr, [sp, #216]
   835d0:	a90ffffa 	stp	x26, xzr, [sp, #248]
   835d4:	a90eabe8 	stp	x8, x10, [sp, #232]
   835d8:	f9401928 	ldr	x8, [x9, #48]
   835dc:	d63f0100 	blr	x8
   835e0:	35003ac0 	cbnz	w0, 83d38 <kernel_main+0xebc>
   835e4:	90000033 	adrp	x19, 87000 <libkernel::console::CONSOLE>
   835e8:	91000273 	add	x19, x19, #0x0
   835ec:	aa1303e0 	mov	x0, x19
   835f0:	97fffbc1 	bl	824f4 <unlock>
   835f4:	f90037ff 	str	xzr, [sp, #104]
   835f8:	f9400301 	ldr	x1, [x24]
   835fc:	37000461 	tbnz	w1, #0, 83688 <kernel_main+0x80c>
   83600:	52800048 	mov	w8, #0x2                   	// #2
   83604:	52800069 	mov	w9, #0x3                   	// #3
   83608:	910283e0 	add	x0, sp, #0xa0
   8360c:	528000c1 	mov	w1, #0x6                   	// #6
   83610:	a90a27e8 	stp	x8, x9, [sp, #160]
   83614:	97fff87a 	bl	817fc <libkernel::memory::arch_mmu::translation_entry::Descriptor::set_attributes>
   83618:	d354cf88 	ubfx	x8, x28, #20, #32
   8361c:	b50052a8 	cbnz	x8, 84070 <kernel_main+0x11f4>
   83620:	d374cf94 	lsl	x20, x28, #12
   83624:	aa1403e0 	mov	x0, x20
   83628:	97fff292 	bl	80070 <clear_frame>
   8362c:	9100079c 	add	x28, x28, #0x1
   83630:	d354ff88 	lsr	x8, x28, #20
   83634:	b5005228 	cbnz	x8, 84078 <kernel_main+0x11fc>
   83638:	f94053e8 	ldr	x8, [sp, #160]
   8363c:	f1000d1f 	cmp	x8, #0x3
   83640:	54003668 	b.hi	83d0c <kernel_main+0xe90>  // b.pmore
   83644:	b0000009 	adrp	x9, 84000 <kernel_main+0x1184>
   83648:	9123d129 	add	x9, x9, #0x8f4
   8364c:	1000000a 	adr	x10, 8364c <kernel_main+0x7d0>
   83650:	b8a8792b 	ldrsw	x11, [x9, x8, lsl #2]
   83654:	8b0b014a 	add	x10, x10, x11
   83658:	d61f0140 	br	x10
   8365c:	f240769f 	tst	x20, #0x3fffffff
   83660:	540003c1 	b.ne	836d8 <kernel_main+0x85c>  // b.any
   83664:	f94057e8 	ldr	x8, [sp, #168]
   83668:	aa080288 	orr	x8, x20, x8
   8366c:	a90a23ff 	stp	xzr, x8, [sp, #160]
   83670:	f94037e8 	ldr	x8, [sp, #104]
   83674:	f94057e9 	ldr	x9, [sp, #168]
   83678:	d35e9908 	ubfx	x8, x8, #30, #9
   8367c:	f8287b09 	str	x9, [x24, x8, lsl #3]
   83680:	b5000374 	cbnz	x20, 836ec <kernel_main+0x870>
   83684:	140001a7 	b	83d20 <kernel_main+0xea4>
   83688:	36083da1 	tbz	w1, #1, 83e3c <kernel_main+0xfc0>
   8368c:	52800040 	mov	w0, #0x2                   	// #2
   83690:	97fff844 	bl	817a0 <libkernel::memory::arch_mmu::translation_entry::Descriptor::get_address>
   83694:	b40050a0 	cbz	x0, 840a8 <kernel_main+0x122c>
   83698:	aa0103f4 	mov	x20, x1
   8369c:	b4003421 	cbz	x1, 83d20 <kernel_main+0xea4>
   836a0:	aa1f03e8 	mov	x8, xzr
   836a4:	14000013 	b	836f0 <kernel_main+0x874>
   836a8:	f240529f 	tst	x20, #0x1fffff
   836ac:	54000161 	b.ne	836d8 <kernel_main+0x85c>  // b.any
   836b0:	f94057e8 	ldr	x8, [sp, #168]
   836b4:	52800029 	mov	w9, #0x1                   	// #1
   836b8:	14000006 	b	836d0 <kernel_main+0x854>
   836bc:	f94057e8 	ldr	x8, [sp, #168]
   836c0:	52800049 	mov	w9, #0x2                   	// #2
   836c4:	14000003 	b	836d0 <kernel_main+0x854>
   836c8:	f94057e8 	ldr	x8, [sp, #168]
   836cc:	52800069 	mov	w9, #0x3                   	// #3
   836d0:	aa080288 	orr	x8, x20, x8
   836d4:	a90a23e9 	stp	x9, x8, [sp, #160]
   836d8:	f94037e8 	ldr	x8, [sp, #104]
   836dc:	f94057e9 	ldr	x9, [sp, #168]
   836e0:	d35e9908 	ubfx	x8, x8, #30, #9
   836e4:	f8287b09 	str	x9, [x24, x8, lsl #3]
   836e8:	b40031d4 	cbz	x20, 83d20 <kernel_main+0xea4>
   836ec:	f94037e8 	ldr	x8, [sp, #104]
   836f0:	d3557516 	ubfx	x22, x8, #21, #9
   836f4:	f8767a88 	ldr	x8, [x20, x22, lsl #3]
   836f8:	37003a28 	tbnz	w8, #0, 83e3c <kernel_main+0xfc0>
   836fc:	52800028 	mov	w8, #0x1                   	// #1
   83700:	9102c3e0 	add	x0, sp, #0xb0
   83704:	52800061 	mov	w1, #0x3                   	// #3
   83708:	a90b23e8 	stp	x8, x8, [sp, #176]
   8370c:	97fff83c 	bl	817fc <libkernel::memory::arch_mmu::translation_entry::Descriptor::set_attributes>
   83710:	f9405be8 	ldr	x8, [sp, #176]
   83714:	f1000d1f 	cmp	x8, #0x3
   83718:	54000128 	b.hi	8373c <kernel_main+0x8c0>  // b.pmore
   8371c:	b0000009 	adrp	x9, 84000 <kernel_main+0x1184>
   83720:	91241129 	add	x9, x9, #0x904
   83724:	1000000a 	adr	x10, 83724 <kernel_main+0x8a8>
   83728:	b8a8792b 	ldrsw	x11, [x9, x8, lsl #2]
   8372c:	8b0b014a 	add	x10, x10, x11
   83730:	d61f0140 	br	x10
   83734:	f9005bff 	str	xzr, [sp, #176]
   83738:	14000009 	b	8375c <kernel_main+0x8e0>
   8373c:	aa1f03e8 	mov	x8, xzr
   83740:	14000008 	b	83760 <kernel_main+0x8e4>
   83744:	52800028 	mov	w8, #0x1                   	// #1
   83748:	14000004 	b	83758 <kernel_main+0x8dc>
   8374c:	52800048 	mov	w8, #0x2                   	// #2
   83750:	14000002 	b	83758 <kernel_main+0x8dc>
   83754:	52800068 	mov	w8, #0x3                   	// #3
   83758:	f9005be8 	str	x8, [sp, #176]
   8375c:	f9405fe8 	ldr	x8, [sp, #184]
   83760:	f8367a88 	str	x8, [x20, x22, lsl #3]
   83764:	910323e9 	add	x9, sp, #0xc8
   83768:	f94037e8 	ldr	x8, [sp, #104]
   8376c:	d0ffffea 	adrp	x10, 81000 <core::fmt::num::imp::<impl core::fmt::Display for u32>::fmt+0x128>
   83770:	912ce14a 	add	x10, x10, #0xb38
   83774:	b000000b 	adrp	x11, 84000 <kernel_main+0x1184>
   83778:	913e016b 	add	x11, x11, #0xf80
   8377c:	9101a3ec 	add	x12, sp, #0x68
   83780:	d3557508 	ubfx	x8, x8, #21, #9
   83784:	9000002d 	adrp	x13, 87000 <libkernel::console::CONSOLE>
   83788:	910021ad 	add	x13, x13, #0x8
   8378c:	910363e1 	add	x1, sp, #0xd8
   83790:	f90063e8 	str	x8, [sp, #192]
   83794:	f8687a88 	ldr	x8, [x20, x8, lsl #3]
   83798:	a9082be9 	stp	x9, x10, [sp, #128]
   8379c:	52800089 	mov	w9, #0x4                   	// #4
   837a0:	9101c3ea 	add	x10, sp, #0x70
   837a4:	a90957ec 	stp	x12, x21, [sp, #144]
   837a8:	5280002c 	mov	w12, #0x1                   	// #1
   837ac:	f9006fff 	str	xzr, [sp, #216]
   837b0:	a90ea7eb 	stp	x11, x9, [sp, #232]
   837b4:	910303eb 	add	x11, sp, #0xc0
   837b8:	f27f011f 	tst	x8, #0x2
   837bc:	f9007fea 	str	x10, [sp, #248]
   837c0:	9a8c058a 	cinc	x10, x12, ne  // ne = any
   837c4:	f240011f 	tst	x8, #0x1
   837c8:	a94031a0 	ldp	x0, x12, [x13]
   837cc:	f9003beb 	str	x11, [sp, #112]
   837d0:	b0ffffeb 	adrp	x11, 80000 <_start>
   837d4:	9104d16b 	add	x11, x11, #0x134
   837d8:	9a8a0129 	csel	x9, x9, x10, eq  // eq = none
   837dc:	5280006a 	mov	w10, #0x3                   	// #3
   837e0:	f9003feb 	str	x11, [sp, #120]
   837e4:	f940198b 	ldr	x11, [x12, #48]
   837e8:	a90ca3e9 	stp	x9, x8, [sp, #200]
   837ec:	f90083ea 	str	x10, [sp, #256]
   837f0:	d63f0160 	blr	x11
   837f4:	35002a20 	cbnz	w0, 83d38 <kernel_main+0xebc>
   837f8:	aa1303e0 	mov	x0, x19
   837fc:	97fffb3e 	bl	824f4 <unlock>
   83800:	a940a660 	ldp	x0, x9, [x19, #8]
   83804:	b0000008 	adrp	x8, 84000 <kernel_main+0x1184>
   83808:	91382108 	add	x8, x8, #0xe08
   8380c:	5280002a 	mov	w10, #0x1                   	// #1
   83810:	910363e1 	add	x1, sp, #0xd8
   83814:	f9006fff 	str	xzr, [sp, #216]
   83818:	a90ffffa 	stp	x26, xzr, [sp, #248]
   8381c:	a90eabe8 	stp	x8, x10, [sp, #232]
   83820:	f9401928 	ldr	x8, [x9, #48]
   83824:	d63f0100 	blr	x8
   83828:	35002880 	cbnz	w0, 83d38 <kernel_main+0xebc>
   8382c:	90000020 	adrp	x0, 87000 <libkernel::console::CONSOLE>
   83830:	91000000 	add	x0, x0, #0x0
   83834:	97fffb30 	bl	824f4 <unlock>
   83838:	f9402fe8 	ldr	x8, [sp, #88]
   8383c:	d370fd09 	lsr	x9, x8, #48
   83840:	b5004009 	cbnz	x9, 84040 <kernel_main+0x11c4>
   83844:	9274cd1d 	and	x29, x8, #0xfffffffffffff000
   83848:	52bfc016 	mov	w22, #0xfe000000            	// #-33554432
   8384c:	32131bfb 	mov	w27, #0xfe000               	// #1040384
   83850:	52800059 	mov	w25, #0x2                   	// #2
   83854:	5280007a 	mov	w26, #0x3                   	// #3
   83858:	90000033 	adrp	x19, 87000 <libkernel::console::CONSOLE>
   8385c:	91000273 	add	x19, x19, #0x0
   83860:	f0000008 	adrp	x8, 86000 <compiler_builtins::mem::__llvm_memset_element_unordered_atomic_16+0x1774>
   83864:	9107a108 	add	x8, x8, #0x1e8
   83868:	f90007e8 	str	x8, [sp, #8]
   8386c:	14000008 	b	8388c <kernel_main+0xa10>
   83870:	f24156df 	tst	x22, #0x80000000001fffff
   83874:	54001941 	b.ne	83b9c <kernel_main+0xd20>  // b.any
   83878:	f94073e8 	ldr	x8, [sp, #224]
   8387c:	9100077b 	add	x27, x27, #0x1
   83880:	aa0802c8 	orr	x8, x22, x8
   83884:	914006d6 	add	x22, x22, #0x1, lsl #12
   83888:	f8347aa8 	str	x8, [x21, x20, lsl #3]
   8388c:	eb1d02df 	cmp	x22, x29
   83890:	540018c2 	b.cs	83ba8 <kernel_main+0xd2c>  // b.hs, b.nlast
   83894:	d360fec8 	lsr	x8, x22, #32
   83898:	b5002628 	cbnz	x8, 83d5c <kernel_main+0xee0>
   8389c:	d35e9ad5 	ubfx	x21, x22, #30, #9
   838a0:	f8757b01 	ldr	x1, [x24, x21, lsl #3]
   838a4:	37000361 	tbnz	w1, #0, 83910 <kernel_main+0xa94>
   838a8:	910283e0 	add	x0, sp, #0xa0
   838ac:	528000c1 	mov	w1, #0x6                   	// #6
   838b0:	a90a6bf9 	stp	x25, x26, [sp, #160]
   838b4:	97fff7d2 	bl	817fc <libkernel::memory::arch_mmu::translation_entry::Descriptor::set_attributes>
   838b8:	d354cf88 	ubfx	x8, x28, #20, #32
   838bc:	b5002688 	cbnz	x8, 83d8c <kernel_main+0xf10>
   838c0:	d374cf94 	lsl	x20, x28, #12
   838c4:	aa1403e0 	mov	x0, x20
   838c8:	97fff1ea 	bl	80070 <clear_frame>
   838cc:	9100079c 	add	x28, x28, #0x1
   838d0:	d354ff88 	lsr	x8, x28, #20
   838d4:	b5002748 	cbnz	x8, 83dbc <kernel_main+0xf40>
   838d8:	f94053e8 	ldr	x8, [sp, #160]
   838dc:	f1000d1f 	cmp	x8, #0x3
   838e0:	54000268 	b.hi	8392c <kernel_main+0xab0>  // b.pmore
   838e4:	b000000b 	adrp	x11, 84000 <kernel_main+0x1184>
   838e8:	9124516b 	add	x11, x11, #0x914
   838ec:	10000009 	adr	x9, 838ec <kernel_main+0xa70>
   838f0:	b8a8796a 	ldrsw	x10, [x11, x8, lsl #2]
   838f4:	8b0a0129 	add	x9, x9, x10
   838f8:	d61f0120 	br	x9
   838fc:	f240769f 	tst	x20, #0x3fffffff
   83900:	54000341 	b.ne	83968 <kernel_main+0xaec>  // b.any
   83904:	f94057e8 	ldr	x8, [sp, #168]
   83908:	f90053ff 	str	xzr, [sp, #160]
   8390c:	14000015 	b	83960 <kernel_main+0xae4>
   83910:	360825c1 	tbz	w1, #1, 83dc8 <kernel_main+0xf4c>
   83914:	52800040 	mov	w0, #0x2                   	// #2
   83918:	97fff7a2 	bl	817a0 <libkernel::memory::arch_mmu::translation_entry::Descriptor::get_address>
   8391c:	b4002720 	cbz	x0, 83e00 <kernel_main+0xf84>
   83920:	aa0103f4 	mov	x20, x1
   83924:	b5000681 	cbnz	x1, 839f4 <kernel_main+0xb78>
   83928:	140000fe 	b	83d20 <kernel_main+0xea4>
   8392c:	aa1f03e8 	mov	x8, xzr
   83930:	1400000f 	b	8396c <kernel_main+0xaf0>
   83934:	f240529f 	tst	x20, #0x1fffff
   83938:	54000181 	b.ne	83968 <kernel_main+0xaec>  // b.any
   8393c:	52800029 	mov	w9, #0x1                   	// #1
   83940:	f94057e8 	ldr	x8, [sp, #168]
   83944:	f90053e9 	str	x9, [sp, #160]
   83948:	14000006 	b	83960 <kernel_main+0xae4>
   8394c:	f94057e8 	ldr	x8, [sp, #168]
   83950:	f90053f9 	str	x25, [sp, #160]
   83954:	14000003 	b	83960 <kernel_main+0xae4>
   83958:	f94057e8 	ldr	x8, [sp, #168]
   8395c:	f90053fa 	str	x26, [sp, #160]
   83960:	aa080288 	orr	x8, x20, x8
   83964:	f90057e8 	str	x8, [sp, #168]
   83968:	f94057e8 	ldr	x8, [sp, #168]
   8396c:	d37df2a9 	lsl	x9, x21, #3
   83970:	9000002b 	adrp	x11, 87000 <libkernel::console::CONSOLE>
   83974:	9100216b 	add	x11, x11, #0x8
   83978:	b000000c 	adrp	x12, 84000 <kernel_main+0x1184>
   8397c:	913b418c 	add	x12, x12, #0xed0
   83980:	910363e1 	add	x1, sp, #0xd8
   83984:	f8296b08 	str	x8, [x24, x9]
   83988:	f9005bf5 	str	x21, [sp, #176]
   8398c:	f8696b08 	ldr	x8, [x24, x9]
   83990:	9102c3e9 	add	x9, sp, #0xb0
   83994:	a90eebec 	stp	x12, x26, [sp, #232]
   83998:	5280008c 	mov	w12, #0x4                   	// #4
   8399c:	f9003be9 	str	x9, [sp, #112]
   839a0:	b0ffffe9 	adrp	x9, 80000 <_start>
   839a4:	9104d12a 	add	x10, x9, #0x134
   839a8:	910323e9 	add	x9, sp, #0xc8
   839ac:	f240011f 	tst	x8, #0x1
   839b0:	a90d7fe8 	stp	x8, xzr, [sp, #208]
   839b4:	a907a7ea 	stp	x10, x9, [sp, #120]
   839b8:	d0ffffe9 	adrp	x9, 81000 <core::fmt::num::imp::<impl core::fmt::Display for u32>::fmt+0x128>
   839bc:	913d5129 	add	x9, x9, #0xf54
   839c0:	927f010a 	and	x10, x8, #0x2
   839c4:	9a8a018a 	csel	x10, x12, x10, eq  // eq = none
   839c8:	f90047e9 	str	x9, [sp, #136]
   839cc:	a9402560 	ldp	x0, x9, [x11]
   839d0:	9101c3eb 	add	x11, sp, #0x70
   839d4:	f90067ea 	str	x10, [sp, #200]
   839d8:	a90fe7eb 	stp	x11, x25, [sp, #248]
   839dc:	f9401929 	ldr	x9, [x9, #48]
   839e0:	d63f0120 	blr	x9
   839e4:	35001aa0 	cbnz	w0, 83d38 <kernel_main+0xebc>
   839e8:	aa1303e0 	mov	x0, x19
   839ec:	97fffac2 	bl	824f4 <unlock>
   839f0:	b4001994 	cbz	x20, 83d20 <kernel_main+0xea4>
   839f4:	d35576d7 	ubfx	x23, x22, #21, #9
   839f8:	f8777a81 	ldr	x1, [x20, x23, lsl #3]
   839fc:	37000361 	tbnz	w1, #0, 83a68 <kernel_main+0xbec>
   83a00:	9102c3e0 	add	x0, sp, #0xb0
   83a04:	528000c1 	mov	w1, #0x6                   	// #6
   83a08:	a90b6bf9 	stp	x25, x26, [sp, #176]
   83a0c:	97fff77c 	bl	817fc <libkernel::memory::arch_mmu::translation_entry::Descriptor::set_attributes>
   83a10:	d354cf88 	ubfx	x8, x28, #20, #32
   83a14:	b5001bc8 	cbnz	x8, 83d8c <kernel_main+0xf10>
   83a18:	d374cf95 	lsl	x21, x28, #12
   83a1c:	aa1503e0 	mov	x0, x21
   83a20:	97fff194 	bl	80070 <clear_frame>
   83a24:	9100079c 	add	x28, x28, #0x1
   83a28:	d354ff88 	lsr	x8, x28, #20
   83a2c:	b5001c88 	cbnz	x8, 83dbc <kernel_main+0xf40>
   83a30:	f9405be8 	ldr	x8, [sp, #176]
   83a34:	f1000d1f 	cmp	x8, #0x3
   83a38:	540002e8 	b.hi	83a94 <kernel_main+0xc18>  // b.pmore
   83a3c:	b000000b 	adrp	x11, 84000 <kernel_main+0x1184>
   83a40:	9124916b 	add	x11, x11, #0x924
   83a44:	10000009 	adr	x9, 83a44 <kernel_main+0xbc8>
   83a48:	b8a8796a 	ldrsw	x10, [x11, x8, lsl #2]
   83a4c:	8b0a0129 	add	x9, x9, x10
   83a50:	d61f0120 	br	x9
   83a54:	f24076bf 	tst	x21, #0x3fffffff
   83a58:	54000361 	b.ne	83ac4 <kernel_main+0xc48>  // b.any
   83a5c:	f9405fe8 	ldr	x8, [sp, #184]
   83a60:	f9005bff 	str	xzr, [sp, #176]
   83a64:	14000016 	b	83abc <kernel_main+0xc40>
   83a68:	36081b01 	tbz	w1, #1, 83dc8 <kernel_main+0xf4c>
   83a6c:	52800040 	mov	w0, #0x2                   	// #2
   83a70:	a90b07f9 	stp	x25, x1, [sp, #176]
   83a74:	97fff74b 	bl	817a0 <libkernel::memory::arch_mmu::translation_entry::Descriptor::get_address>
   83a78:	b4001d00 	cbz	x0, 83e18 <kernel_main+0xf9c>
   83a7c:	aa0103f5 	mov	x21, x1
   83a80:	b50006c1 	cbnz	x1, 83b58 <kernel_main+0xcdc>
   83a84:	140000a7 	b	83d20 <kernel_main+0xea4>
   83a88:	f9405fe8 	ldr	x8, [sp, #184]
   83a8c:	f9005bf9 	str	x25, [sp, #176]
   83a90:	1400000b 	b	83abc <kernel_main+0xc40>
   83a94:	aa1f03e8 	mov	x8, xzr
   83a98:	1400000c 	b	83ac8 <kernel_main+0xc4c>
   83a9c:	f24052bf 	tst	x21, #0x1fffff
   83aa0:	54000121 	b.ne	83ac4 <kernel_main+0xc48>  // b.any
   83aa4:	52800029 	mov	w9, #0x1                   	// #1
   83aa8:	f9405fe8 	ldr	x8, [sp, #184]
   83aac:	f9005be9 	str	x9, [sp, #176]
   83ab0:	14000003 	b	83abc <kernel_main+0xc40>
   83ab4:	f9405fe8 	ldr	x8, [sp, #184]
   83ab8:	f9005bfa 	str	x26, [sp, #176]
   83abc:	aa0802a8 	orr	x8, x21, x8
   83ac0:	f9005fe8 	str	x8, [sp, #184]
   83ac4:	f9405fe8 	ldr	x8, [sp, #184]
   83ac8:	d37df2e9 	lsl	x9, x23, #3
   83acc:	9000002b 	adrp	x11, 87000 <libkernel::console::CONSOLE>
   83ad0:	9100216b 	add	x11, x11, #0x8
   83ad4:	b000000c 	adrp	x12, 84000 <kernel_main+0x1184>
   83ad8:	913c418c 	add	x12, x12, #0xf10
   83adc:	910363e1 	add	x1, sp, #0xd8
   83ae0:	f8296a88 	str	x8, [x20, x9]
   83ae4:	f90063f7 	str	x23, [sp, #192]
   83ae8:	f8696a88 	ldr	x8, [x20, x9]
   83aec:	910303e9 	add	x9, sp, #0xc0
   83af0:	a90eebec 	stp	x12, x26, [sp, #232]
   83af4:	5280008c 	mov	w12, #0x4                   	// #4
   83af8:	f9003be9 	str	x9, [sp, #112]
   83afc:	b0ffffe9 	adrp	x9, 80000 <_start>
   83b00:	9104d12a 	add	x10, x9, #0x134
   83b04:	910323e9 	add	x9, sp, #0xc8
   83b08:	f27f011f 	tst	x8, #0x2
   83b0c:	a90d7fe8 	stp	x8, xzr, [sp, #208]
   83b10:	a907a7ea 	stp	x10, x9, [sp, #120]
   83b14:	d0ffffe9 	adrp	x9, 81000 <core::fmt::num::imp::<impl core::fmt::Display for u32>::fmt+0x128>
   83b18:	913d5129 	add	x9, x9, #0xf54
   83b1c:	5280002a 	mov	w10, #0x1                   	// #1
   83b20:	9a8a054a 	cinc	x10, x10, ne  // ne = any
   83b24:	f240011f 	tst	x8, #0x1
   83b28:	9a8a018a 	csel	x10, x12, x10, eq  // eq = none
   83b2c:	f90047e9 	str	x9, [sp, #136]
   83b30:	a9402560 	ldp	x0, x9, [x11]
   83b34:	9101c3eb 	add	x11, sp, #0x70
   83b38:	f90067ea 	str	x10, [sp, #200]
   83b3c:	a90fe7eb 	stp	x11, x25, [sp, #248]
   83b40:	f9401929 	ldr	x9, [x9, #48]
   83b44:	d63f0120 	blr	x9
   83b48:	35000f80 	cbnz	w0, 83d38 <kernel_main+0xebc>
   83b4c:	aa1303e0 	mov	x0, x19
   83b50:	97fffa69 	bl	824f4 <unlock>
   83b54:	b4000e75 	cbz	x21, 83d20 <kernel_main+0xea4>
   83b58:	92402374 	and	x20, x27, #0x1ff
   83b5c:	f8747aa8 	ldr	x8, [x21, x20, lsl #3]
   83b60:	37001388 	tbnz	w8, #0, 83dd0 <kernel_main+0xf54>
   83b64:	910363e0 	add	x0, sp, #0xd8
   83b68:	52800081 	mov	w1, #0x4                   	// #4
   83b6c:	a90debfa 	stp	x26, x26, [sp, #216]
   83b70:	97fff723 	bl	817fc <libkernel::memory::arch_mmu::translation_entry::Descriptor::set_attributes>
   83b74:	b5001320 	cbnz	x0, 83dd8 <kernel_main+0xf5c>
   83b78:	f9406fe8 	ldr	x8, [sp, #216]
   83b7c:	d1000909 	sub	x9, x8, #0x2
   83b80:	f100093f 	cmp	x9, #0x2
   83b84:	54ffe7a3 	b.cc	83878 <kernel_main+0x9fc>  // b.lo, b.ul, b.last
   83b88:	f100051f 	cmp	x8, #0x1
   83b8c:	54ffe720 	b.eq	83870 <kernel_main+0x9f4>  // b.none
   83b90:	b5001508 	cbnz	x8, 83e30 <kernel_main+0xfb4>
   83b94:	f2417adf 	tst	x22, #0x800000003fffffff
   83b98:	54ffe700 	b.eq	83878 <kernel_main+0x9fc>  // b.none
   83b9c:	f0000000 	adrp	x0, 86000 <compiler_builtins::mem::__llvm_memset_element_unordered_atomic_16+0x1774>
   83ba0:	9106a000 	add	x0, x0, #0x1a8
   83ba4:	1400008d 	b	83dd8 <kernel_main+0xf5c>
   83ba8:	9101c3e9 	add	x9, sp, #0x70
   83bac:	f0ffffea 	adrp	x10, 82000 <<libkernel::memory::arch_mmu::translation_entry::Descriptor as core::fmt::Display>::fmt+0xac>
   83bb0:	9114014a 	add	x10, x10, #0x500
   83bb4:	9000002d 	adrp	x13, 87000 <libkernel::console::CONSOLE>
   83bb8:	910021ad 	add	x13, x13, #0x8
   83bbc:	5280004b 	mov	w11, #0x2                   	// #2
   83bc0:	52800028 	mov	w8, #0x1                   	// #1
   83bc4:	910323ec 	add	x12, sp, #0xc8
   83bc8:	a90cabe9 	stp	x9, x10, [sp, #200]
   83bcc:	b0000009 	adrp	x9, 84000 <kernel_main+0x1184>
   83bd0:	9138c129 	add	x9, x9, #0xe30
   83bd4:	910363e1 	add	x1, sp, #0xd8
   83bd8:	a94029a0 	ldp	x0, x10, [x13]
   83bdc:	a90773e8 	stp	x8, x28, [sp, #112]
   83be0:	a90eafe9 	stp	x9, x11, [sp, #232]
   83be4:	f9006fff 	str	xzr, [sp, #216]
   83be8:	a90fa3ec 	stp	x12, x8, [sp, #248]
   83bec:	f9401949 	ldr	x9, [x10, #48]
   83bf0:	d63f0120 	blr	x9
   83bf4:	35000a20 	cbnz	w0, 83d38 <kernel_main+0xebc>
   83bf8:	aa1303e0 	mov	x0, x19
   83bfc:	97fffa3e 	bl	824f4 <unlock>
   83c00:	a940a660 	ldp	x0, x9, [x19, #8]
   83c04:	b0000008 	adrp	x8, 84000 <kernel_main+0x1184>
   83c08:	913a0108 	add	x8, x8, #0xe80
   83c0c:	5280002a 	mov	w10, #0x1                   	// #1
   83c10:	f0000014 	adrp	x20, 86000 <compiler_builtins::mem::__llvm_memset_element_unordered_atomic_16+0x1774>
   83c14:	910b2294 	add	x20, x20, #0x2c8
   83c18:	910363e1 	add	x1, sp, #0xd8
   83c1c:	f9006fff 	str	xzr, [sp, #216]
   83c20:	a90eabe8 	stp	x8, x10, [sp, #232]
   83c24:	f9401928 	ldr	x8, [x9, #48]
   83c28:	a90ffff4 	stp	x20, xzr, [sp, #248]
   83c2c:	d63f0100 	blr	x8
   83c30:	35000840 	cbnz	w0, 83d38 <kernel_main+0xebc>
   83c34:	aa1303e0 	mov	x0, x19
   83c38:	97fffa2f 	bl	824f4 <unlock>
   83c3c:	d5033fdf 	isb
   83c40:	f0000008 	adrp	x8, 86000 <compiler_builtins::mem::__llvm_memset_element_unordered_atomic_16+0x1774>
   83c44:	91032108 	add	x8, x8, #0xc8
   83c48:	5280002a 	mov	w10, #0x1                   	// #1
   83c4c:	a940a660 	ldp	x0, x9, [x19, #8]
   83c50:	910363e1 	add	x1, sp, #0xd8
   83c54:	f9006fff 	str	xzr, [sp, #216]
   83c58:	a90eabe8 	stp	x8, x10, [sp, #232]
   83c5c:	a90ffff4 	stp	x20, xzr, [sp, #248]
   83c60:	f9401928 	ldr	x8, [x9, #48]
   83c64:	d63f0100 	blr	x8
   83c68:	35000680 	cbnz	w0, 83d38 <kernel_main+0xebc>
   83c6c:	aa1303e0 	mov	x0, x19
   83c70:	97fffa21 	bl	824f4 <unlock>
   83c74:	928200a9 	mov	x9, #0xffffffffffffeffa    	// #-4102
   83c78:	d5381008 	mrs	x8, sctlr_el1
   83c7c:	f2bffee9 	movk	x9, #0xfff7, lsl #16
   83c80:	528000aa 	mov	w10, #0x5                   	// #5
   83c84:	8a090108 	and	x8, x8, x9
   83c88:	910363e1 	add	x1, sp, #0xd8
   83c8c:	aa0a0108 	orr	x8, x8, x10
   83c90:	d5181008 	msr	sctlr_el1, x8
   83c94:	d508751f 	ic	iallu
   83c98:	d50c879f 	tlbi	alle1
   83c9c:	f0000008 	adrp	x8, 86000 <compiler_builtins::mem::__llvm_memset_element_unordered_atomic_16+0x1774>
   83ca0:	9103c108 	add	x8, x8, #0xf0
   83ca4:	d5033fdf 	isb
   83ca8:	a940a660 	ldp	x0, x9, [x19, #8]
   83cac:	5280002a 	mov	w10, #0x1                   	// #1
   83cb0:	f9006fff 	str	xzr, [sp, #216]
   83cb4:	a90ffff4 	stp	x20, xzr, [sp, #248]
   83cb8:	a90eabe8 	stp	x8, x10, [sp, #232]
   83cbc:	f9401928 	ldr	x8, [x9, #48]
   83cc0:	d63f0100 	blr	x8
   83cc4:	350003a0 	cbnz	w0, 83d38 <kernel_main+0xebc>
   83cc8:	aa1303e0 	mov	x0, x19
   83ccc:	97fffa0a 	bl	824f4 <unlock>
   83cd0:	a940a660 	ldp	x0, x9, [x19, #8]
   83cd4:	f0000008 	adrp	x8, 86000 <compiler_builtins::mem::__llvm_memset_element_unordered_atomic_16+0x1774>
   83cd8:	910c6108 	add	x8, x8, #0x318
   83cdc:	5280002a 	mov	w10, #0x1                   	// #1
   83ce0:	910363e1 	add	x1, sp, #0xd8
   83ce4:	f9006fff 	str	xzr, [sp, #216]
   83ce8:	a90ffff4 	stp	x20, xzr, [sp, #248]
   83cec:	a90eabe8 	stp	x8, x10, [sp, #232]
   83cf0:	f9401928 	ldr	x8, [x9, #48]
   83cf4:	d63f0100 	blr	x8
   83cf8:	35000200 	cbnz	w0, 83d38 <kernel_main+0xebc>
   83cfc:	90000020 	adrp	x0, 87000 <libkernel::console::CONSOLE>
   83d00:	91000000 	add	x0, x0, #0x0
   83d04:	97fff9fc 	bl	824f4 <unlock>
   83d08:	14000000 	b	83d08 <kernel_main+0xe8c>
   83d0c:	f94037e8 	ldr	x8, [sp, #104]
   83d10:	aa1f03e9 	mov	x9, xzr
   83d14:	d35e9908 	ubfx	x8, x8, #30, #9
   83d18:	f8287b1f 	str	xzr, [x24, x8, lsl #3]
   83d1c:	b5ffce94 	cbnz	x20, 836ec <kernel_main+0x870>
   83d20:	d0000000 	adrp	x0, 85000 <compiler_builtins::mem::__llvm_memset_element_unordered_atomic_16+0x774>
   83d24:	913d8000 	add	x0, x0, #0xf60
   83d28:	b0000001 	adrp	x1, 84000 <kernel_main+0x1184>
   83d2c:	9125a021 	add	x1, x1, #0x968
   83d30:	97fff3cd 	bl	80c64 <core::panicking::panic>
   83d34:	d4200020 	brk	#0x1
   83d38:	f0000000 	adrp	x0, 86000 <compiler_builtins::mem::__llvm_memset_element_unordered_atomic_16+0x1774>
   83d3c:	9100a000 	add	x0, x0, #0x28
   83d40:	d0000002 	adrp	x2, 85000 <compiler_builtins::mem::__llvm_memset_element_unordered_atomic_16+0x774>
   83d44:	912f2042 	add	x2, x2, #0xbc8
   83d48:	d0000003 	adrp	x3, 85000 <compiler_builtins::mem::__llvm_memset_element_unordered_atomic_16+0x774>
   83d4c:	91300063 	add	x3, x3, #0xc00
   83d50:	910423e1 	add	x1, sp, #0x108
   83d54:	97fff4bf 	bl	81050 <core::result::unwrap_failed>
   83d58:	d4200020 	brk	#0x1
   83d5c:	f0000008 	adrp	x8, 86000 <compiler_builtins::mem::__llvm_memset_element_unordered_atomic_16+0x1774>
   83d60:	91070108 	add	x8, x8, #0x1c0
   83d64:	f0000000 	adrp	x0, 86000 <compiler_builtins::mem::__llvm_memset_element_unordered_atomic_16+0x1774>
   83d68:	9100a000 	add	x0, x0, #0x28
   83d6c:	b0000002 	adrp	x2, 84000 <kernel_main+0x1184>
   83d70:	91260042 	add	x2, x2, #0x980
   83d74:	f9006fe8 	str	x8, [sp, #216]
   83d78:	b0000003 	adrp	x3, 84000 <kernel_main+0x1184>
   83d7c:	913a4063 	add	x3, x3, #0xe90
   83d80:	910363e1 	add	x1, sp, #0xd8
   83d84:	97fff4b3 	bl	81050 <core::result::unwrap_failed>
   83d88:	d4200020 	brk	#0x1
   83d8c:	f0000008 	adrp	x8, 86000 <compiler_builtins::mem::__llvm_memset_element_unordered_atomic_16+0x1774>
   83d90:	91070108 	add	x8, x8, #0x1c0
   83d94:	f9006fe8 	str	x8, [sp, #216]
   83d98:	f0000000 	adrp	x0, 86000 <compiler_builtins::mem::__llvm_memset_element_unordered_atomic_16+0x1774>
   83d9c:	9100a000 	add	x0, x0, #0x28
   83da0:	d0000002 	adrp	x2, 85000 <compiler_builtins::mem::__llvm_memset_element_unordered_atomic_16+0x774>
   83da4:	913ac042 	add	x2, x2, #0xeb0
   83da8:	d0000003 	adrp	x3, 85000 <compiler_builtins::mem::__llvm_memset_element_unordered_atomic_16+0x774>
   83dac:	913be063 	add	x3, x3, #0xef8
   83db0:	910363e1 	add	x1, sp, #0xd8
   83db4:	97fff4a7 	bl	81050 <core::result::unwrap_failed>
   83db8:	d4200020 	brk	#0x1
   83dbc:	f0000008 	adrp	x8, 86000 <compiler_builtins::mem::__llvm_memset_element_unordered_atomic_16+0x1774>
   83dc0:	91086108 	add	x8, x8, #0x218
   83dc4:	f90007e8 	str	x8, [sp, #8]
   83dc8:	f94007e0 	ldr	x0, [sp, #8]
   83dcc:	14000003 	b	83dd8 <kernel_main+0xf5c>
   83dd0:	f0000000 	adrp	x0, 86000 <compiler_builtins::mem::__llvm_memset_element_unordered_atomic_16+0x1774>
   83dd4:	9107a000 	add	x0, x0, #0x1e8
   83dd8:	f9006fe0 	str	x0, [sp, #216]
   83ddc:	f0000000 	adrp	x0, 86000 <compiler_builtins::mem::__llvm_memset_element_unordered_atomic_16+0x1774>
   83de0:	9100a000 	add	x0, x0, #0x28
   83de4:	b0000002 	adrp	x2, 84000 <kernel_main+0x1184>
   83de8:	91260042 	add	x2, x2, #0x980
   83dec:	b0000003 	adrp	x3, 84000 <kernel_main+0x1184>
   83df0:	913f6063 	add	x3, x3, #0xfd8
   83df4:	910363e1 	add	x1, sp, #0xd8
   83df8:	97fff496 	bl	81050 <core::result::unwrap_failed>
   83dfc:	d4200020 	brk	#0x1
   83e00:	d0000000 	adrp	x0, 85000 <compiler_builtins::mem::__llvm_memset_element_unordered_atomic_16+0x774>
   83e04:	913d8000 	add	x0, x0, #0xf60
   83e08:	b0000001 	adrp	x1, 84000 <kernel_main+0x1184>
   83e0c:	913d6021 	add	x1, x1, #0xf58
   83e10:	97fff395 	bl	80c64 <core::panicking::panic>
   83e14:	d4200020 	brk	#0x1
   83e18:	d0000000 	adrp	x0, 85000 <compiler_builtins::mem::__llvm_memset_element_unordered_atomic_16+0x774>
   83e1c:	913d8000 	add	x0, x0, #0xf60
   83e20:	b0000001 	adrp	x1, 84000 <kernel_main+0x1184>
   83e24:	913d0021 	add	x1, x1, #0xf40
   83e28:	97fff38f 	bl	80c64 <core::panicking::panic>
   83e2c:	d4200020 	brk	#0x1
   83e30:	f0000000 	adrp	x0, 86000 <compiler_builtins::mem::__llvm_memset_element_unordered_atomic_16+0x1774>
   83e34:	91052000 	add	x0, x0, #0x148
   83e38:	17ffffe8 	b	83dd8 <kernel_main+0xf5c>
   83e3c:	f0000008 	adrp	x8, 86000 <compiler_builtins::mem::__llvm_memset_element_unordered_atomic_16+0x1774>
   83e40:	9107a108 	add	x8, x8, #0x1e8
   83e44:	1400008f 	b	84080 <kernel_main+0x1204>
   83e48:	f0000008 	adrp	x8, 86000 <compiler_builtins::mem::__llvm_memset_element_unordered_atomic_16+0x1774>
   83e4c:	9105c108 	add	x8, x8, #0x170
   83e50:	f0000000 	adrp	x0, 86000 <compiler_builtins::mem::__llvm_memset_element_unordered_atomic_16+0x1774>
   83e54:	9100a000 	add	x0, x0, #0x28
   83e58:	f0000002 	adrp	x2, 86000 <compiler_builtins::mem::__llvm_memset_element_unordered_atomic_16+0x1774>
   83e5c:	91016042 	add	x2, x2, #0x58
   83e60:	f9006fe8 	str	x8, [sp, #216]
   83e64:	f0000003 	adrp	x3, 86000 <compiler_builtins::mem::__llvm_memset_element_unordered_atomic_16+0x1774>
   83e68:	91026063 	add	x3, x3, #0x98
   83e6c:	910363e1 	add	x1, sp, #0xd8
   83e70:	97fff478 	bl	81050 <core::result::unwrap_failed>
   83e74:	d4200020 	brk	#0x1
   83e78:	f0000008 	adrp	x8, 86000 <compiler_builtins::mem::__llvm_memset_element_unordered_atomic_16+0x1774>
   83e7c:	91052108 	add	x8, x8, #0x148
   83e80:	f0000000 	adrp	x0, 86000 <compiler_builtins::mem::__llvm_memset_element_unordered_atomic_16+0x1774>
   83e84:	9100a000 	add	x0, x0, #0x28
   83e88:	b0000002 	adrp	x2, 84000 <kernel_main+0x1184>
   83e8c:	91260042 	add	x2, x2, #0x980
   83e90:	f9006fe8 	str	x8, [sp, #216]
   83e94:	b0000003 	adrp	x3, 84000 <kernel_main+0x1184>
   83e98:	912a8063 	add	x3, x3, #0xaa0
   83e9c:	910363e1 	add	x1, sp, #0xd8
   83ea0:	97fff46c 	bl	81050 <core::result::unwrap_failed>
   83ea4:	d4200020 	brk	#0x1
   83ea8:	f0000008 	adrp	x8, 86000 <compiler_builtins::mem::__llvm_memset_element_unordered_atomic_16+0x1774>
   83eac:	91070108 	add	x8, x8, #0x1c0
   83eb0:	f0000000 	adrp	x0, 86000 <compiler_builtins::mem::__llvm_memset_element_unordered_atomic_16+0x1774>
   83eb4:	9100a000 	add	x0, x0, #0x28
   83eb8:	b0000002 	adrp	x2, 84000 <kernel_main+0x1184>
   83ebc:	91260042 	add	x2, x2, #0x980
   83ec0:	f9006fe8 	str	x8, [sp, #216]
   83ec4:	b0000003 	adrp	x3, 84000 <kernel_main+0x1184>
   83ec8:	912ba063 	add	x3, x3, #0xae8
   83ecc:	910363e1 	add	x1, sp, #0xd8
   83ed0:	97fff460 	bl	81050 <core::result::unwrap_failed>
   83ed4:	d4200020 	brk	#0x1
   83ed8:	f0000008 	adrp	x8, 86000 <compiler_builtins::mem::__llvm_memset_element_unordered_atomic_16+0x1774>
   83edc:	91052108 	add	x8, x8, #0x148
   83ee0:	f0000000 	adrp	x0, 86000 <compiler_builtins::mem::__llvm_memset_element_unordered_atomic_16+0x1774>
   83ee4:	9100a000 	add	x0, x0, #0x28
   83ee8:	b0000002 	adrp	x2, 84000 <kernel_main+0x1184>
   83eec:	91260042 	add	x2, x2, #0x980
   83ef0:	f9006fe8 	str	x8, [sp, #216]
   83ef4:	b0000003 	adrp	x3, 84000 <kernel_main+0x1184>
   83ef8:	912cc063 	add	x3, x3, #0xb30
   83efc:	910363e1 	add	x1, sp, #0xd8
   83f00:	97fff454 	bl	81050 <core::result::unwrap_failed>
   83f04:	d4200020 	brk	#0x1
   83f08:	f0000008 	adrp	x8, 86000 <compiler_builtins::mem::__llvm_memset_element_unordered_atomic_16+0x1774>
   83f0c:	9106a108 	add	x8, x8, #0x1a8
   83f10:	f0000000 	adrp	x0, 86000 <compiler_builtins::mem::__llvm_memset_element_unordered_atomic_16+0x1774>
   83f14:	9100a000 	add	x0, x0, #0x28
   83f18:	b0000002 	adrp	x2, 84000 <kernel_main+0x1184>
   83f1c:	91260042 	add	x2, x2, #0x980
   83f20:	f9006fe8 	str	x8, [sp, #216]
   83f24:	b0000003 	adrp	x3, 84000 <kernel_main+0x1184>
   83f28:	912d2063 	add	x3, x3, #0xb48
   83f2c:	910363e1 	add	x1, sp, #0xd8
   83f30:	97fff448 	bl	81050 <core::result::unwrap_failed>
   83f34:	d4200020 	brk	#0x1
   83f38:	9a881328 	csel	x8, x25, x8, ne  // ne = any
   83f3c:	f0000000 	adrp	x0, 86000 <compiler_builtins::mem::__llvm_memset_element_unordered_atomic_16+0x1774>
   83f40:	9100a000 	add	x0, x0, #0x28
   83f44:	b0000002 	adrp	x2, 84000 <kernel_main+0x1184>
   83f48:	91260042 	add	x2, x2, #0x980
   83f4c:	b0000003 	adrp	x3, 84000 <kernel_main+0x1184>
   83f50:	912e2063 	add	x3, x3, #0xb88
   83f54:	f9006fe8 	str	x8, [sp, #216]
   83f58:	910363e1 	add	x1, sp, #0xd8
   83f5c:	97fff43d 	bl	81050 <core::result::unwrap_failed>
   83f60:	d4200020 	brk	#0x1
   83f64:	9a891328 	csel	x8, x25, x9, ne  // ne = any
   83f68:	f0000000 	adrp	x0, 86000 <compiler_builtins::mem::__llvm_memset_element_unordered_atomic_16+0x1774>
   83f6c:	9100a000 	add	x0, x0, #0x28
   83f70:	b0000002 	adrp	x2, 84000 <kernel_main+0x1184>
   83f74:	91260042 	add	x2, x2, #0x980
   83f78:	b0000003 	adrp	x3, 84000 <kernel_main+0x1184>
   83f7c:	912e8063 	add	x3, x3, #0xba0
   83f80:	f9006fe8 	str	x8, [sp, #216]
   83f84:	910363e1 	add	x1, sp, #0xd8
   83f88:	97fff432 	bl	81050 <core::result::unwrap_failed>
   83f8c:	d4200020 	brk	#0x1
   83f90:	9a881328 	csel	x8, x25, x8, ne  // ne = any
   83f94:	f0000000 	adrp	x0, 86000 <compiler_builtins::mem::__llvm_memset_element_unordered_atomic_16+0x1774>
   83f98:	9100a000 	add	x0, x0, #0x28
   83f9c:	b0000002 	adrp	x2, 84000 <kernel_main+0x1184>
   83fa0:	91260042 	add	x2, x2, #0x980
   83fa4:	b0000003 	adrp	x3, 84000 <kernel_main+0x1184>
   83fa8:	912ee063 	add	x3, x3, #0xbb8
   83fac:	f9006fe8 	str	x8, [sp, #216]
   83fb0:	910363e1 	add	x1, sp, #0xd8
   83fb4:	97fff427 	bl	81050 <core::result::unwrap_failed>
   83fb8:	d4200020 	brk	#0x1
   83fbc:	9a891328 	csel	x8, x25, x9, ne  // ne = any
   83fc0:	f0000000 	adrp	x0, 86000 <compiler_builtins::mem::__llvm_memset_element_unordered_atomic_16+0x1774>
   83fc4:	9100a000 	add	x0, x0, #0x28
   83fc8:	b0000002 	adrp	x2, 84000 <kernel_main+0x1184>
   83fcc:	91260042 	add	x2, x2, #0x980
   83fd0:	b0000003 	adrp	x3, 84000 <kernel_main+0x1184>
   83fd4:	912f4063 	add	x3, x3, #0xbd0
   83fd8:	f9006fe8 	str	x8, [sp, #216]
   83fdc:	910363e1 	add	x1, sp, #0xd8
   83fe0:	97fff41c 	bl	81050 <core::result::unwrap_failed>
   83fe4:	d4200020 	brk	#0x1
   83fe8:	f100013f 	cmp	x9, #0x0
   83fec:	f0000000 	adrp	x0, 86000 <compiler_builtins::mem::__llvm_memset_element_unordered_atomic_16+0x1774>
   83ff0:	9100a000 	add	x0, x0, #0x28
   83ff4:	9a881328 	csel	x8, x25, x8, ne  // ne = any
   83ff8:	b0000002 	adrp	x2, 84000 <kernel_main+0x1184>
   83ffc:	91260042 	add	x2, x2, #0x980
   84000:	90000003 	adrp	x3, 84000 <kernel_main+0x1184>
   84004:	912fa063 	add	x3, x3, #0xbe8
   84008:	f9006fe8 	str	x8, [sp, #216]
   8400c:	910363e1 	add	x1, sp, #0xd8
   84010:	97fff410 	bl	81050 <core::result::unwrap_failed>
   84014:	d4200020 	brk	#0x1
   84018:	f9006ff9 	str	x25, [sp, #216]
   8401c:	d0000000 	adrp	x0, 86000 <compiler_builtins::mem::__llvm_memset_element_unordered_atomic_16+0x1774>
   84020:	9100a000 	add	x0, x0, #0x28
   84024:	90000002 	adrp	x2, 84000 <kernel_main+0x1184>
   84028:	91260042 	add	x2, x2, #0x980
   8402c:	90000003 	adrp	x3, 84000 <kernel_main+0x1184>
   84030:	91360063 	add	x3, x3, #0xd80
   84034:	910363e1 	add	x1, sp, #0xd8
   84038:	97fff406 	bl	81050 <core::result::unwrap_failed>
   8403c:	d4200020 	brk	#0x1
   84040:	d0000008 	adrp	x8, 86000 <compiler_builtins::mem::__llvm_memset_element_unordered_atomic_16+0x1774>
   84044:	91070108 	add	x8, x8, #0x1c0
   84048:	d0000000 	adrp	x0, 86000 <compiler_builtins::mem::__llvm_memset_element_unordered_atomic_16+0x1774>
   8404c:	9100a000 	add	x0, x0, #0x28
   84050:	b0000002 	adrp	x2, 85000 <compiler_builtins::mem::__llvm_memset_element_unordered_atomic_16+0x774>
   84054:	913ac042 	add	x2, x2, #0xeb0
   84058:	f9006fe8 	str	x8, [sp, #216]
   8405c:	b0000003 	adrp	x3, 85000 <compiler_builtins::mem::__llvm_memset_element_unordered_atomic_16+0x774>
   84060:	913c4063 	add	x3, x3, #0xf10
   84064:	910363e1 	add	x1, sp, #0xd8
   84068:	97fff3fa 	bl	81050 <core::result::unwrap_failed>
   8406c:	d4200020 	brk	#0x1
   84070:	f9006ff9 	str	x25, [sp, #216]
   84074:	17ffff49 	b	83d98 <kernel_main+0xf1c>
   84078:	d0000008 	adrp	x8, 86000 <compiler_builtins::mem::__llvm_memset_element_unordered_atomic_16+0x1774>
   8407c:	91086108 	add	x8, x8, #0x218
   84080:	f9006fe8 	str	x8, [sp, #216]
   84084:	d0000000 	adrp	x0, 86000 <compiler_builtins::mem::__llvm_memset_element_unordered_atomic_16+0x1774>
   84088:	9100a000 	add	x0, x0, #0x28
   8408c:	90000002 	adrp	x2, 84000 <kernel_main+0x1184>
   84090:	91260042 	add	x2, x2, #0x980
   84094:	90000003 	adrp	x3, 84000 <kernel_main+0x1184>
   84098:	91378063 	add	x3, x3, #0xde0
   8409c:	910363e1 	add	x1, sp, #0xd8
   840a0:	97fff3ec 	bl	81050 <core::result::unwrap_failed>
   840a4:	d4200020 	brk	#0x1
   840a8:	b0000000 	adrp	x0, 85000 <compiler_builtins::mem::__llvm_memset_element_unordered_atomic_16+0x774>
   840ac:	913d8000 	add	x0, x0, #0xf60
   840b0:	90000001 	adrp	x1, 84000 <kernel_main+0x1184>
   840b4:	913f0021 	add	x1, x1, #0xfc0
   840b8:	97fff2eb 	bl	80c64 <core::panicking::panic>
   840bc:	d4200020 	brk	#0x1

00000000000840c0 <memcpy>:
   840c0:	14000001 	b	840c4 <compiler_builtins::mem::memcpy>

00000000000840c4 <compiler_builtins::mem::memcpy>:
   840c4:	f1003c5f 	cmp	x2, #0xf
   840c8:	54000509 	b.ls	84168 <compiler_builtins::mem::memcpy+0xa4>  // b.plast
   840cc:	4b0003e8 	neg	w8, w0
   840d0:	f2400908 	ands	x8, x8, #0x7
   840d4:	8b080009 	add	x9, x0, x8
   840d8:	540000e0 	b.eq	840f4 <compiler_builtins::mem::memcpy+0x30>  // b.none
   840dc:	aa0003ea 	mov	x10, x0
   840e0:	aa0103eb 	mov	x11, x1
   840e4:	3840156c 	ldrb	w12, [x11], #1
   840e8:	3800154c 	strb	w12, [x10], #1
   840ec:	eb09015f 	cmp	x10, x9
   840f0:	54ffffa3 	b.cc	840e4 <compiler_builtins::mem::memcpy+0x20>  // b.lo, b.ul, b.last
   840f4:	cb08004a 	sub	x10, x2, x8
   840f8:	8b08002c 	add	x12, x1, x8
   840fc:	927df14b 	and	x11, x10, #0xfffffffffffffff8
   84100:	f240099f 	tst	x12, #0x7
   84104:	8b0b0128 	add	x8, x9, x11
   84108:	54000360 	b.eq	84174 <compiler_builtins::mem::memcpy+0xb0>  // b.none
   8410c:	f100057f 	cmp	x11, #0x1
   84110:	5400040b 	b.lt	84190 <compiler_builtins::mem::memcpy+0xcc>  // b.tstop
   84114:	aa0c03ed 	mov	x13, x12
   84118:	aa0d03ee 	mov	x14, x13
   8411c:	394015b1 	ldrb	w17, [x13, #5]
   84120:	394009b2 	ldrb	w18, [x13, #2]
   84124:	38404dcf 	ldrb	w15, [x14, #4]!
   84128:	39400dd0 	ldrb	w16, [x14, #3]
   8412c:	394009ce 	ldrb	w14, [x14, #2]
   84130:	33181e2f 	bfi	w15, w17, #8, #8
   84134:	394005b1 	ldrb	w17, [x13, #1]
   84138:	33181e0e 	bfi	w14, w16, #8, #8
   8413c:	39400db0 	ldrb	w16, [x13, #3]
   84140:	33103dcf 	bfi	w15, w14, #16, #16
   84144:	b3781e12 	bfi	x18, x16, #8, #8
   84148:	384085ae 	ldrb	w14, [x13], #8
   8414c:	b3781e2e 	bfi	x14, x17, #8, #8
   84150:	b3703e4e 	bfi	x14, x18, #16, #16
   84154:	b3607dee 	bfi	x14, x15, #32, #32
   84158:	f800852e 	str	x14, [x9], #8
   8415c:	eb08013f 	cmp	x9, x8
   84160:	54fffdc3 	b.cc	84118 <compiler_builtins::mem::memcpy+0x54>  // b.lo, b.ul, b.last
   84164:	1400000b 	b	84190 <compiler_builtins::mem::memcpy+0xcc>
   84168:	aa0003e8 	mov	x8, x0
   8416c:	b5000182 	cbnz	x2, 8419c <compiler_builtins::mem::memcpy+0xd8>
   84170:	14000010 	b	841b0 <compiler_builtins::mem::memcpy+0xec>
   84174:	f100057f 	cmp	x11, #0x1
   84178:	540000cb 	b.lt	84190 <compiler_builtins::mem::memcpy+0xcc>  // b.tstop
   8417c:	aa0c03ed 	mov	x13, x12
   84180:	f84085ae 	ldr	x14, [x13], #8
   84184:	f800852e 	str	x14, [x9], #8
   84188:	eb08013f 	cmp	x9, x8
   8418c:	54ffffa3 	b.cc	84180 <compiler_builtins::mem::memcpy+0xbc>  // b.lo, b.ul, b.last
   84190:	8b0b0181 	add	x1, x12, x11
   84194:	92400942 	and	x2, x10, #0x7
   84198:	b40000c2 	cbz	x2, 841b0 <compiler_builtins::mem::memcpy+0xec>
   8419c:	8b020109 	add	x9, x8, x2
   841a0:	3840142a 	ldrb	w10, [x1], #1
   841a4:	3800150a 	strb	w10, [x8], #1
   841a8:	eb09011f 	cmp	x8, x9
   841ac:	54ffffa3 	b.cc	841a0 <compiler_builtins::mem::memcpy+0xdc>  // b.lo, b.ul, b.last
   841b0:	d65f03c0 	ret

00000000000841b4 <compiler_builtins::mem::memmove>:
   841b4:	cb010008 	sub	x8, x0, x1
   841b8:	eb02011f 	cmp	x8, x2
   841bc:	540005a2 	b.cs	84270 <compiler_builtins::mem::memmove+0xbc>  // b.hs, b.nlast
   841c0:	8b020008 	add	x8, x0, x2
   841c4:	8b02002a 	add	x10, x1, x2
   841c8:	f1003c5f 	cmp	x2, #0xf
   841cc:	54000a49 	b.ls	84314 <compiler_builtins::mem::memmove+0x160>  // b.plast
   841d0:	9240090b 	and	x11, x8, #0x7
   841d4:	927df109 	and	x9, x8, #0xfffffffffffffff8
   841d8:	cb0b03ec 	neg	x12, x11
   841dc:	b40000eb 	cbz	x11, 841f8 <compiler_builtins::mem::memmove+0x44>
   841e0:	8b01004d 	add	x13, x2, x1
   841e4:	d10005ad 	sub	x13, x13, #0x1
   841e8:	385ff5ae 	ldrb	w14, [x13], #-1
   841ec:	381ffd0e 	strb	w14, [x8, #-1]!
   841f0:	eb08013f 	cmp	x9, x8
   841f4:	54ffffa3 	b.cc	841e8 <compiler_builtins::mem::memmove+0x34>  // b.lo, b.ul, b.last
   841f8:	8b0c014a 	add	x10, x10, x12
   841fc:	cb0b004c 	sub	x12, x2, x11
   84200:	927df188 	and	x8, x12, #0xfffffffffffffff8
   84204:	9240094d 	and	x13, x10, #0x7
   84208:	cb0803eb 	neg	x11, x8
   8420c:	cb080128 	sub	x8, x9, x8
   84210:	b40008cd 	cbz	x13, 84328 <compiler_builtins::mem::memmove+0x174>
   84214:	b6f8098b 	tbz	x11, #63, 84344 <compiler_builtins::mem::memmove+0x190>
   84218:	8b01018d 	add	x13, x12, x1
   8421c:	d10021ad 	sub	x13, x13, #0x8
   84220:	aa0d03ee 	mov	x14, x13
   84224:	394015b1 	ldrb	w17, [x13, #5]
   84228:	394009b2 	ldrb	w18, [x13, #2]
   8422c:	38404dcf 	ldrb	w15, [x14, #4]!
   84230:	39400dd0 	ldrb	w16, [x14, #3]
   84234:	394009ce 	ldrb	w14, [x14, #2]
   84238:	33181e2f 	bfi	w15, w17, #8, #8
   8423c:	394005b1 	ldrb	w17, [x13, #1]
   84240:	33181e0e 	bfi	w14, w16, #8, #8
   84244:	39400db0 	ldrb	w16, [x13, #3]
   84248:	33103dcf 	bfi	w15, w14, #16, #16
   8424c:	b3781e12 	bfi	x18, x16, #8, #8
   84250:	385f85ae 	ldrb	w14, [x13], #-8
   84254:	b3781e2e 	bfi	x14, x17, #8, #8
   84258:	b3703e4e 	bfi	x14, x18, #16, #16
   8425c:	b3607dee 	bfi	x14, x15, #32, #32
   84260:	f81f8d2e 	str	x14, [x9, #-8]!
   84264:	eb09011f 	cmp	x8, x9
   84268:	54fffdc3 	b.cc	84220 <compiler_builtins::mem::memmove+0x6c>  // b.lo, b.ul, b.last
   8426c:	14000036 	b	84344 <compiler_builtins::mem::memmove+0x190>
   84270:	f1003c5f 	cmp	x2, #0xf
   84274:	54000549 	b.ls	8431c <compiler_builtins::mem::memmove+0x168>  // b.plast
   84278:	4b0003e8 	neg	w8, w0
   8427c:	f2400908 	ands	x8, x8, #0x7
   84280:	8b080009 	add	x9, x0, x8
   84284:	540000e0 	b.eq	842a0 <compiler_builtins::mem::memmove+0xec>  // b.none
   84288:	aa0003ea 	mov	x10, x0
   8428c:	aa0103eb 	mov	x11, x1
   84290:	3840156c 	ldrb	w12, [x11], #1
   84294:	3800154c 	strb	w12, [x10], #1
   84298:	eb09015f 	cmp	x10, x9
   8429c:	54ffffa3 	b.cc	84290 <compiler_builtins::mem::memmove+0xdc>  // b.lo, b.ul, b.last
   842a0:	cb08004a 	sub	x10, x2, x8
   842a4:	8b08002c 	add	x12, x1, x8
   842a8:	927df14b 	and	x11, x10, #0xfffffffffffffff8
   842ac:	f240099f 	tst	x12, #0x7
   842b0:	8b0b0128 	add	x8, x9, x11
   842b4:	540005c0 	b.eq	8436c <compiler_builtins::mem::memmove+0x1b8>  // b.none
   842b8:	f100057f 	cmp	x11, #0x1
   842bc:	5400066b 	b.lt	84388 <compiler_builtins::mem::memmove+0x1d4>  // b.tstop
   842c0:	aa0c03ed 	mov	x13, x12
   842c4:	aa0d03ee 	mov	x14, x13
   842c8:	394015b1 	ldrb	w17, [x13, #5]
   842cc:	394009b2 	ldrb	w18, [x13, #2]
   842d0:	38404dcf 	ldrb	w15, [x14, #4]!
   842d4:	39400dd0 	ldrb	w16, [x14, #3]
   842d8:	394009ce 	ldrb	w14, [x14, #2]
   842dc:	33181e2f 	bfi	w15, w17, #8, #8
   842e0:	394005b1 	ldrb	w17, [x13, #1]
   842e4:	33181e0e 	bfi	w14, w16, #8, #8
   842e8:	39400db0 	ldrb	w16, [x13, #3]
   842ec:	33103dcf 	bfi	w15, w14, #16, #16
   842f0:	b3781e12 	bfi	x18, x16, #8, #8
   842f4:	384085ae 	ldrb	w14, [x13], #8
   842f8:	b3781e2e 	bfi	x14, x17, #8, #8
   842fc:	b3703e4e 	bfi	x14, x18, #16, #16
   84300:	b3607dee 	bfi	x14, x15, #32, #32
   84304:	f800852e 	str	x14, [x9], #8
   84308:	eb08013f 	cmp	x9, x8
   8430c:	54fffdc3 	b.cc	842c4 <compiler_builtins::mem::memmove+0x110>  // b.lo, b.ul, b.last
   84310:	1400001e 	b	84388 <compiler_builtins::mem::memmove+0x1d4>
   84314:	aa0003e9 	mov	x9, x0
   84318:	1400000f 	b	84354 <compiler_builtins::mem::memmove+0x1a0>
   8431c:	aa0003e8 	mov	x8, x0
   84320:	b50003a2 	cbnz	x2, 84394 <compiler_builtins::mem::memmove+0x1e0>
   84324:	14000021 	b	843a8 <compiler_builtins::mem::memmove+0x1f4>
   84328:	b6f800eb 	tbz	x11, #63, 84344 <compiler_builtins::mem::memmove+0x190>
   8432c:	8b01018d 	add	x13, x12, x1
   84330:	d10021ad 	sub	x13, x13, #0x8
   84334:	f85f85ae 	ldr	x14, [x13], #-8
   84338:	f81f8d2e 	str	x14, [x9, #-8]!
   8433c:	eb09011f 	cmp	x8, x9
   84340:	54ffffa3 	b.cc	84334 <compiler_builtins::mem::memmove+0x180>  // b.lo, b.ul, b.last
   84344:	92400989 	and	x9, x12, #0x7
   84348:	b4000309 	cbz	x9, 843a8 <compiler_builtins::mem::memmove+0x1f4>
   8434c:	8b0b014a 	add	x10, x10, x11
   84350:	cb090109 	sub	x9, x8, x9
   84354:	d100054a 	sub	x10, x10, #0x1
   84358:	385ff54b 	ldrb	w11, [x10], #-1
   8435c:	381ffd0b 	strb	w11, [x8, #-1]!
   84360:	eb08013f 	cmp	x9, x8
   84364:	54ffffa3 	b.cc	84358 <compiler_builtins::mem::memmove+0x1a4>  // b.lo, b.ul, b.last
   84368:	14000010 	b	843a8 <compiler_builtins::mem::memmove+0x1f4>
   8436c:	f100057f 	cmp	x11, #0x1
   84370:	540000cb 	b.lt	84388 <compiler_builtins::mem::memmove+0x1d4>  // b.tstop
   84374:	aa0c03ed 	mov	x13, x12
   84378:	f84085ae 	ldr	x14, [x13], #8
   8437c:	f800852e 	str	x14, [x9], #8
   84380:	eb08013f 	cmp	x9, x8
   84384:	54ffffa3 	b.cc	84378 <compiler_builtins::mem::memmove+0x1c4>  // b.lo, b.ul, b.last
   84388:	8b0b0181 	add	x1, x12, x11
   8438c:	92400942 	and	x2, x10, #0x7
   84390:	b40000c2 	cbz	x2, 843a8 <compiler_builtins::mem::memmove+0x1f4>
   84394:	8b020109 	add	x9, x8, x2
   84398:	3840142a 	ldrb	w10, [x1], #1
   8439c:	3800150a 	strb	w10, [x8], #1
   843a0:	eb09011f 	cmp	x8, x9
   843a4:	54ffffa3 	b.cc	84398 <compiler_builtins::mem::memmove+0x1e4>  // b.lo, b.ul, b.last
   843a8:	d65f03c0 	ret

00000000000843ac <compiler_builtins::mem::memset>:
   843ac:	f1003c5f 	cmp	x2, #0xf
   843b0:	540007c9 	b.ls	844a8 <compiler_builtins::mem::memset+0xfc>  // b.plast
   843b4:	4b0003e8 	neg	w8, w0
   843b8:	f240090a 	ands	x10, x8, #0x7
   843bc:	8b0a0008 	add	x8, x0, x10
   843c0:	540002a0 	b.eq	84414 <compiler_builtins::mem::memset+0x68>  // b.none
   843c4:	8b000149 	add	x9, x10, x0
   843c8:	9100040b 	add	x11, x0, #0x1
   843cc:	eb0b013f 	cmp	x9, x11
   843d0:	9a808529 	csinc	x9, x9, x0, hi  // hi = pmore
   843d4:	cb00012c 	sub	x12, x9, x0
   843d8:	aa0003e9 	mov	x9, x0
   843dc:	f100099f 	cmp	x12, #0x2
   843e0:	54000143 	b.cc	84408 <compiler_builtins::mem::memset+0x5c>  // b.lo, b.ul, b.last
   843e4:	927ff98d 	and	x13, x12, #0xfffffffffffffffe
   843e8:	8b0d0009 	add	x9, x0, x13
   843ec:	aa0d03ee 	mov	x14, x13
   843f0:	f10009ce 	subs	x14, x14, #0x2
   843f4:	381ff161 	sturb	w1, [x11, #-1]
   843f8:	38002561 	strb	w1, [x11], #2
   843fc:	54ffffa1 	b.ne	843f0 <compiler_builtins::mem::memset+0x44>  // b.any
   84400:	eb0d019f 	cmp	x12, x13
   84404:	54000080 	b.eq	84414 <compiler_builtins::mem::memset+0x68>  // b.none
   84408:	38001521 	strb	w1, [x9], #1
   8440c:	eb08013f 	cmp	x9, x8
   84410:	54ffffc3 	b.cc	84408 <compiler_builtins::mem::memset+0x5c>  // b.lo, b.ul, b.last
   84414:	cb0a004b 	sub	x11, x2, x10
   84418:	927df16c 	and	x12, x11, #0xfffffffffffffff8
   8441c:	8b0c0109 	add	x9, x8, x12
   84420:	f100059f 	cmp	x12, #0x1
   84424:	540003cb 	b.lt	8449c <compiler_builtins::mem::memset+0xf0>  // b.tstop
   84428:	12001c2d 	and	w13, w1, #0xff
   8442c:	3200c3ee 	mov	w14, #0x1010101             	// #16843009
   84430:	8b00018f 	add	x15, x12, x0
   84434:	8b000150 	add	x16, x10, x0
   84438:	1b0e7dac 	mul	w12, w13, w14
   8443c:	8b0a01ee 	add	x14, x15, x10
   84440:	9100220d 	add	x13, x16, #0x8
   84444:	aa2003ef 	mvn	x15, x0
   84448:	eb0d01df 	cmp	x14, x13
   8444c:	9a8d81ce 	csel	x14, x14, x13, hi  // hi = pmore
   84450:	8b0f01ce 	add	x14, x14, x15
   84454:	b3607d8c 	bfi	x12, x12, #32, #32
   84458:	cb0a01ca 	sub	x10, x14, x10
   8445c:	f100215f 	cmp	x10, #0x8
   84460:	54000183 	b.cc	84490 <compiler_builtins::mem::memset+0xe4>  // b.lo, b.ul, b.last
   84464:	d343fd4a 	lsr	x10, x10, #3
   84468:	9100054a 	add	x10, x10, #0x1
   8446c:	927ff14e 	and	x14, x10, #0x3ffffffffffffffe
   84470:	aa0e03ef 	mov	x15, x14
   84474:	8b0e0d08 	add	x8, x8, x14, lsl #3
   84478:	a93fb1ac 	stp	x12, x12, [x13, #-8]
   8447c:	910041ad 	add	x13, x13, #0x10
   84480:	f10009ef 	subs	x15, x15, #0x2
   84484:	54ffffa1 	b.ne	84478 <compiler_builtins::mem::memset+0xcc>  // b.any
   84488:	eb0e015f 	cmp	x10, x14
   8448c:	54000080 	b.eq	8449c <compiler_builtins::mem::memset+0xf0>  // b.none
   84490:	f800850c 	str	x12, [x8], #8
   84494:	eb09011f 	cmp	x8, x9
   84498:	54ffffc3 	b.cc	84490 <compiler_builtins::mem::memset+0xe4>  // b.lo, b.ul, b.last
   8449c:	92400962 	and	x2, x11, #0x7
   844a0:	b5000082 	cbnz	x2, 844b0 <compiler_builtins::mem::memset+0x104>
   844a4:	14000018 	b	84504 <compiler_builtins::mem::memset+0x158>
   844a8:	aa0003e9 	mov	x9, x0
   844ac:	b40002c2 	cbz	x2, 84504 <compiler_builtins::mem::memset+0x158>
   844b0:	8b090048 	add	x8, x2, x9
   844b4:	9100052a 	add	x10, x9, #0x1
   844b8:	eb0a011f 	cmp	x8, x10
   844bc:	9a898508 	csinc	x8, x8, x9, hi  // hi = pmore
   844c0:	cb09010b 	sub	x11, x8, x9
   844c4:	aa0903e8 	mov	x8, x9
   844c8:	f100097f 	cmp	x11, #0x2
   844cc:	54000143 	b.cc	844f4 <compiler_builtins::mem::memset+0x148>  // b.lo, b.ul, b.last
   844d0:	927ff96c 	and	x12, x11, #0xfffffffffffffffe
   844d4:	8b0c0128 	add	x8, x9, x12
   844d8:	aa0c03ed 	mov	x13, x12
   844dc:	f10009ad 	subs	x13, x13, #0x2
   844e0:	381ff141 	sturb	w1, [x10, #-1]
   844e4:	38002541 	strb	w1, [x10], #2
   844e8:	54ffffa1 	b.ne	844dc <compiler_builtins::mem::memset+0x130>  // b.any
   844ec:	eb0c017f 	cmp	x11, x12
   844f0:	540000a0 	b.eq	84504 <compiler_builtins::mem::memset+0x158>  // b.none
   844f4:	8b020129 	add	x9, x9, x2
   844f8:	38001501 	strb	w1, [x8], #1
   844fc:	eb09011f 	cmp	x8, x9
   84500:	54ffffc3 	b.cc	844f8 <compiler_builtins::mem::memset+0x14c>  // b.lo, b.ul, b.last
   84504:	d65f03c0 	ret

0000000000084508 <compiler_builtins::mem::memcmp>:
   84508:	b4000122 	cbz	x2, 8452c <compiler_builtins::mem::memcmp+0x24>
   8450c:	39400008 	ldrb	w8, [x0]
   84510:	39400029 	ldrb	w9, [x1]
   84514:	6b090108 	subs	w8, w8, w9
   84518:	540000e1 	b.ne	84534 <compiler_builtins::mem::memcmp+0x2c>  // b.any
   8451c:	91000421 	add	x1, x1, #0x1
   84520:	91000400 	add	x0, x0, #0x1
   84524:	f1000442 	subs	x2, x2, #0x1
   84528:	54ffff21 	b.ne	8450c <compiler_builtins::mem::memcmp+0x4>  // b.any
   8452c:	2a1f03e0 	mov	w0, wzr
   84530:	d65f03c0 	ret
   84534:	2a0803e0 	mov	w0, w8
   84538:	d65f03c0 	ret

000000000008453c <compiler_builtins::mem::bcmp>:
   8453c:	17fffff3 	b	84508 <compiler_builtins::mem::memcmp>

0000000000084540 <compiler_builtins::mem::strlen>:
   84540:	39400008 	ldrb	w8, [x0]
   84544:	34000108 	cbz	w8, 84564 <compiler_builtins::mem::strlen+0x24>
   84548:	aa1f03e9 	mov	x9, xzr
   8454c:	91000408 	add	x8, x0, #0x1
   84550:	91000520 	add	x0, x9, #0x1
   84554:	3869690a 	ldrb	w10, [x8, x9]
   84558:	aa0003e9 	mov	x9, x0
   8455c:	35ffffaa 	cbnz	w10, 84550 <compiler_builtins::mem::strlen+0x10>
   84560:	d65f03c0 	ret
   84564:	aa1f03e0 	mov	x0, xzr
   84568:	d65f03c0 	ret

000000000008456c <compiler_builtins::mem::__llvm_memcpy_element_unordered_atomic_1>:
   8456c:	b40000a2 	cbz	x2, 84580 <compiler_builtins::mem::__llvm_memcpy_element_unordered_atomic_1+0x14>
   84570:	38401428 	ldrb	w8, [x1], #1
   84574:	f1000442 	subs	x2, x2, #0x1
   84578:	38001408 	strb	w8, [x0], #1
   8457c:	54ffffa1 	b.ne	84570 <compiler_builtins::mem::__llvm_memcpy_element_unordered_atomic_1+0x4>  // b.any
   84580:	d65f03c0 	ret

0000000000084584 <compiler_builtins::mem::__llvm_memcpy_element_unordered_atomic_2>:
   84584:	b4000102 	cbz	x2, 845a4 <compiler_builtins::mem::__llvm_memcpy_element_unordered_atomic_2+0x20>
   84588:	d341fc48 	lsr	x8, x2, #1
   8458c:	f100051f 	cmp	x8, #0x1
   84590:	9a9f8508 	csinc	x8, x8, xzr, hi  // hi = pmore
   84594:	78402429 	ldrh	w9, [x1], #2
   84598:	f1000508 	subs	x8, x8, #0x1
   8459c:	78002409 	strh	w9, [x0], #2
   845a0:	54ffffa1 	b.ne	84594 <compiler_builtins::mem::__llvm_memcpy_element_unordered_atomic_2+0x10>  // b.any
   845a4:	d65f03c0 	ret

00000000000845a8 <compiler_builtins::mem::__llvm_memcpy_element_unordered_atomic_4>:
   845a8:	b4000102 	cbz	x2, 845c8 <compiler_builtins::mem::__llvm_memcpy_element_unordered_atomic_4+0x20>
   845ac:	d342fc48 	lsr	x8, x2, #2
   845b0:	f100051f 	cmp	x8, #0x1
   845b4:	9a9f8508 	csinc	x8, x8, xzr, hi  // hi = pmore
   845b8:	b8404429 	ldr	w9, [x1], #4
   845bc:	f1000508 	subs	x8, x8, #0x1
   845c0:	b8004409 	str	w9, [x0], #4
   845c4:	54ffffa1 	b.ne	845b8 <compiler_builtins::mem::__llvm_memcpy_element_unordered_atomic_4+0x10>  // b.any
   845c8:	d65f03c0 	ret

00000000000845cc <compiler_builtins::mem::__llvm_memcpy_element_unordered_atomic_8>:
   845cc:	b4000102 	cbz	x2, 845ec <compiler_builtins::mem::__llvm_memcpy_element_unordered_atomic_8+0x20>
   845d0:	d343fc48 	lsr	x8, x2, #3
   845d4:	f100051f 	cmp	x8, #0x1
   845d8:	9a9f8508 	csinc	x8, x8, xzr, hi  // hi = pmore
   845dc:	f8408429 	ldr	x9, [x1], #8
   845e0:	f1000508 	subs	x8, x8, #0x1
   845e4:	f8008409 	str	x9, [x0], #8
   845e8:	54ffffa1 	b.ne	845dc <compiler_builtins::mem::__llvm_memcpy_element_unordered_atomic_8+0x10>  // b.any
   845ec:	d65f03c0 	ret

00000000000845f0 <compiler_builtins::mem::__llvm_memcpy_element_unordered_atomic_16>:
   845f0:	b4000222 	cbz	x2, 84634 <compiler_builtins::mem::__llvm_memcpy_element_unordered_atomic_16+0x44>
   845f4:	d344fc49 	lsr	x9, x2, #4
   845f8:	aa1f03e8 	mov	x8, xzr
   845fc:	f100053f 	cmp	x9, #0x1
   84600:	9a9f8529 	csinc	x9, x9, xzr, hi  // hi = pmore
   84604:	d37ced0b 	lsl	x11, x8, #4
   84608:	8b0b000a 	add	x10, x0, x11
   8460c:	8b0b002d 	add	x13, x1, x11
   84610:	c87f31ab 	ldxp	x11, x12, [x13]
   84614:	c82e31ab 	stxp	w14, x11, x12, [x13]
   84618:	35ffffce 	cbnz	w14, 84610 <compiler_builtins::mem::__llvm_memcpy_element_unordered_atomic_16+0x20>
   8461c:	c87f355f 	ldxp	xzr, x13, [x10]
   84620:	c82d314b 	stxp	w13, x11, x12, [x10]
   84624:	35ffffcd 	cbnz	w13, 8461c <compiler_builtins::mem::__llvm_memcpy_element_unordered_atomic_16+0x2c>
   84628:	91000508 	add	x8, x8, #0x1
   8462c:	eb09011f 	cmp	x8, x9
   84630:	54fffea1 	b.ne	84604 <compiler_builtins::mem::__llvm_memcpy_element_unordered_atomic_16+0x14>  // b.any
   84634:	d65f03c0 	ret

0000000000084638 <compiler_builtins::mem::__llvm_memmove_element_unordered_atomic_1>:
   84638:	eb00003f 	cmp	x1, x0
   8463c:	54000142 	b.cs	84664 <compiler_builtins::mem::__llvm_memmove_element_unordered_atomic_1+0x2c>  // b.hs, b.nlast
   84640:	b40001c2 	cbz	x2, 84678 <compiler_builtins::mem::__llvm_memmove_element_unordered_atomic_1+0x40>
   84644:	d1000408 	sub	x8, x0, #0x1
   84648:	d1000429 	sub	x9, x1, #0x1
   8464c:	3862692a 	ldrb	w10, [x9, x2]
   84650:	f100044b 	subs	x11, x2, #0x1
   84654:	3822690a 	strb	w10, [x8, x2]
   84658:	aa0b03e2 	mov	x2, x11
   8465c:	54ffff81 	b.ne	8464c <compiler_builtins::mem::__llvm_memmove_element_unordered_atomic_1+0x14>  // b.any
   84660:	14000006 	b	84678 <compiler_builtins::mem::__llvm_memmove_element_unordered_atomic_1+0x40>
   84664:	b40000a2 	cbz	x2, 84678 <compiler_builtins::mem::__llvm_memmove_element_unordered_atomic_1+0x40>
   84668:	38401428 	ldrb	w8, [x1], #1
   8466c:	f1000442 	subs	x2, x2, #0x1
   84670:	38001408 	strb	w8, [x0], #1
   84674:	54ffffa1 	b.ne	84668 <compiler_builtins::mem::__llvm_memmove_element_unordered_atomic_1+0x30>  // b.any
   84678:	d65f03c0 	ret

000000000008467c <compiler_builtins::mem::__llvm_memmove_element_unordered_atomic_2>:
   8467c:	d341fc48 	lsr	x8, x2, #1
   84680:	eb00003f 	cmp	x1, x0
   84684:	54000142 	b.cs	846ac <compiler_builtins::mem::__llvm_memmove_element_unordered_atomic_2+0x30>  // b.hs, b.nlast
   84688:	b4000202 	cbz	x2, 846c8 <compiler_builtins::mem::__llvm_memmove_element_unordered_atomic_2+0x4c>
   8468c:	d1000809 	sub	x9, x0, #0x2
   84690:	d100082a 	sub	x10, x1, #0x2
   84694:	d37ff90b 	lsl	x11, x8, #1
   84698:	f1000508 	subs	x8, x8, #0x1
   8469c:	786b694c 	ldrh	w12, [x10, x11]
   846a0:	782b692c 	strh	w12, [x9, x11]
   846a4:	54ffff81 	b.ne	84694 <compiler_builtins::mem::__llvm_memmove_element_unordered_atomic_2+0x18>  // b.any
   846a8:	14000008 	b	846c8 <compiler_builtins::mem::__llvm_memmove_element_unordered_atomic_2+0x4c>
   846ac:	b40000e2 	cbz	x2, 846c8 <compiler_builtins::mem::__llvm_memmove_element_unordered_atomic_2+0x4c>
   846b0:	f100051f 	cmp	x8, #0x1
   846b4:	9a9f8508 	csinc	x8, x8, xzr, hi  // hi = pmore
   846b8:	78402429 	ldrh	w9, [x1], #2
   846bc:	f1000508 	subs	x8, x8, #0x1
   846c0:	78002409 	strh	w9, [x0], #2
   846c4:	54ffffa1 	b.ne	846b8 <compiler_builtins::mem::__llvm_memmove_element_unordered_atomic_2+0x3c>  // b.any
   846c8:	d65f03c0 	ret

00000000000846cc <compiler_builtins::mem::__llvm_memmove_element_unordered_atomic_4>:
   846cc:	d342fc48 	lsr	x8, x2, #2
   846d0:	eb00003f 	cmp	x1, x0
   846d4:	54000142 	b.cs	846fc <compiler_builtins::mem::__llvm_memmove_element_unordered_atomic_4+0x30>  // b.hs, b.nlast
   846d8:	b4000202 	cbz	x2, 84718 <compiler_builtins::mem::__llvm_memmove_element_unordered_atomic_4+0x4c>
   846dc:	d1001009 	sub	x9, x0, #0x4
   846e0:	d100102a 	sub	x10, x1, #0x4
   846e4:	d37ef50b 	lsl	x11, x8, #2
   846e8:	f1000508 	subs	x8, x8, #0x1
   846ec:	b86b694c 	ldr	w12, [x10, x11]
   846f0:	b82b692c 	str	w12, [x9, x11]
   846f4:	54ffff81 	b.ne	846e4 <compiler_builtins::mem::__llvm_memmove_element_unordered_atomic_4+0x18>  // b.any
   846f8:	14000008 	b	84718 <compiler_builtins::mem::__llvm_memmove_element_unordered_atomic_4+0x4c>
   846fc:	b40000e2 	cbz	x2, 84718 <compiler_builtins::mem::__llvm_memmove_element_unordered_atomic_4+0x4c>
   84700:	f100051f 	cmp	x8, #0x1
   84704:	9a9f8508 	csinc	x8, x8, xzr, hi  // hi = pmore
   84708:	b8404429 	ldr	w9, [x1], #4
   8470c:	f1000508 	subs	x8, x8, #0x1
   84710:	b8004409 	str	w9, [x0], #4
   84714:	54ffffa1 	b.ne	84708 <compiler_builtins::mem::__llvm_memmove_element_unordered_atomic_4+0x3c>  // b.any
   84718:	d65f03c0 	ret

000000000008471c <compiler_builtins::mem::__llvm_memmove_element_unordered_atomic_8>:
   8471c:	d343fc48 	lsr	x8, x2, #3
   84720:	eb00003f 	cmp	x1, x0
   84724:	54000142 	b.cs	8474c <compiler_builtins::mem::__llvm_memmove_element_unordered_atomic_8+0x30>  // b.hs, b.nlast
   84728:	b4000202 	cbz	x2, 84768 <compiler_builtins::mem::__llvm_memmove_element_unordered_atomic_8+0x4c>
   8472c:	d1002009 	sub	x9, x0, #0x8
   84730:	d100202a 	sub	x10, x1, #0x8
   84734:	d37df10b 	lsl	x11, x8, #3
   84738:	f1000508 	subs	x8, x8, #0x1
   8473c:	f86b694c 	ldr	x12, [x10, x11]
   84740:	f82b692c 	str	x12, [x9, x11]
   84744:	54ffff81 	b.ne	84734 <compiler_builtins::mem::__llvm_memmove_element_unordered_atomic_8+0x18>  // b.any
   84748:	14000008 	b	84768 <compiler_builtins::mem::__llvm_memmove_element_unordered_atomic_8+0x4c>
   8474c:	b40000e2 	cbz	x2, 84768 <compiler_builtins::mem::__llvm_memmove_element_unordered_atomic_8+0x4c>
   84750:	f100051f 	cmp	x8, #0x1
   84754:	9a9f8508 	csinc	x8, x8, xzr, hi  // hi = pmore
   84758:	f8408429 	ldr	x9, [x1], #8
   8475c:	f1000508 	subs	x8, x8, #0x1
   84760:	f8008409 	str	x9, [x0], #8
   84764:	54ffffa1 	b.ne	84758 <compiler_builtins::mem::__llvm_memmove_element_unordered_atomic_8+0x3c>  // b.any
   84768:	d65f03c0 	ret

000000000008476c <compiler_builtins::mem::__llvm_memmove_element_unordered_atomic_16>:
   8476c:	d344fc48 	lsr	x8, x2, #4
   84770:	eb00003f 	cmp	x1, x0
   84774:	54000202 	b.cs	847b4 <compiler_builtins::mem::__llvm_memmove_element_unordered_atomic_16+0x48>  // b.hs, b.nlast
   84778:	b40003e2 	cbz	x2, 847f4 <compiler_builtins::mem::__llvm_memmove_element_unordered_atomic_16+0x88>
   8477c:	d1004009 	sub	x9, x0, #0x10
   84780:	d100402a 	sub	x10, x1, #0x10
   84784:	d37ced0c 	lsl	x12, x8, #4
   84788:	d1000508 	sub	x8, x8, #0x1
   8478c:	8b0c012b 	add	x11, x9, x12
   84790:	8b0c014e 	add	x14, x10, x12
   84794:	c87f35cc 	ldxp	x12, x13, [x14]
   84798:	c82f35cc 	stxp	w15, x12, x13, [x14]
   8479c:	35ffffcf 	cbnz	w15, 84794 <compiler_builtins::mem::__llvm_memmove_element_unordered_atomic_16+0x28>
   847a0:	c87f397f 	ldxp	xzr, x14, [x11]
   847a4:	c82e356c 	stxp	w14, x12, x13, [x11]
   847a8:	35ffffce 	cbnz	w14, 847a0 <compiler_builtins::mem::__llvm_memmove_element_unordered_atomic_16+0x34>
   847ac:	b5fffec8 	cbnz	x8, 84784 <compiler_builtins::mem::__llvm_memmove_element_unordered_atomic_16+0x18>
   847b0:	14000011 	b	847f4 <compiler_builtins::mem::__llvm_memmove_element_unordered_atomic_16+0x88>
   847b4:	b4000202 	cbz	x2, 847f4 <compiler_builtins::mem::__llvm_memmove_element_unordered_atomic_16+0x88>
   847b8:	f100051f 	cmp	x8, #0x1
   847bc:	aa1f03e9 	mov	x9, xzr
   847c0:	9a9f8508 	csinc	x8, x8, xzr, hi  // hi = pmore
   847c4:	d37ced2b 	lsl	x11, x9, #4
   847c8:	8b0b000a 	add	x10, x0, x11
   847cc:	8b0b002d 	add	x13, x1, x11
   847d0:	c87f31ab 	ldxp	x11, x12, [x13]
   847d4:	c82e31ab 	stxp	w14, x11, x12, [x13]
   847d8:	35ffffce 	cbnz	w14, 847d0 <compiler_builtins::mem::__llvm_memmove_element_unordered_atomic_16+0x64>
   847dc:	c87f355f 	ldxp	xzr, x13, [x10]
   847e0:	c82d314b 	stxp	w13, x11, x12, [x10]
   847e4:	35ffffcd 	cbnz	w13, 847dc <compiler_builtins::mem::__llvm_memmove_element_unordered_atomic_16+0x70>
   847e8:	91000529 	add	x9, x9, #0x1
   847ec:	eb08013f 	cmp	x9, x8
   847f0:	54fffea1 	b.ne	847c4 <compiler_builtins::mem::__llvm_memmove_element_unordered_atomic_16+0x58>  // b.any
   847f4:	d65f03c0 	ret

00000000000847f8 <compiler_builtins::mem::__llvm_memset_element_unordered_atomic_1>:
   847f8:	b4000082 	cbz	x2, 84808 <compiler_builtins::mem::__llvm_memset_element_unordered_atomic_1+0x10>
   847fc:	f1000442 	subs	x2, x2, #0x1
   84800:	38001401 	strb	w1, [x0], #1
   84804:	54ffffc1 	b.ne	847fc <compiler_builtins::mem::__llvm_memset_element_unordered_atomic_1+0x4>  // b.any
   84808:	d65f03c0 	ret

000000000008480c <compiler_builtins::mem::__llvm_memset_element_unordered_atomic_2>:
   8480c:	b4000122 	cbz	x2, 84830 <compiler_builtins::mem::__llvm_memset_element_unordered_atomic_2+0x24>
   84810:	12001c28 	and	w8, w1, #0xff
   84814:	d341fc49 	lsr	x9, x2, #1
   84818:	f100053f 	cmp	x9, #0x1
   8481c:	9a9f8529 	csinc	x9, x9, xzr, hi  // hi = pmore
   84820:	33181d08 	bfi	w8, w8, #8, #8
   84824:	f1000529 	subs	x9, x9, #0x1
   84828:	78002408 	strh	w8, [x0], #2
   8482c:	54ffffc1 	b.ne	84824 <compiler_builtins::mem::__llvm_memset_element_unordered_atomic_2+0x18>  // b.any
   84830:	d65f03c0 	ret

0000000000084834 <compiler_builtins::mem::__llvm_memset_element_unordered_atomic_4>:
   84834:	b4000142 	cbz	x2, 8485c <compiler_builtins::mem::__llvm_memset_element_unordered_atomic_4+0x28>
   84838:	12001c28 	and	w8, w1, #0xff
   8483c:	3200c3e9 	mov	w9, #0x1010101             	// #16843009
   84840:	d342fc4a 	lsr	x10, x2, #2
   84844:	1b097d08 	mul	w8, w8, w9
   84848:	f100055f 	cmp	x10, #0x1
   8484c:	9a9f8549 	csinc	x9, x10, xzr, hi  // hi = pmore
   84850:	f1000529 	subs	x9, x9, #0x1
   84854:	b8004408 	str	w8, [x0], #4
   84858:	54ffffc1 	b.ne	84850 <compiler_builtins::mem::__llvm_memset_element_unordered_atomic_4+0x1c>  // b.any
   8485c:	d65f03c0 	ret

0000000000084860 <compiler_builtins::mem::__llvm_memset_element_unordered_atomic_8>:
   84860:	b4000142 	cbz	x2, 84888 <compiler_builtins::mem::__llvm_memset_element_unordered_atomic_8+0x28>
   84864:	92401c28 	and	x8, x1, #0xff
   84868:	b200c3e9 	mov	x9, #0x101010101010101     	// #72340172838076673
   8486c:	d343fc4a 	lsr	x10, x2, #3
   84870:	9b097d08 	mul	x8, x8, x9
   84874:	f100055f 	cmp	x10, #0x1
   84878:	9a9f8549 	csinc	x9, x10, xzr, hi  // hi = pmore
   8487c:	f1000529 	subs	x9, x9, #0x1
   84880:	f8008408 	str	x8, [x0], #8
   84884:	54ffffc1 	b.ne	8487c <compiler_builtins::mem::__llvm_memset_element_unordered_atomic_8+0x1c>  // b.any
   84888:	d65f03c0 	ret

000000000008488c <compiler_builtins::mem::__llvm_memset_element_unordered_atomic_16>:
   8488c:	b40001e2 	cbz	x2, 848c8 <compiler_builtins::mem::__llvm_memset_element_unordered_atomic_16+0x3c>
   84890:	92401c29 	and	x9, x1, #0xff
   84894:	b200c3ea 	mov	x10, #0x101010101010101     	// #72340172838076673
   84898:	d344fc4b 	lsr	x11, x2, #4
   8489c:	aa1f03e8 	mov	x8, xzr
   848a0:	9b0a7d29 	mul	x9, x9, x10
   848a4:	f100057f 	cmp	x11, #0x1
   848a8:	9a9f856a 	csinc	x10, x11, xzr, hi  // hi = pmore
   848ac:	8b08100b 	add	x11, x0, x8, lsl #4
   848b0:	c87f317f 	ldxp	xzr, x12, [x11]
   848b4:	c82c2569 	stxp	w12, x9, x9, [x11]
   848b8:	35ffffcc 	cbnz	w12, 848b0 <compiler_builtins::mem::__llvm_memset_element_unordered_atomic_16+0x24>
   848bc:	91000508 	add	x8, x8, #0x1
   848c0:	eb0a011f 	cmp	x8, x10
   848c4:	54ffff41 	b.ne	848ac <compiler_builtins::mem::__llvm_memset_element_unordered_atomic_16+0x20>  // b.any
   848c8:	d65f03c0 	ret
[36m
Compiling kernel static lib - rpi4
(B[m[36m
Linking kernel ELF - rpi4
(B[m[36m
Launching objdump
(B[m
target/aarch64-unknown-none-softfloat/release/kernel:     file format elf64-littleaarch64


Disassembly of section .text:

0000000000080000 <_start>:
   80000:	d5384240 	mrs	x0, currentel
   80004:	f100201f 	cmp	x0, #0x8
   80008:	54000301 	b.ne	80068 <_start+0x68>  // b.any
   8000c:	d53800a1 	mrs	x1, mpidr_el1
   80010:	92400421 	and	x1, x1, #0x3
   80014:	580003a2 	ldr	x2, 80088 <BOOT_CORE_ID>
   80018:	eb02003f 	cmp	x1, x2
   8001c:	54000261 	b.ne	80068 <_start+0x68>  // b.any
   80020:	90000040 	adrp	x0, 88000 <libkernel::bsp::device_driver::mini_uart::MINI_UART>
   80024:	91000000 	add	x0, x0, #0x0
   80028:	b0000041 	adrp	x1, 89000 <__bss_end_exclusive>
   8002c:	91000021 	add	x1, x1, #0x0
   80030:	eb01001f 	cmp	x0, x1
   80034:	54000060 	b.eq	80040 <_start+0x40>  // b.none
   80038:	a8817c1f 	stp	xzr, xzr, [x0], #16
   8003c:	17fffffd 	b	80030 <_start+0x30>
   80040:	90000000 	adrp	x0, 80000 <_start>
   80044:	91000000 	add	x0, x0, #0x0
   80048:	9100001f 	mov	sp, x0
   8004c:	b0000040 	adrp	x0, 89000 <__bss_end_exclusive>
   80050:	91000000 	add	x0, x0, #0x0
   80054:	91400401 	add	x1, x0, #0x1, lsl #12
   80058:	a8817c1f 	stp	xzr, xzr, [x0], #16
   8005c:	eb01001f 	cmp	x0, x1
   80060:	54ffffc1 	b.ne	80058 <_start+0x58>  // b.any
   80064:	1400000b 	b	80090 <_start_rust>
   80068:	d503205f 	wfe
   8006c:	17ffffff 	b	80068 <_start+0x68>

0000000000080070 <clear_frame>:
   80070:	91400401 	add	x1, x0, #0x1, lsl #12
   80074:	a8817c1f 	stp	xzr, xzr, [x0], #16
   80078:	eb01001f 	cmp	x0, x1
   8007c:	54ffffc1 	b.ne	80074 <clear_frame+0x4>  // b.any
   80080:	d65f03c0 	ret
   80084:	00000000 	udf	#0

0000000000080088 <BOOT_CORE_ID>:
	...

0000000000080090 <_start_rust>:
   80090:	52800069 	mov	w9, #0x3                   	// #3
   80094:	aa1f03e8 	mov	x8, xzr
   80098:	d51ce109 	msr	cnthctl_el2, x9
   8009c:	b0000049 	adrp	x9, 89000 <__bss_end_exclusive>
   800a0:	91000129 	add	x9, x9, #0x0
   800a4:	d51ce068 	msr	cntvoff_el2, x8
   800a8:	d341bd28 	ubfx	x8, x9, #1, #47
   800ac:	52b0000a 	mov	w10, #0x80000000            	// #-2147483648
   800b0:	9000002b 	adrp	x11, 84000 <rust_begin_unwind+0xb4>
   800b4:	9100416b 	add	x11, x11, #0x10
   800b8:	528078ac 	mov	w12, #0x3c5                 	// #965
   800bc:	d51c110a 	msr	hcr_el2, x10
   800c0:	d37ff908 	lsl	x8, x8, #1
   800c4:	d51c400c 	msr	spsr_el2, x12
   800c8:	d51c402b 	msr	elr_el2, x11
   800cc:	90000009 	adrp	x9, 80000 <_start>
   800d0:	91000129 	add	x9, x9, #0x0
   800d4:	d51c4109 	msr	sp_el1, x9
   800d8:	d5182008 	msr	ttbr0_el1, x8
   800dc:	d69f03e0 	eret
   800e0:	d4200020 	brk	#0x1

00000000000800e4 <core::ops::function::FnOnce::call_once>:
   800e4:	f940001f 	ldr	xzr, [x0]
   800e8:	14000000 	b	800e8 <core::ops::function::FnOnce::call_once+0x4>

00000000000800ec <core::panicking::panic_fmt>:
   800ec:	d100c3ff 	sub	sp, sp, #0x30
   800f0:	d0000028 	adrp	x8, 86000 <compiler_builtins::mem::__llvm_memset_element_unordered_atomic_16+0x170c>
   800f4:	910cc108 	add	x8, x8, #0x330
   800f8:	b0000029 	adrp	x9, 85000 <compiler_builtins::mem::__llvm_memset_element_unordered_atomic_16+0x70c>
   800fc:	91018129 	add	x9, x9, #0x60
   80100:	a90187e0 	stp	x0, x1, [sp, #24]
   80104:	910023e0 	add	x0, sp, #0x8
   80108:	a900a7e8 	stp	x8, x9, [sp, #8]
   8010c:	52800028 	mov	w8, #0x1                   	// #1
   80110:	3900a3e8 	strb	w8, [sp, #40]
   80114:	94000f8e 	bl	83f4c <rust_begin_unwind>
   80118:	d4200020 	brk	#0x1

000000000008011c <core::ptr::drop_in_place<&core::iter::adapters::copied::Copied<core::slice::iter::Iter<u8>>>>:
   8011c:	d65f03c0 	ret

0000000000080120 <<T as core::any::Any>::type_id>:
   80120:	d29887e0 	mov	x0, #0xc43f                	// #50239
   80124:	f2b8daa0 	movk	x0, #0xc6d5, lsl #16
   80128:	f2deb3c0 	movk	x0, #0xf59e, lsl #32
   8012c:	f2eddc20 	movk	x0, #0x6ee1, lsl #48
   80130:	d65f03c0 	ret

0000000000080134 <core::fmt::num::imp::<impl core::fmt::Display for u64>::fmt>:
   80134:	d10103ff 	sub	sp, sp, #0x40
   80138:	f9001bfe 	str	x30, [sp, #48]
   8013c:	f940000a 	ldr	x10, [x0]
   80140:	aa0103e8 	mov	x8, x1
   80144:	d344fd49 	lsr	x9, x10, #4
   80148:	f109c53f 	cmp	x9, #0x271
   8014c:	b0000029 	adrp	x9, 85000 <compiler_builtins::mem::__llvm_memset_element_unordered_atomic_16+0x70c>
   80150:	91045129 	add	x9, x9, #0x114
   80154:	540004e3 	b.cc	801f0 <core::fmt::num::imp::<impl core::fmt::Display for u64>::fmt+0xbc>  // b.lo, b.ul, b.last
   80158:	d28b296b 	mov	x11, #0x594b                	// #22859
   8015c:	529c1ff0 	mov	w16, #0xe0ff                	// #57599
   80160:	f2a710cb 	movk	x11, #0x3886, lsl #16
   80164:	aa1f03f1 	mov	x17, xzr
   80168:	f2d8bacb 	movk	x11, #0xc5d6, lsl #32
   8016c:	529b1e0c 	mov	w12, #0xd8f0                	// #55536
   80170:	f2e68dab 	movk	x11, #0x346d, lsl #48
   80174:	52828f6d 	mov	w13, #0x147b                	// #5243
   80178:	12800c6e 	mov	w14, #0xffffff9c            	// #-100
   8017c:	910023ef 	add	x15, sp, #0x8
   80180:	72a0beb0 	movk	w16, #0x5f5, lsl #16
   80184:	aa0a03e0 	mov	x0, x10
   80188:	9bcb7d4a 	umulh	x10, x10, x11
   8018c:	eb10001f 	cmp	x0, x16
   80190:	d34bfd4a 	lsr	x10, x10, #11
   80194:	1b0c0152 	madd	w18, w10, w12, w0
   80198:	53023e41 	ubfx	w1, w18, #2, #14
   8019c:	1b0d7c21 	mul	w1, w1, w13
   801a0:	53117c21 	lsr	w1, w1, #17
   801a4:	1b0e4822 	madd	w2, w1, w14, w18
   801a8:	8b214521 	add	x1, x9, w1, uxtw #1
   801ac:	aa1103f2 	mov	x18, x17
   801b0:	8b222531 	add	x17, x9, w2, uxth #1
   801b4:	8b1201e2 	add	x2, x15, x18
   801b8:	39400423 	ldrb	w3, [x1, #1]
   801bc:	39400021 	ldrb	w1, [x1]
   801c0:	39400624 	ldrb	w4, [x17, #1]
   801c4:	39009043 	strb	w3, [x2, #36]
   801c8:	39400223 	ldrb	w3, [x17]
   801cc:	d1001251 	sub	x17, x18, #0x4
   801d0:	39008c41 	strb	w1, [x2, #35]
   801d4:	39009844 	strb	w4, [x2, #38]
   801d8:	39009443 	strb	w3, [x2, #37]
   801dc:	54fffd48 	b.hi	80184 <core::fmt::num::imp::<impl core::fmt::Display for u64>::fmt+0x50>  // b.pmore
   801e0:	91008e4b 	add	x11, x18, #0x23
   801e4:	f1018d5f 	cmp	x10, #0x63
   801e8:	540000a8 	b.hi	801fc <core::fmt::num::imp::<impl core::fmt::Display for u64>::fmt+0xc8>  // b.pmore
   801ec:	14000014 	b	8023c <core::fmt::num::imp::<impl core::fmt::Display for u64>::fmt+0x108>
   801f0:	528004eb 	mov	w11, #0x27                  	// #39
   801f4:	f1018d5f 	cmp	x10, #0x63
   801f8:	54000229 	b.ls	8023c <core::fmt::num::imp::<impl core::fmt::Display for u64>::fmt+0x108>  // b.plast
   801fc:	53023d4c 	ubfx	w12, w10, #2, #14
   80200:	52828f6d 	mov	w13, #0x147b                	// #5243
   80204:	d100096e 	sub	x14, x11, #0x2
   80208:	1b0d7d8c 	mul	w12, w12, w13
   8020c:	12800c6d 	mov	w13, #0xffffff9c            	// #-100
   80210:	53117d8c 	lsr	w12, w12, #17
   80214:	1b0d298a 	madd	w10, w12, w13, w10
   80218:	910023ed 	add	x13, sp, #0x8
   8021c:	8b0b01ad 	add	x13, x13, x11
   80220:	aa0e03eb 	mov	x11, x14
   80224:	8b2a252a 	add	x10, x9, w10, uxth #1
   80228:	3940054f 	ldrb	w15, [x10, #1]
   8022c:	39400150 	ldrb	w16, [x10]
   80230:	aa0c03ea 	mov	x10, x12
   80234:	381ff1af 	sturb	w15, [x13, #-1]
   80238:	381fe1b0 	sturb	w16, [x13, #-2]
   8023c:	f100295f 	cmp	x10, #0xa
   80240:	540000e2 	b.cs	8025c <core::fmt::num::imp::<impl core::fmt::Display for u64>::fmt+0x128>  // b.hs, b.nlast
   80244:	910023e9 	add	x9, sp, #0x8
   80248:	1100c14a 	add	w10, w10, #0x30
   8024c:	8b0b012c 	add	x12, x9, x11
   80250:	d1000569 	sub	x9, x11, #0x1
   80254:	381ff18a 	sturb	w10, [x12, #-1]
   80258:	14000009 	b	8027c <core::fmt::num::imp::<impl core::fmt::Display for u64>::fmt+0x148>
   8025c:	8b0a0529 	add	x9, x9, x10, lsl #1
   80260:	910023ea 	add	x10, sp, #0x8
   80264:	8b0b014a 	add	x10, x10, x11
   80268:	3940052c 	ldrb	w12, [x9, #1]
   8026c:	3940012d 	ldrb	w13, [x9]
   80270:	d1000969 	sub	x9, x11, #0x2
   80274:	381ff14c 	sturb	w12, [x10, #-1]
   80278:	381fe14d 	sturb	w13, [x10, #-2]
   8027c:	910023ea 	add	x10, sp, #0x8
   80280:	528004eb 	mov	w11, #0x27                  	// #39
   80284:	8b090143 	add	x3, x10, x9
   80288:	cb090164 	sub	x4, x11, x9
   8028c:	d0000021 	adrp	x1, 86000 <compiler_builtins::mem::__llvm_memset_element_unordered_atomic_16+0x170c>
   80290:	910cc021 	add	x1, x1, #0x330
   80294:	aa0803e0 	mov	x0, x8
   80298:	aa1f03e2 	mov	x2, xzr
   8029c:	94000004 	bl	802ac <core::fmt::Formatter::pad_integral>
   802a0:	f9401bfe 	ldr	x30, [sp, #48]
   802a4:	910103ff 	add	sp, sp, #0x40
   802a8:	d65f03c0 	ret

00000000000802ac <core::fmt::Formatter::pad_integral>:
   802ac:	d101c3ff 	sub	sp, sp, #0x70
   802b0:	a9017bfd 	stp	x29, x30, [sp, #16]
   802b4:	a9026ffc 	stp	x28, x27, [sp, #32]
   802b8:	a90367fa 	stp	x26, x25, [sp, #48]
   802bc:	a9045ff8 	stp	x24, x23, [sp, #64]
   802c0:	a90557f6 	stp	x22, x21, [sp, #80]
   802c4:	a9064ff4 	stp	x20, x19, [sp, #96]
   802c8:	b9403008 	ldr	w8, [x0, #48]
   802cc:	52800569 	mov	w9, #0x2b                  	// #43
   802d0:	52a0022b 	mov	w11, #0x110000              	// #1114112
   802d4:	aa0403f3 	mov	x19, x4
   802d8:	aa0303f4 	mov	x20, x3
   802dc:	aa0003f5 	mov	x21, x0
   802e0:	9240010a 	and	x10, x8, #0x1
   802e4:	aa0203f6 	mov	x22, x2
   802e8:	7100015f 	cmp	w10, #0x0
   802ec:	1a890178 	csel	w24, w11, w9, eq  // eq = none
   802f0:	8b040149 	add	x9, x10, x4
   802f4:	371000a8 	tbnz	w8, #2, 80308 <core::fmt::Formatter::pad_integral+0x5c>
   802f8:	aa1f03f7 	mov	x23, xzr
   802fc:	f9400aaa 	ldr	x10, [x21, #16]
   80300:	b50004aa 	cbnz	x10, 80394 <core::fmt::Formatter::pad_integral+0xe8>
   80304:	14000031 	b	803c8 <core::fmt::Formatter::pad_integral+0x11c>
   80308:	aa0103f7 	mov	x23, x1
   8030c:	aa1603ec 	mov	x12, x22
   80310:	b40003d6 	cbz	x22, 80388 <core::fmt::Formatter::pad_integral+0xdc>
   80314:	f10006df 	cmp	x22, #0x1
   80318:	54000081 	b.ne	80328 <core::fmt::Formatter::pad_integral+0x7c>  // b.any
   8031c:	aa1f03ec 	mov	x12, xzr
   80320:	aa1703ea 	mov	x10, x23
   80324:	14000013 	b	80370 <core::fmt::Formatter::pad_integral+0xc4>
   80328:	927ffacb 	and	x11, x22, #0xfffffffffffffffe
   8032c:	aa1f03ec 	mov	x12, xzr
   80330:	aa1f03ed 	mov	x13, xzr
   80334:	8b0b02ea 	add	x10, x23, x11
   80338:	910006ee 	add	x14, x23, #0x1
   8033c:	aa0b03ef 	mov	x15, x11
   80340:	38dff1d0 	ldursb	w16, [x14, #-1]
   80344:	39c001d1 	ldrsb	w17, [x14]
   80348:	910009ce 	add	x14, x14, #0x2
   8034c:	3101061f 	cmn	w16, #0x41
   80350:	9a8cd58c 	cinc	x12, x12, gt
   80354:	3101063f 	cmn	w17, #0x41
   80358:	9a8dd5ad 	cinc	x13, x13, gt
   8035c:	f10009ef 	subs	x15, x15, #0x2
   80360:	54ffff01 	b.ne	80340 <core::fmt::Formatter::pad_integral+0x94>  // b.any
   80364:	8b0c01ac 	add	x12, x13, x12
   80368:	eb16017f 	cmp	x11, x22
   8036c:	540000e0 	b.eq	80388 <core::fmt::Formatter::pad_integral+0xdc>  // b.none
   80370:	8b1602eb 	add	x11, x23, x22
   80374:	38c0154d 	ldrsb	w13, [x10], #1
   80378:	310105bf 	cmn	w13, #0x41
   8037c:	9a8cd58c 	cinc	x12, x12, gt
   80380:	eb0b015f 	cmp	x10, x11
   80384:	54ffff81 	b.ne	80374 <core::fmt::Formatter::pad_integral+0xc8>  // b.any
   80388:	8b090189 	add	x9, x12, x9
   8038c:	f9400aaa 	ldr	x10, [x21, #16]
   80390:	b40001ca 	cbz	x10, 803c8 <core::fmt::Formatter::pad_integral+0x11c>
   80394:	f9400eaa 	ldr	x10, [x21, #24]
   80398:	eb09015c 	subs	x28, x10, x9
   8039c:	54000169 	b.ls	803c8 <core::fmt::Formatter::pad_integral+0x11c>  // b.plast
   803a0:	37180508 	tbnz	w8, #3, 80440 <core::fmt::Formatter::pad_integral+0x194>
   803a4:	3940e2a8 	ldrb	w8, [x21, #56]
   803a8:	71000d1f 	cmp	w8, #0x3
   803ac:	1a9f1508 	csinc	w8, w8, wzr, ne  // ne = any
   803b0:	7200051f 	tst	w8, #0x3
   803b4:	54000760 	b.eq	804a0 <core::fmt::Formatter::pad_integral+0x1f4>  // b.none
   803b8:	7100051f 	cmp	w8, #0x1
   803bc:	54000761 	b.ne	804a8 <core::fmt::Formatter::pad_integral+0x1fc>  // b.any
   803c0:	aa1f03fb 	mov	x27, xzr
   803c4:	1400003d 	b	804b8 <core::fmt::Formatter::pad_integral+0x20c>
   803c8:	a94056b9 	ldp	x25, x21, [x21]
   803cc:	2a1803e2 	mov	w2, w24
   803d0:	aa1703e3 	mov	x3, x23
   803d4:	aa1603e4 	mov	x4, x22
   803d8:	aa1903e0 	mov	x0, x25
   803dc:	aa1503e1 	mov	x1, x21
   803e0:	9400006a 	bl	80588 <core::fmt::Formatter::pad_integral::write_prefix>
   803e4:	36000160 	tbz	w0, #0, 80410 <core::fmt::Formatter::pad_integral+0x164>
   803e8:	52800039 	mov	w25, #0x1                   	// #1
   803ec:	2a1903e0 	mov	w0, w25
   803f0:	a9464ff4 	ldp	x20, x19, [sp, #96]
   803f4:	a94557f6 	ldp	x22, x21, [sp, #80]
   803f8:	a9445ff8 	ldp	x24, x23, [sp, #64]
   803fc:	a94367fa 	ldp	x26, x25, [sp, #48]
   80400:	a9426ffc 	ldp	x28, x27, [sp, #32]
   80404:	a9417bfd 	ldp	x29, x30, [sp, #16]
   80408:	9101c3ff 	add	sp, sp, #0x70
   8040c:	d65f03c0 	ret
   80410:	f9400ea3 	ldr	x3, [x21, #24]
   80414:	aa1903e0 	mov	x0, x25
   80418:	aa1403e1 	mov	x1, x20
   8041c:	aa1303e2 	mov	x2, x19
   80420:	a9464ff4 	ldp	x20, x19, [sp, #96]
   80424:	a94557f6 	ldp	x22, x21, [sp, #80]
   80428:	a9445ff8 	ldp	x24, x23, [sp, #64]
   8042c:	a94367fa 	ldp	x26, x25, [sp, #48]
   80430:	a9426ffc 	ldp	x28, x27, [sp, #32]
   80434:	a9417bfd 	ldp	x29, x30, [sp, #16]
   80438:	9101c3ff 	add	sp, sp, #0x70
   8043c:	d61f0060 	br	x3
   80440:	a9406eba 	ldp	x26, x27, [x21]
   80444:	52800039 	mov	w25, #0x1                   	// #1
   80448:	2a1803e2 	mov	w2, w24
   8044c:	b94036a8 	ldr	w8, [x21, #52]
   80450:	aa1703e3 	mov	x3, x23
   80454:	aa1603e4 	mov	x4, x22
   80458:	3940e2bd 	ldrb	w29, [x21, #56]
   8045c:	aa1a03e0 	mov	x0, x26
   80460:	3900e2b9 	strb	w25, [x21, #56]
   80464:	b9000fe8 	str	w8, [sp, #12]
   80468:	52800608 	mov	w8, #0x30                  	// #48
   8046c:	aa1b03e1 	mov	x1, x27
   80470:	b90036a8 	str	w8, [x21, #52]
   80474:	94000045 	bl	80588 <core::fmt::Formatter::pad_integral::write_prefix>
   80478:	3707fba0 	tbnz	w0, #0, 803ec <core::fmt::Formatter::pad_integral+0x140>
   8047c:	91000796 	add	x22, x28, #0x1
   80480:	f10006d6 	subs	x22, x22, #0x1
   80484:	54000640 	b.eq	8054c <core::fmt::Formatter::pad_integral+0x2a0>  // b.none
   80488:	f9401368 	ldr	x8, [x27, #32]
   8048c:	aa1a03e0 	mov	x0, x26
   80490:	52800601 	mov	w1, #0x30                  	// #48
   80494:	d63f0100 	blr	x8
   80498:	3607ff40 	tbz	w0, #0, 80480 <core::fmt::Formatter::pad_integral+0x1d4>
   8049c:	17ffffd3 	b	803e8 <core::fmt::Formatter::pad_integral+0x13c>
   804a0:	aa1c03fb 	mov	x27, x28
   804a4:	14000004 	b	804b4 <core::fmt::Formatter::pad_integral+0x208>
   804a8:	91000789 	add	x9, x28, #0x1
   804ac:	d341ff88 	lsr	x8, x28, #1
   804b0:	d341fd3b 	lsr	x27, x9, #1
   804b4:	aa0803fc 	mov	x28, x8
   804b8:	a9406ab9 	ldp	x25, x26, [x21]
   804bc:	9100079c 	add	x28, x28, #0x1
   804c0:	b94036b5 	ldr	w21, [x21, #52]
   804c4:	f100079c 	subs	x28, x28, #0x1
   804c8:	540000e0 	b.eq	804e4 <core::fmt::Formatter::pad_integral+0x238>  // b.none
   804cc:	f9401348 	ldr	x8, [x26, #32]
   804d0:	aa1903e0 	mov	x0, x25
   804d4:	2a1503e1 	mov	w1, w21
   804d8:	d63f0100 	blr	x8
   804dc:	3607ff40 	tbz	w0, #0, 804c4 <core::fmt::Formatter::pad_integral+0x218>
   804e0:	17ffffc2 	b	803e8 <core::fmt::Formatter::pad_integral+0x13c>
   804e4:	714442bf 	cmp	w21, #0x110, lsl #12
   804e8:	54fff800 	b.eq	803e8 <core::fmt::Formatter::pad_integral+0x13c>  // b.none
   804ec:	aa1903e0 	mov	x0, x25
   804f0:	aa1a03e1 	mov	x1, x26
   804f4:	2a1803e2 	mov	w2, w24
   804f8:	aa1703e3 	mov	x3, x23
   804fc:	aa1603e4 	mov	x4, x22
   80500:	94000022 	bl	80588 <core::fmt::Formatter::pad_integral::write_prefix>
   80504:	3707f720 	tbnz	w0, #0, 803e8 <core::fmt::Formatter::pad_integral+0x13c>
   80508:	f9400f48 	ldr	x8, [x26, #24]
   8050c:	aa1903e0 	mov	x0, x25
   80510:	aa1403e1 	mov	x1, x20
   80514:	aa1303e2 	mov	x2, x19
   80518:	d63f0100 	blr	x8
   8051c:	3707f660 	tbnz	w0, #0, 803e8 <core::fmt::Formatter::pad_integral+0x13c>
   80520:	aa1f03f3 	mov	x19, xzr
   80524:	eb13037f 	cmp	x27, x19
   80528:	54000280 	b.eq	80578 <core::fmt::Formatter::pad_integral+0x2cc>  // b.none
   8052c:	f9401348 	ldr	x8, [x26, #32]
   80530:	aa1903e0 	mov	x0, x25
   80534:	2a1503e1 	mov	w1, w21
   80538:	91000673 	add	x19, x19, #0x1
   8053c:	d63f0100 	blr	x8
   80540:	34ffff20 	cbz	w0, 80524 <core::fmt::Formatter::pad_integral+0x278>
   80544:	d1000668 	sub	x8, x19, #0x1
   80548:	1400000d 	b	8057c <core::fmt::Formatter::pad_integral+0x2d0>
   8054c:	f9400f68 	ldr	x8, [x27, #24]
   80550:	aa1a03e0 	mov	x0, x26
   80554:	aa1403e1 	mov	x1, x20
   80558:	aa1303e2 	mov	x2, x19
   8055c:	d63f0100 	blr	x8
   80560:	3707f440 	tbnz	w0, #0, 803e8 <core::fmt::Formatter::pad_integral+0x13c>
   80564:	2a1f03f9 	mov	w25, wzr
   80568:	b9400fe8 	ldr	w8, [sp, #12]
   8056c:	3900e2bd 	strb	w29, [x21, #56]
   80570:	b90036a8 	str	w8, [x21, #52]
   80574:	17ffff9e 	b	803ec <core::fmt::Formatter::pad_integral+0x140>
   80578:	aa1b03e8 	mov	x8, x27
   8057c:	eb1b011f 	cmp	x8, x27
   80580:	1a9f27f9 	cset	w25, cc  // cc = lo, ul, last
   80584:	17ffff9a 	b	803ec <core::fmt::Formatter::pad_integral+0x140>

0000000000080588 <core::fmt::Formatter::pad_integral::write_prefix>:
   80588:	f81d0ffe 	str	x30, [sp, #-48]!
   8058c:	a90157f6 	stp	x22, x21, [sp, #16]
   80590:	a9024ff4 	stp	x20, x19, [sp, #32]
   80594:	aa0403f3 	mov	x19, x4
   80598:	aa0303f4 	mov	x20, x3
   8059c:	aa0103f6 	mov	x22, x1
   805a0:	aa0003f5 	mov	x21, x0
   805a4:	7144405f 	cmp	w2, #0x110, lsl #12
   805a8:	54000160 	b.eq	805d4 <core::fmt::Formatter::pad_integral::write_prefix+0x4c>  // b.none
   805ac:	f94012c8 	ldr	x8, [x22, #32]
   805b0:	aa1503e0 	mov	x0, x21
   805b4:	2a0203e1 	mov	w1, w2
   805b8:	d63f0100 	blr	x8
   805bc:	360000c0 	tbz	w0, #0, 805d4 <core::fmt::Formatter::pad_integral::write_prefix+0x4c>
   805c0:	52800020 	mov	w0, #0x1                   	// #1
   805c4:	a9424ff4 	ldp	x20, x19, [sp, #32]
   805c8:	a94157f6 	ldp	x22, x21, [sp, #16]
   805cc:	f84307fe 	ldr	x30, [sp], #48
   805d0:	d65f03c0 	ret
   805d4:	b4000134 	cbz	x20, 805f8 <core::fmt::Formatter::pad_integral::write_prefix+0x70>
   805d8:	f9400ec3 	ldr	x3, [x22, #24]
   805dc:	aa1503e0 	mov	x0, x21
   805e0:	aa1403e1 	mov	x1, x20
   805e4:	aa1303e2 	mov	x2, x19
   805e8:	a9424ff4 	ldp	x20, x19, [sp, #32]
   805ec:	a94157f6 	ldp	x22, x21, [sp, #16]
   805f0:	f84307fe 	ldr	x30, [sp], #48
   805f4:	d61f0060 	br	x3
   805f8:	2a1f03e0 	mov	w0, wzr
   805fc:	a9424ff4 	ldp	x20, x19, [sp, #32]
   80600:	a94157f6 	ldp	x22, x21, [sp, #16]
   80604:	f84307fe 	ldr	x30, [sp], #48
   80608:	d65f03c0 	ret

000000000008060c <core::slice::index::slice_start_index_len_fail>:
   8060c:	94000002 	bl	80614 <core::slice::index::slice_start_index_len_fail_rt>
   80610:	d4200020 	brk	#0x1

0000000000080614 <core::slice::index::slice_start_index_len_fail_rt>:
   80614:	d10183ff 	sub	sp, sp, #0x60
   80618:	910003e8 	mov	x8, sp
   8061c:	90000009 	adrp	x9, 80000 <_start>
   80620:	9104d129 	add	x9, x9, #0x134
   80624:	910023ea 	add	x10, sp, #0x8
   80628:	a90007e0 	stp	x0, x1, [sp]
   8062c:	910043e0 	add	x0, sp, #0x10
   80630:	aa0203e1 	mov	x1, x2
   80634:	f9000bff 	str	xzr, [sp, #16]
   80638:	a90427e8 	stp	x8, x9, [sp, #64]
   8063c:	b0000028 	adrp	x8, 85000 <compiler_builtins::mem::__llvm_memset_element_unordered_atomic_16+0x70c>
   80640:	910a0108 	add	x8, x8, #0x280
   80644:	a90527ea 	stp	x10, x9, [sp, #80]
   80648:	52800049 	mov	w9, #0x2                   	// #2
   8064c:	910103ea 	add	x10, sp, #0x40
   80650:	a90227e8 	stp	x8, x9, [sp, #32]
   80654:	a90327ea 	stp	x10, x9, [sp, #48]
   80658:	97fffea5 	bl	800ec <core::panicking::panic_fmt>
   8065c:	d4200020 	brk	#0x1

0000000000080660 <core::fmt::Formatter::pad>:
   80660:	a9bc67fe 	stp	x30, x25, [sp, #-64]!
   80664:	a9015ff8 	stp	x24, x23, [sp, #16]
   80668:	a90257f6 	stp	x22, x21, [sp, #32]
   8066c:	a9034ff4 	stp	x20, x19, [sp, #48]
   80670:	f9400808 	ldr	x8, [x0, #16]
   80674:	aa0203f3 	mov	x19, x2
   80678:	f9401009 	ldr	x9, [x0, #32]
   8067c:	aa0103f4 	mov	x20, x1
   80680:	f100051f 	cmp	x8, #0x1
   80684:	fa411924 	ccmp	x9, #0x1, #0x4, ne  // ne = any
   80688:	54002761 	b.ne	80b74 <core::fmt::Formatter::pad+0x514>  // b.any
   8068c:	f100053f 	cmp	x9, #0x1
   80690:	540009e1 	b.ne	807cc <core::fmt::Formatter::pad+0x16c>  // b.any
   80694:	f940140a 	ldr	x10, [x0, #40]
   80698:	aa1f03e9 	mov	x9, xzr
   8069c:	8b13028b 	add	x11, x20, x19
   806a0:	9100054c 	add	x12, x10, #0x1
   806a4:	aa1403ea 	mov	x10, x20
   806a8:	14000007 	b	806c4 <core::fmt::Formatter::pad+0x64>
   806ac:	2a1003ed 	mov	w13, w16
   806b0:	cb0a0129 	sub	x9, x9, x10
   806b4:	aa0e03ea 	mov	x10, x14
   806b8:	8b0e0129 	add	x9, x9, x14
   806bc:	714441bf 	cmp	w13, #0x110, lsl #12
   806c0:	54000860 	b.eq	807cc <core::fmt::Formatter::pad+0x16c>  // b.none
   806c4:	f100058c 	subs	x12, x12, #0x1
   806c8:	54000400 	b.eq	80748 <core::fmt::Formatter::pad+0xe8>  // b.none
   806cc:	eb0b015f 	cmp	x10, x11
   806d0:	540007e0 	b.eq	807cc <core::fmt::Formatter::pad+0x16c>  // b.none
   806d4:	aa0a03ee 	mov	x14, x10
   806d8:	38c015cd 	ldrsb	w13, [x14], #1
   806dc:	12001db0 	and	w16, w13, #0xff
   806e0:	36fffe6d 	tbz	w13, #31, 806ac <core::fmt::Formatter::pad+0x4c>
   806e4:	3940054d 	ldrb	w13, [x10, #1]
   806e8:	1200120f 	and	w15, w16, #0x1f
   806ec:	71037e1f 	cmp	w16, #0xdf
   806f0:	120015ad 	and	w13, w13, #0x3f
   806f4:	540001c9 	b.ls	8072c <core::fmt::Formatter::pad+0xcc>  // b.plast
   806f8:	3940094e 	ldrb	w14, [x10, #2]
   806fc:	7103c21f 	cmp	w16, #0xf0
   80700:	120015d1 	and	w17, w14, #0x3f
   80704:	331a15b1 	bfi	w17, w13, #6, #6
   80708:	54000183 	b.cc	80738 <core::fmt::Formatter::pad+0xd8>  // b.lo, b.ul, b.last
   8070c:	39400d4d 	ldrb	w13, [x10, #3]
   80710:	120015ad 	and	w13, w13, #0x3f
   80714:	331a2e2d 	bfi	w13, w17, #6, #12
   80718:	330e09ed 	bfi	w13, w15, #18, #3
   8071c:	714441bf 	cmp	w13, #0x110, lsl #12
   80720:	54000560 	b.eq	807cc <core::fmt::Formatter::pad+0x16c>  // b.none
   80724:	9100114e 	add	x14, x10, #0x4
   80728:	17ffffe2 	b	806b0 <core::fmt::Formatter::pad+0x50>
   8072c:	9100094e 	add	x14, x10, #0x2
   80730:	331a11ed 	bfi	w13, w15, #6, #5
   80734:	17ffffdf 	b	806b0 <core::fmt::Formatter::pad+0x50>
   80738:	331411f1 	bfi	w17, w15, #12, #5
   8073c:	91000d4e 	add	x14, x10, #0x3
   80740:	2a1103ed 	mov	w13, w17
   80744:	17ffffdb 	b	806b0 <core::fmt::Formatter::pad+0x50>
   80748:	eb0b015f 	cmp	x10, x11
   8074c:	54000400 	b.eq	807cc <core::fmt::Formatter::pad+0x16c>  // b.none
   80750:	39c0014b 	ldrsb	w11, [x10]
   80754:	36f8022b 	tbz	w11, #31, 80798 <core::fmt::Formatter::pad+0x138>
   80758:	12001d6b 	and	w11, w11, #0xff
   8075c:	7103817f 	cmp	w11, #0xe0
   80760:	540001c3 	b.cc	80798 <core::fmt::Formatter::pad+0x138>  // b.lo, b.ul, b.last
   80764:	7103c17f 	cmp	w11, #0xf0
   80768:	54000183 	b.cc	80798 <core::fmt::Formatter::pad+0x138>  // b.lo, b.ul, b.last
   8076c:	3940094c 	ldrb	w12, [x10, #2]
   80770:	3940054d 	ldrb	w13, [x10, #1]
   80774:	39400d4a 	ldrb	w10, [x10, #3]
   80778:	1200158c 	and	w12, w12, #0x3f
   8077c:	120015ad 	and	w13, w13, #0x3f
   80780:	53144dad 	lsl	w13, w13, #12
   80784:	331a158d 	bfi	w13, w12, #6, #6
   80788:	3300154d 	bfxil	w13, w10, #0, #6
   8078c:	330e096d 	bfi	w13, w11, #18, #3
   80790:	714441bf 	cmp	w13, #0x110, lsl #12
   80794:	540001c0 	b.eq	807cc <core::fmt::Formatter::pad+0x16c>  // b.none
   80798:	b4000129 	cbz	x9, 807bc <core::fmt::Formatter::pad+0x15c>
   8079c:	eb13013f 	cmp	x9, x19
   807a0:	540000c2 	b.cs	807b8 <core::fmt::Formatter::pad+0x158>  // b.hs, b.nlast
   807a4:	38e96a8a 	ldrsb	w10, [x20, x9]
   807a8:	3101015f 	cmn	w10, #0x40
   807ac:	5400008a 	b.ge	807bc <core::fmt::Formatter::pad+0x15c>  // b.tcont
   807b0:	aa1f03ea 	mov	x10, xzr
   807b4:	14000003 	b	807c0 <core::fmt::Formatter::pad+0x160>
   807b8:	54ffffc1 	b.ne	807b0 <core::fmt::Formatter::pad+0x150>  // b.any
   807bc:	aa1403ea 	mov	x10, x20
   807c0:	f100015f 	cmp	x10, #0x0
   807c4:	9a890273 	csel	x19, x19, x9, eq  // eq = none
   807c8:	9a8a0294 	csel	x20, x20, x10, eq  // eq = none
   807cc:	b4001d48 	cbz	x8, 80b74 <core::fmt::Formatter::pad+0x514>
   807d0:	f9400c08 	ldr	x8, [x0, #24]
   807d4:	f100827f 	cmp	x19, #0x20
   807d8:	54000162 	b.cs	80804 <core::fmt::Formatter::pad+0x1a4>  // b.hs, b.nlast
   807dc:	aa1f03e9 	mov	x9, xzr
   807e0:	b4001b53 	cbz	x19, 80b48 <core::fmt::Formatter::pad+0x4e8>
   807e4:	aa1303ea 	mov	x10, x19
   807e8:	aa1403eb 	mov	x11, x20
   807ec:	38c0156c 	ldrsb	w12, [x11], #1
   807f0:	3101059f 	cmn	w12, #0x41
   807f4:	9a89d529 	cinc	x9, x9, gt
   807f8:	f100054a 	subs	x10, x10, #0x1
   807fc:	54ffff81 	b.ne	807ec <core::fmt::Formatter::pad+0x18c>  // b.any
   80800:	140000d2 	b	80b48 <core::fmt::Formatter::pad+0x4e8>
   80804:	91001e89 	add	x9, x20, #0x7
   80808:	927df12c 	and	x12, x9, #0xfffffffffffffff8
   8080c:	cb14018b 	sub	x11, x12, x20
   80810:	eb0b026d 	subs	x13, x19, x11
   80814:	54000163 	b.cc	80840 <core::fmt::Formatter::pad+0x1e0>  // b.lo, b.ul, b.last
   80818:	f100217f 	cmp	x11, #0x8
   8081c:	54000128 	b.hi	80840 <core::fmt::Formatter::pad+0x1e0>  // b.pmore
   80820:	f10021bf 	cmp	x13, #0x8
   80824:	540000e3 	b.cc	80840 <core::fmt::Formatter::pad+0x1e0>  // b.lo, b.ul, b.last
   80828:	8b0b028a 	add	x10, x20, x11
   8082c:	924009a9 	and	x9, x13, #0x7
   80830:	eb14019f 	cmp	x12, x20
   80834:	54000381 	b.ne	808a4 <core::fmt::Formatter::pad+0x244>  // b.any
   80838:	aa1f03ec 	mov	x12, xzr
   8083c:	14000036 	b	80914 <core::fmt::Formatter::pad+0x2b4>
   80840:	927ffa6a 	and	x10, x19, #0xfffffffffffffffe
   80844:	aa1f03e9 	mov	x9, xzr
   80848:	aa1f03eb 	mov	x11, xzr
   8084c:	9100068c 	add	x12, x20, #0x1
   80850:	aa0a03ed 	mov	x13, x10
   80854:	38dff18e 	ldursb	w14, [x12, #-1]
   80858:	39c0018f 	ldrsb	w15, [x12]
   8085c:	9100098c 	add	x12, x12, #0x2
   80860:	310105df 	cmn	w14, #0x41
   80864:	9a89d529 	cinc	x9, x9, gt
   80868:	310105ff 	cmn	w15, #0x41
   8086c:	9a8bd56b 	cinc	x11, x11, gt
   80870:	f10009ad 	subs	x13, x13, #0x2
   80874:	54ffff01 	b.ne	80854 <core::fmt::Formatter::pad+0x1f4>  // b.any
   80878:	8b090169 	add	x9, x11, x9
   8087c:	eb13015f 	cmp	x10, x19
   80880:	54001640 	b.eq	80b48 <core::fmt::Formatter::pad+0x4e8>  // b.none
   80884:	8b0a028b 	add	x11, x20, x10
   80888:	cb0a026a 	sub	x10, x19, x10
   8088c:	38c0156c 	ldrsb	w12, [x11], #1
   80890:	3101059f 	cmn	w12, #0x41
   80894:	9a89d529 	cinc	x9, x9, gt
   80898:	f100054a 	subs	x10, x10, #0x1
   8089c:	54ffff81 	b.ne	8088c <core::fmt::Formatter::pad+0x22c>  // b.any
   808a0:	140000aa 	b	80b48 <core::fmt::Formatter::pad+0x4e8>
   808a4:	f100097f 	cmp	x11, #0x2
   808a8:	54000082 	b.cs	808b8 <core::fmt::Formatter::pad+0x258>  // b.hs, b.nlast
   808ac:	aa1f03ec 	mov	x12, xzr
   808b0:	aa1403eb 	mov	x11, x20
   808b4:	14000013 	b	80900 <core::fmt::Formatter::pad+0x2a0>
   808b8:	927ff96e 	and	x14, x11, #0xfffffffffffffffe
   808bc:	aa1f03ec 	mov	x12, xzr
   808c0:	aa1f03ef 	mov	x15, xzr
   808c4:	91000690 	add	x16, x20, #0x1
   808c8:	aa0e03f1 	mov	x17, x14
   808cc:	38dff212 	ldursb	w18, [x16, #-1]
   808d0:	39c00201 	ldrsb	w1, [x16]
   808d4:	91000a10 	add	x16, x16, #0x2
   808d8:	3101065f 	cmn	w18, #0x41
   808dc:	9a8cd58c 	cinc	x12, x12, gt
   808e0:	3101043f 	cmn	w1, #0x41
   808e4:	9a8fd5ef 	cinc	x15, x15, gt
   808e8:	f1000a31 	subs	x17, x17, #0x2
   808ec:	54ffff01 	b.ne	808cc <core::fmt::Formatter::pad+0x26c>  // b.any
   808f0:	8b0c01ec 	add	x12, x15, x12
   808f4:	eb0e017f 	cmp	x11, x14
   808f8:	540000e0 	b.eq	80914 <core::fmt::Formatter::pad+0x2b4>  // b.none
   808fc:	8b0e028b 	add	x11, x20, x14
   80900:	38c0156e 	ldrsb	w14, [x11], #1
   80904:	310105df 	cmn	w14, #0x41
   80908:	9a8cd58c 	cinc	x12, x12, gt
   8090c:	eb0a017f 	cmp	x11, x10
   80910:	54ffff81 	b.ne	80900 <core::fmt::Formatter::pad+0x2a0>  // b.any
   80914:	d343fdab 	lsr	x11, x13, #3
   80918:	b40004a9 	cbz	x9, 809ac <core::fmt::Formatter::pad+0x34c>
   8091c:	927df1ad 	and	x13, x13, #0xfffffffffffffff8
   80920:	8b0d014e 	add	x14, x10, x13
   80924:	39c001cd 	ldrsb	w13, [x14]
   80928:	310105bf 	cmn	w13, #0x41
   8092c:	1a9fd7ed 	cset	w13, gt
   80930:	f100053f 	cmp	x9, #0x1
   80934:	540003e0 	b.eq	809b0 <core::fmt::Formatter::pad+0x350>  // b.none
   80938:	39c005cf 	ldrsb	w15, [x14, #1]
   8093c:	310105ff 	cmn	w15, #0x41
   80940:	9a8dd5ad 	cinc	x13, x13, gt
   80944:	f100093f 	cmp	x9, #0x2
   80948:	54000340 	b.eq	809b0 <core::fmt::Formatter::pad+0x350>  // b.none
   8094c:	39c009cf 	ldrsb	w15, [x14, #2]
   80950:	310105ff 	cmn	w15, #0x41
   80954:	9a8dd5ad 	cinc	x13, x13, gt
   80958:	f1000d3f 	cmp	x9, #0x3
   8095c:	540002a0 	b.eq	809b0 <core::fmt::Formatter::pad+0x350>  // b.none
   80960:	39c00dcf 	ldrsb	w15, [x14, #3]
   80964:	310105ff 	cmn	w15, #0x41
   80968:	9a8dd5ad 	cinc	x13, x13, gt
   8096c:	f100113f 	cmp	x9, #0x4
   80970:	54000200 	b.eq	809b0 <core::fmt::Formatter::pad+0x350>  // b.none
   80974:	39c011cf 	ldrsb	w15, [x14, #4]
   80978:	310105ff 	cmn	w15, #0x41
   8097c:	9a8dd5ad 	cinc	x13, x13, gt
   80980:	f100153f 	cmp	x9, #0x5
   80984:	54000160 	b.eq	809b0 <core::fmt::Formatter::pad+0x350>  // b.none
   80988:	39c015cf 	ldrsb	w15, [x14, #5]
   8098c:	310105ff 	cmn	w15, #0x41
   80990:	9a8dd5ad 	cinc	x13, x13, gt
   80994:	f100193f 	cmp	x9, #0x6
   80998:	540000c0 	b.eq	809b0 <core::fmt::Formatter::pad+0x350>  // b.none
   8099c:	39c019c9 	ldrsb	w9, [x14, #6]
   809a0:	3101053f 	cmn	w9, #0x41
   809a4:	9a8dd5ad 	cinc	x13, x13, gt
   809a8:	14000002 	b	809b0 <core::fmt::Formatter::pad+0x350>
   809ac:	aa1f03ed 	mov	x13, xzr
   809b0:	8b0c01a9 	add	x9, x13, x12
   809b4:	5280180d 	mov	w13, #0xc0                  	// #192
   809b8:	b20083ee 	mov	x14, #0x1000100010001       	// #281479271743489
   809bc:	1400000a 	b	809e4 <core::fmt::Formatter::pad+0x384>
   809c0:	d348fe11 	lsr	x17, x16, #8
   809c4:	92009e10 	and	x16, x16, #0xff00ff00ff00ff
   809c8:	92009e31 	and	x17, x17, #0xff00ff00ff00ff
   809cc:	8b100230 	add	x16, x17, x16
   809d0:	9b0e7e11 	mul	x17, x16, x14
   809d4:	92400550 	and	x16, x10, #0x3
   809d8:	8b0a0d8a 	add	x10, x12, x10, lsl #3
   809dc:	8b51c129 	add	x9, x9, x17, lsr #48
   809e0:	b50004d0 	cbnz	x16, 80a78 <core::fmt::Formatter::pad+0x418>
   809e4:	b4000b2b 	cbz	x11, 80b48 <core::fmt::Formatter::pad+0x4e8>
   809e8:	f103017f 	cmp	x11, #0xc0
   809ec:	aa0a03ec 	mov	x12, x10
   809f0:	9a8d316a 	csel	x10, x11, x13, cc  // cc = lo, ul, last
   809f4:	aa1f03f0 	mov	x16, xzr
   809f8:	cb0a016b 	sub	x11, x11, x10
   809fc:	f27e154f 	ands	x15, x10, #0xfc
   80a00:	54fffe00 	b.eq	809c0 <core::fmt::Formatter::pad+0x360>  // b.none
   80a04:	8b0f0d91 	add	x17, x12, x15, lsl #3
   80a08:	aa0c03f2 	mov	x18, x12
   80a0c:	b4fffdb2 	cbz	x18, 809c0 <core::fmt::Formatter::pad+0x360>
   80a10:	a9400a41 	ldp	x1, x2, [x18]
   80a14:	a9411243 	ldp	x3, x4, [x18, #16]
   80a18:	91008252 	add	x18, x18, #0x20
   80a1c:	aa2103e5 	mvn	x5, x1
   80a20:	eb11025f 	cmp	x18, x17
   80a24:	d347fca5 	lsr	x5, x5, #7
   80a28:	aa2203e6 	mvn	x6, x2
   80a2c:	aa4118a1 	orr	x1, x5, x1, lsr #6
   80a30:	aa2303e5 	mvn	x5, x3
   80a34:	d347fcc6 	lsr	x6, x6, #7
   80a38:	9200c021 	and	x1, x1, #0x101010101010101
   80a3c:	d347fca5 	lsr	x5, x5, #7
   80a40:	aa4218c2 	orr	x2, x6, x2, lsr #6
   80a44:	8b100030 	add	x16, x1, x16
   80a48:	aa2403e1 	mvn	x1, x4
   80a4c:	aa4318a3 	orr	x3, x5, x3, lsr #6
   80a50:	9200c042 	and	x2, x2, #0x101010101010101
   80a54:	d347fc21 	lsr	x1, x1, #7
   80a58:	8b100050 	add	x16, x2, x16
   80a5c:	aa441821 	orr	x1, x1, x4, lsr #6
   80a60:	9200c062 	and	x2, x3, #0x101010101010101
   80a64:	8b100050 	add	x16, x2, x16
   80a68:	9200c021 	and	x1, x1, #0x101010101010101
   80a6c:	8b100030 	add	x16, x1, x16
   80a70:	54fffce1 	b.ne	80a0c <core::fmt::Formatter::pad+0x3ac>  // b.any
   80a74:	17ffffd3 	b	809c0 <core::fmt::Formatter::pad+0x360>
   80a78:	b400040c 	cbz	x12, 80af8 <core::fmt::Formatter::pad+0x498>
   80a7c:	d100060b 	sub	x11, x16, #0x1
   80a80:	8b0f0d8a 	add	x10, x12, x15, lsl #3
   80a84:	f240f16d 	ands	x13, x11, #0x1fffffffffffffff
   80a88:	540003c0 	b.eq	80b00 <core::fmt::Formatter::pad+0x4a0>  // b.none
   80a8c:	910005ad 	add	x13, x13, #0x1
   80a90:	8b0f0d8c 	add	x12, x12, x15, lsl #3
   80a94:	927ff1b1 	and	x17, x13, #0x3ffffffffffffffe
   80a98:	aa1f03eb 	mov	x11, xzr
   80a9c:	aa1f03f2 	mov	x18, xzr
   80aa0:	d37df22e 	lsl	x14, x17, #3
   80aa4:	9100218c 	add	x12, x12, #0x8
   80aa8:	aa1103ef 	mov	x15, x17
   80aac:	a97f8981 	ldp	x1, x2, [x12, #-8]
   80ab0:	f10009ef 	subs	x15, x15, #0x2
   80ab4:	9100418c 	add	x12, x12, #0x10
   80ab8:	aa2103e3 	mvn	x3, x1
   80abc:	aa2203e4 	mvn	x4, x2
   80ac0:	d347fc63 	lsr	x3, x3, #7
   80ac4:	d347fc84 	lsr	x4, x4, #7
   80ac8:	aa411861 	orr	x1, x3, x1, lsr #6
   80acc:	aa421882 	orr	x2, x4, x2, lsr #6
   80ad0:	9200c021 	and	x1, x1, #0x101010101010101
   80ad4:	9200c042 	and	x2, x2, #0x101010101010101
   80ad8:	8b0b002b 	add	x11, x1, x11
   80adc:	8b120052 	add	x18, x2, x18
   80ae0:	54fffe61 	b.ne	80aac <core::fmt::Formatter::pad+0x44c>  // b.any
   80ae4:	8b0b024b 	add	x11, x18, x11
   80ae8:	eb1101bf 	cmp	x13, x17
   80aec:	54000200 	b.eq	80b2c <core::fmt::Formatter::pad+0x4cc>  // b.none
   80af0:	8b0e014c 	add	x12, x10, x14
   80af4:	14000005 	b	80b08 <core::fmt::Formatter::pad+0x4a8>
   80af8:	aa1f03eb 	mov	x11, xzr
   80afc:	1400000c 	b	80b2c <core::fmt::Formatter::pad+0x4cc>
   80b00:	aa1f03eb 	mov	x11, xzr
   80b04:	aa0a03ec 	mov	x12, x10
   80b08:	8b100d4a 	add	x10, x10, x16, lsl #3
   80b0c:	f840858d 	ldr	x13, [x12], #8
   80b10:	eb0a019f 	cmp	x12, x10
   80b14:	aa2d03ee 	mvn	x14, x13
   80b18:	d347fdce 	lsr	x14, x14, #7
   80b1c:	aa4d19cd 	orr	x13, x14, x13, lsr #6
   80b20:	9200c1ad 	and	x13, x13, #0x101010101010101
   80b24:	8b0b01ab 	add	x11, x13, x11
   80b28:	54ffff21 	b.ne	80b0c <core::fmt::Formatter::pad+0x4ac>  // b.any
   80b2c:	d348fd6a 	lsr	x10, x11, #8
   80b30:	92009d6b 	and	x11, x11, #0xff00ff00ff00ff
   80b34:	92009d4a 	and	x10, x10, #0xff00ff00ff00ff
   80b38:	8b0b014a 	add	x10, x10, x11
   80b3c:	b20083eb 	mov	x11, #0x1000100010001       	// #281479271743489
   80b40:	9b0b7d4a 	mul	x10, x10, x11
   80b44:	8b4ac129 	add	x9, x9, x10, lsr #48
   80b48:	eb090108 	subs	x8, x8, x9
   80b4c:	54000149 	b.ls	80b74 <core::fmt::Formatter::pad+0x514>  // b.plast
   80b50:	3940e009 	ldrb	w9, [x0, #56]
   80b54:	71000d3f 	cmp	w9, #0x3
   80b58:	1a8903e9 	csel	w9, wzr, w9, eq  // eq = none
   80b5c:	7200053f 	tst	w9, #0x3
   80b60:	540001e0 	b.eq	80b9c <core::fmt::Formatter::pad+0x53c>  // b.none
   80b64:	7100053f 	cmp	w9, #0x1
   80b68:	540001e1 	b.ne	80ba4 <core::fmt::Formatter::pad+0x544>  // b.any
   80b6c:	aa1f03f7 	mov	x23, xzr
   80b70:	14000011 	b	80bb4 <core::fmt::Formatter::pad+0x554>
   80b74:	a9402408 	ldp	x8, x9, [x0]
   80b78:	aa1403e1 	mov	x1, x20
   80b7c:	aa1303e2 	mov	x2, x19
   80b80:	a9434ff4 	ldp	x20, x19, [sp, #48]
   80b84:	a94257f6 	ldp	x22, x21, [sp, #32]
   80b88:	aa0803e0 	mov	x0, x8
   80b8c:	a9415ff8 	ldp	x24, x23, [sp, #16]
   80b90:	f9400d23 	ldr	x3, [x9, #24]
   80b94:	a8c467fe 	ldp	x30, x25, [sp], #64
   80b98:	d61f0060 	br	x3
   80b9c:	aa0803f7 	mov	x23, x8
   80ba0:	14000004 	b	80bb0 <core::fmt::Formatter::pad+0x550>
   80ba4:	d341fd09 	lsr	x9, x8, #1
   80ba8:	91000508 	add	x8, x8, #0x1
   80bac:	d341fd17 	lsr	x23, x8, #1
   80bb0:	aa0903e8 	mov	x8, x9
   80bb4:	a9406015 	ldp	x21, x24, [x0]
   80bb8:	91000519 	add	x25, x8, #0x1
   80bbc:	b9403416 	ldr	w22, [x0, #52]
   80bc0:	f1000739 	subs	x25, x25, #0x1
   80bc4:	540000e0 	b.eq	80be0 <core::fmt::Formatter::pad+0x580>  // b.none
   80bc8:	f9401308 	ldr	x8, [x24, #32]
   80bcc:	aa1503e0 	mov	x0, x21
   80bd0:	2a1603e1 	mov	w1, w22
   80bd4:	d63f0100 	blr	x8
   80bd8:	3607ff40 	tbz	w0, #0, 80bc0 <core::fmt::Formatter::pad+0x560>
   80bdc:	14000009 	b	80c00 <core::fmt::Formatter::pad+0x5a0>
   80be0:	714442df 	cmp	w22, #0x110, lsl #12
   80be4:	540000e0 	b.eq	80c00 <core::fmt::Formatter::pad+0x5a0>  // b.none
   80be8:	f9400f08 	ldr	x8, [x24, #24]
   80bec:	aa1503e0 	mov	x0, x21
   80bf0:	aa1403e1 	mov	x1, x20
   80bf4:	aa1303e2 	mov	x2, x19
   80bf8:	d63f0100 	blr	x8
   80bfc:	360000e0 	tbz	w0, #0, 80c18 <core::fmt::Formatter::pad+0x5b8>
   80c00:	52800020 	mov	w0, #0x1                   	// #1
   80c04:	a9434ff4 	ldp	x20, x19, [sp, #48]
   80c08:	a94257f6 	ldp	x22, x21, [sp, #32]
   80c0c:	a9415ff8 	ldp	x24, x23, [sp, #16]
   80c10:	a8c467fe 	ldp	x30, x25, [sp], #64
   80c14:	d65f03c0 	ret
   80c18:	aa1f03f3 	mov	x19, xzr
   80c1c:	eb1302ff 	cmp	x23, x19
   80c20:	54000120 	b.eq	80c44 <core::fmt::Formatter::pad+0x5e4>  // b.none
   80c24:	f9401308 	ldr	x8, [x24, #32]
   80c28:	aa1503e0 	mov	x0, x21
   80c2c:	2a1603e1 	mov	w1, w22
   80c30:	91000673 	add	x19, x19, #0x1
   80c34:	d63f0100 	blr	x8
   80c38:	34ffff20 	cbz	w0, 80c1c <core::fmt::Formatter::pad+0x5bc>
   80c3c:	d1000668 	sub	x8, x19, #0x1
   80c40:	14000002 	b	80c48 <core::fmt::Formatter::pad+0x5e8>
   80c44:	aa1703e8 	mov	x8, x23
   80c48:	eb17011f 	cmp	x8, x23
   80c4c:	1a9f27e0 	cset	w0, cc  // cc = lo, ul, last
   80c50:	a9434ff4 	ldp	x20, x19, [sp, #48]
   80c54:	a94257f6 	ldp	x22, x21, [sp, #32]
   80c58:	a9415ff8 	ldp	x24, x23, [sp, #16]
   80c5c:	a8c467fe 	ldp	x30, x25, [sp], #64
   80c60:	d65f03c0 	ret

0000000000080c64 <core::panicking::panic>:
   80c64:	d10103ff 	sub	sp, sp, #0x40
   80c68:	52800568 	mov	w8, #0x2b                  	// #43
   80c6c:	9100c3e9 	add	x9, sp, #0x30
   80c70:	f90003ff 	str	xzr, [sp]
   80c74:	a90323e0 	stp	x0, x8, [sp, #48]
   80c78:	52800028 	mov	w8, #0x1                   	// #1
   80c7c:	910003e0 	mov	x0, sp
   80c80:	a90123e9 	stp	x9, x8, [sp, #16]
   80c84:	d0000029 	adrp	x9, 86000 <compiler_builtins::mem::__llvm_memset_element_unordered_atomic_16+0x170c>
   80c88:	910cc129 	add	x9, x9, #0x330
   80c8c:	a9027fe9 	stp	x9, xzr, [sp, #32]
   80c90:	97fffd17 	bl	800ec <core::panicking::panic_fmt>
   80c94:	d4200020 	brk	#0x1

0000000000080c98 <<&T as core::fmt::Display>::fmt>:
   80c98:	aa0103e8 	mov	x8, x1
   80c9c:	a9400801 	ldp	x1, x2, [x0]
   80ca0:	aa0803e0 	mov	x0, x8
   80ca4:	17fffe6f 	b	80660 <core::fmt::Formatter::pad>

0000000000080ca8 <<&T as core::fmt::Debug>::fmt>:
   80ca8:	a9402000 	ldp	x0, x8, [x0]
   80cac:	f9400d02 	ldr	x2, [x8, #24]
   80cb0:	d61f0040 	br	x2

0000000000080cb4 <core::fmt::write>:
   80cb4:	d10203ff 	sub	sp, sp, #0x80
   80cb8:	f90023fe 	str	x30, [sp, #64]
   80cbc:	a9055ff8 	stp	x24, x23, [sp, #80]
   80cc0:	a90657f6 	stp	x22, x21, [sp, #96]
   80cc4:	a9074ff4 	stp	x20, x19, [sp, #112]
   80cc8:	d2c00408 	mov	x8, #0x2000000000          	// #137438953472
   80ccc:	aa0203f3 	mov	x19, x2
   80cd0:	52800069 	mov	w9, #0x3                   	// #3
   80cd4:	a900ffe1 	stp	x1, xzr, [sp, #8]
   80cd8:	f90013ff 	str	xzr, [sp, #32]
   80cdc:	f9001be8 	str	x8, [sp, #48]
   80ce0:	f9400048 	ldr	x8, [x2]
   80ce4:	3900e3e9 	strb	w9, [sp, #56]
   80ce8:	f90003e0 	str	x0, [sp]
   80cec:	b40008a8 	cbz	x8, 80e00 <core::fmt::write+0x14c>
   80cf0:	f9400669 	ldr	x9, [x19, #8]
   80cf4:	b4000c09 	cbz	x9, 80e74 <core::fmt::write+0x1c0>
   80cf8:	f9400a6a 	ldr	x10, [x19, #16]
   80cfc:	5280070c 	mov	w12, #0x38                  	// #56
   80d00:	d100052b 	sub	x11, x9, #0x1
   80d04:	91006117 	add	x23, x8, #0x18
   80d08:	9240f16b 	and	x11, x11, #0x1fffffffffffffff
   80d0c:	9b0c7d35 	mul	x21, x9, x12
   80d10:	91000574 	add	x20, x11, #0x1
   80d14:	91002156 	add	x22, x10, #0x8
   80d18:	90000018 	adrp	x24, 80000 <_start>
   80d1c:	91039318 	add	x24, x24, #0xe4
   80d20:	f94002c2 	ldr	x2, [x22]
   80d24:	b40000c2 	cbz	x2, 80d3c <core::fmt::write+0x88>
   80d28:	a94023e0 	ldp	x0, x8, [sp]
   80d2c:	f85f82c1 	ldur	x1, [x22, #-8]
   80d30:	f9400d08 	ldr	x8, [x8, #24]
   80d34:	d63f0100 	blr	x8
   80d38:	37000b40 	tbnz	w0, #0, 80ea0 <core::fmt::write+0x1ec>
   80d3c:	b9400ee8 	ldr	w8, [x23, #12]
   80d40:	b90037e8 	str	w8, [sp, #52]
   80d44:	394042e8 	ldrb	w8, [x23, #16]
   80d48:	3900e3e8 	strb	w8, [sp, #56]
   80d4c:	f9401268 	ldr	x8, [x19, #32]
   80d50:	b9400ae9 	ldr	w9, [x23, #8]
   80d54:	b90033e9 	str	w9, [sp, #48]
   80d58:	a97fa6ea 	ldp	x10, x9, [x23, #-8]
   80d5c:	b40001ca 	cbz	x10, 80d94 <core::fmt::write+0xe0>
   80d60:	f100055f 	cmp	x10, #0x1
   80d64:	540000a1 	b.ne	80d78 <core::fmt::write+0xc4>  // b.any
   80d68:	8b091109 	add	x9, x8, x9, lsl #4
   80d6c:	f940052a 	ldr	x10, [x9, #8]
   80d70:	eb18015f 	cmp	x10, x24
   80d74:	540000c0 	b.eq	80d8c <core::fmt::write+0xd8>  // b.none
   80d78:	aa1f03ea 	mov	x10, xzr
   80d7c:	a90127ff 	stp	xzr, x9, [sp, #16]
   80d80:	a97ea6ea 	ldp	x10, x9, [x23, #-24]
   80d84:	b500010a 	cbnz	x10, 80da4 <core::fmt::write+0xf0>
   80d88:	14000011 	b	80dcc <core::fmt::write+0x118>
   80d8c:	f9400129 	ldr	x9, [x9]
   80d90:	f9400129 	ldr	x9, [x9]
   80d94:	5280002a 	mov	w10, #0x1                   	// #1
   80d98:	a90127ea 	stp	x10, x9, [sp, #16]
   80d9c:	a97ea6ea 	ldp	x10, x9, [x23, #-24]
   80da0:	b400016a 	cbz	x10, 80dcc <core::fmt::write+0x118>
   80da4:	f100055f 	cmp	x10, #0x1
   80da8:	540000a1 	b.ne	80dbc <core::fmt::write+0x108>  // b.any
   80dac:	8b091109 	add	x9, x8, x9, lsl #4
   80db0:	f940052a 	ldr	x10, [x9, #8]
   80db4:	eb18015f 	cmp	x10, x24
   80db8:	54000060 	b.eq	80dc4 <core::fmt::write+0x110>  // b.none
   80dbc:	aa1f03ea 	mov	x10, xzr
   80dc0:	14000004 	b	80dd0 <core::fmt::write+0x11c>
   80dc4:	f9400129 	ldr	x9, [x9]
   80dc8:	f9400129 	ldr	x9, [x9]
   80dcc:	5280002a 	mov	w10, #0x1                   	// #1
   80dd0:	a90227ea 	stp	x10, x9, [sp, #32]
   80dd4:	910003e1 	mov	x1, sp
   80dd8:	f9400ee9 	ldr	x9, [x23, #24]
   80ddc:	8b091108 	add	x8, x8, x9, lsl #4
   80de0:	a9402500 	ldp	x0, x9, [x8]
   80de4:	d63f0120 	blr	x9
   80de8:	370005c0 	tbnz	w0, #0, 80ea0 <core::fmt::write+0x1ec>
   80dec:	910042d6 	add	x22, x22, #0x10
   80df0:	f100e2b5 	subs	x21, x21, #0x38
   80df4:	9100e2f7 	add	x23, x23, #0x38
   80df8:	54fff941 	b.ne	80d20 <core::fmt::write+0x6c>  // b.any
   80dfc:	1400001a 	b	80e64 <core::fmt::write+0x1b0>
   80e00:	f9401668 	ldr	x8, [x19, #40]
   80e04:	b4000388 	cbz	x8, 80e74 <core::fmt::write+0x1c0>
   80e08:	f9400a69 	ldr	x9, [x19, #16]
   80e0c:	d100050b 	sub	x11, x8, #0x1
   80e10:	f940126a 	ldr	x10, [x19, #32]
   80e14:	9240ed6b 	and	x11, x11, #0xfffffffffffffff
   80e18:	91000574 	add	x20, x11, #0x1
   80e1c:	d37ced17 	lsl	x23, x8, #4
   80e20:	91002135 	add	x21, x9, #0x8
   80e24:	91002156 	add	x22, x10, #0x8
   80e28:	f94002a2 	ldr	x2, [x21]
   80e2c:	b40000c2 	cbz	x2, 80e44 <core::fmt::write+0x190>
   80e30:	a94023e0 	ldp	x0, x8, [sp]
   80e34:	f85f82a1 	ldur	x1, [x21, #-8]
   80e38:	f9400d08 	ldr	x8, [x8, #24]
   80e3c:	d63f0100 	blr	x8
   80e40:	37000300 	tbnz	w0, #0, 80ea0 <core::fmt::write+0x1ec>
   80e44:	a97fa2c0 	ldp	x0, x8, [x22, #-8]
   80e48:	910003e1 	mov	x1, sp
   80e4c:	d63f0100 	blr	x8
   80e50:	37000280 	tbnz	w0, #0, 80ea0 <core::fmt::write+0x1ec>
   80e54:	910042b5 	add	x21, x21, #0x10
   80e58:	910042d6 	add	x22, x22, #0x10
   80e5c:	f10042f7 	subs	x23, x23, #0x10
   80e60:	54fffe41 	b.ne	80e28 <core::fmt::write+0x174>  // b.any
   80e64:	f9400e68 	ldr	x8, [x19, #24]
   80e68:	eb08029f 	cmp	x20, x8
   80e6c:	540000c3 	b.cc	80e84 <core::fmt::write+0x1d0>  // b.lo, b.ul, b.last
   80e70:	14000013 	b	80ebc <core::fmt::write+0x208>
   80e74:	aa1f03f4 	mov	x20, xzr
   80e78:	f9400e68 	ldr	x8, [x19, #24]
   80e7c:	eb0803ff 	cmp	xzr, x8
   80e80:	540001e2 	b.cs	80ebc <core::fmt::write+0x208>  // b.hs, b.nlast
   80e84:	f9400a68 	ldr	x8, [x19, #16]
   80e88:	a94027e0 	ldp	x0, x9, [sp]
   80e8c:	8b141108 	add	x8, x8, x20, lsl #4
   80e90:	a9400901 	ldp	x1, x2, [x8]
   80e94:	f9400d28 	ldr	x8, [x9, #24]
   80e98:	d63f0100 	blr	x8
   80e9c:	36000100 	tbz	w0, #0, 80ebc <core::fmt::write+0x208>
   80ea0:	52800020 	mov	w0, #0x1                   	// #1
   80ea4:	a9474ff4 	ldp	x20, x19, [sp, #112]
   80ea8:	a94657f6 	ldp	x22, x21, [sp, #96]
   80eac:	a9455ff8 	ldp	x24, x23, [sp, #80]
   80eb0:	f94023fe 	ldr	x30, [sp, #64]
   80eb4:	910203ff 	add	sp, sp, #0x80
   80eb8:	d65f03c0 	ret
   80ebc:	2a1f03e0 	mov	w0, wzr
   80ec0:	a9474ff4 	ldp	x20, x19, [sp, #112]
   80ec4:	a94657f6 	ldp	x22, x21, [sp, #96]
   80ec8:	a9455ff8 	ldp	x24, x23, [sp, #80]
   80ecc:	f94023fe 	ldr	x30, [sp, #64]
   80ed0:	910203ff 	add	sp, sp, #0x80
   80ed4:	d65f03c0 	ret

0000000000080ed8 <core::fmt::num::imp::<impl core::fmt::Display for u32>::fmt>:
   80ed8:	d10103ff 	sub	sp, sp, #0x40
   80edc:	f9001bfe 	str	x30, [sp, #48]
   80ee0:	b940000a 	ldr	w10, [x0]
   80ee4:	aa0103e8 	mov	x8, x1
   80ee8:	53047d49 	lsr	w9, w10, #4
   80eec:	7109c53f 	cmp	w9, #0x271
   80ef0:	b0000029 	adrp	x9, 85000 <compiler_builtins::mem::__llvm_memset_element_unordered_atomic_16+0x70c>
   80ef4:	91045129 	add	x9, x9, #0x114
   80ef8:	540004e3 	b.cc	80f94 <core::fmt::num::imp::<impl core::fmt::Display for u32>::fmt+0xbc>  // b.lo, b.ul, b.last
   80efc:	d28b296b 	mov	x11, #0x594b                	// #22859
   80f00:	529c1ff0 	mov	w16, #0xe0ff                	// #57599
   80f04:	f2a710cb 	movk	x11, #0x3886, lsl #16
   80f08:	aa1f03f1 	mov	x17, xzr
   80f0c:	f2d8bacb 	movk	x11, #0xc5d6, lsl #32
   80f10:	529b1e0c 	mov	w12, #0xd8f0                	// #55536
   80f14:	f2e68dab 	movk	x11, #0x346d, lsl #48
   80f18:	52828f6d 	mov	w13, #0x147b                	// #5243
   80f1c:	12800c6e 	mov	w14, #0xffffff9c            	// #-100
   80f20:	910023ef 	add	x15, sp, #0x8
   80f24:	72a0beb0 	movk	w16, #0x5f5, lsl #16
   80f28:	aa0a03e0 	mov	x0, x10
   80f2c:	9bcb7d4a 	umulh	x10, x10, x11
   80f30:	eb10001f 	cmp	x0, x16
   80f34:	d34bfd4a 	lsr	x10, x10, #11
   80f38:	1b0c0152 	madd	w18, w10, w12, w0
   80f3c:	53023e41 	ubfx	w1, w18, #2, #14
   80f40:	1b0d7c21 	mul	w1, w1, w13
   80f44:	53117c21 	lsr	w1, w1, #17
   80f48:	1b0e4822 	madd	w2, w1, w14, w18
   80f4c:	8b214521 	add	x1, x9, w1, uxtw #1
   80f50:	aa1103f2 	mov	x18, x17
   80f54:	8b222531 	add	x17, x9, w2, uxth #1
   80f58:	8b1201e2 	add	x2, x15, x18
   80f5c:	39400423 	ldrb	w3, [x1, #1]
   80f60:	39400021 	ldrb	w1, [x1]
   80f64:	39400624 	ldrb	w4, [x17, #1]
   80f68:	39009043 	strb	w3, [x2, #36]
   80f6c:	39400223 	ldrb	w3, [x17]
   80f70:	d1001251 	sub	x17, x18, #0x4
   80f74:	39008c41 	strb	w1, [x2, #35]
   80f78:	39009844 	strb	w4, [x2, #38]
   80f7c:	39009443 	strb	w3, [x2, #37]
   80f80:	54fffd48 	b.hi	80f28 <core::fmt::num::imp::<impl core::fmt::Display for u32>::fmt+0x50>  // b.pmore
   80f84:	91008e4b 	add	x11, x18, #0x23
   80f88:	f1018d5f 	cmp	x10, #0x63
   80f8c:	540000a8 	b.hi	80fa0 <core::fmt::num::imp::<impl core::fmt::Display for u32>::fmt+0xc8>  // b.pmore
   80f90:	14000014 	b	80fe0 <core::fmt::num::imp::<impl core::fmt::Display for u32>::fmt+0x108>
   80f94:	528004eb 	mov	w11, #0x27                  	// #39
   80f98:	f1018d5f 	cmp	x10, #0x63
   80f9c:	54000229 	b.ls	80fe0 <core::fmt::num::imp::<impl core::fmt::Display for u32>::fmt+0x108>  // b.plast
   80fa0:	53023d4c 	ubfx	w12, w10, #2, #14
   80fa4:	52828f6d 	mov	w13, #0x147b                	// #5243
   80fa8:	d100096e 	sub	x14, x11, #0x2
   80fac:	1b0d7d8c 	mul	w12, w12, w13
   80fb0:	12800c6d 	mov	w13, #0xffffff9c            	// #-100
   80fb4:	53117d8c 	lsr	w12, w12, #17
   80fb8:	1b0d298a 	madd	w10, w12, w13, w10
   80fbc:	910023ed 	add	x13, sp, #0x8
   80fc0:	8b0b01ad 	add	x13, x13, x11
   80fc4:	aa0e03eb 	mov	x11, x14
   80fc8:	8b2a252a 	add	x10, x9, w10, uxth #1
   80fcc:	3940054f 	ldrb	w15, [x10, #1]
   80fd0:	39400150 	ldrb	w16, [x10]
   80fd4:	aa0c03ea 	mov	x10, x12
   80fd8:	381ff1af 	sturb	w15, [x13, #-1]
   80fdc:	381fe1b0 	sturb	w16, [x13, #-2]
   80fe0:	f100295f 	cmp	x10, #0xa
   80fe4:	540000e2 	b.cs	81000 <core::fmt::num::imp::<impl core::fmt::Display for u32>::fmt+0x128>  // b.hs, b.nlast
   80fe8:	910023e9 	add	x9, sp, #0x8
   80fec:	1100c14a 	add	w10, w10, #0x30
   80ff0:	8b0b012c 	add	x12, x9, x11
   80ff4:	d1000569 	sub	x9, x11, #0x1
   80ff8:	381ff18a 	sturb	w10, [x12, #-1]
   80ffc:	14000009 	b	81020 <core::fmt::num::imp::<impl core::fmt::Display for u32>::fmt+0x148>
   81000:	8b0a0529 	add	x9, x9, x10, lsl #1
   81004:	910023ea 	add	x10, sp, #0x8
   81008:	8b0b014a 	add	x10, x10, x11
   8100c:	3940052c 	ldrb	w12, [x9, #1]
   81010:	3940012d 	ldrb	w13, [x9]
   81014:	d1000969 	sub	x9, x11, #0x2
   81018:	381ff14c 	sturb	w12, [x10, #-1]
   8101c:	381fe14d 	sturb	w13, [x10, #-2]
   81020:	910023ea 	add	x10, sp, #0x8
   81024:	528004eb 	mov	w11, #0x27                  	// #39
   81028:	8b090143 	add	x3, x10, x9
   8102c:	cb090164 	sub	x4, x11, x9
   81030:	b0000021 	adrp	x1, 86000 <compiler_builtins::mem::__llvm_memset_element_unordered_atomic_16+0x170c>
   81034:	910cc021 	add	x1, x1, #0x330
   81038:	aa0803e0 	mov	x0, x8
   8103c:	aa1f03e2 	mov	x2, xzr
   81040:	97fffc9b 	bl	802ac <core::fmt::Formatter::pad_integral>
   81044:	f9401bfe 	ldr	x30, [sp, #48]
   81048:	910103ff 	add	sp, sp, #0x40
   8104c:	d65f03c0 	ret

0000000000081050 <core::result::unwrap_failed>:
   81050:	52800568 	mov	w8, #0x2b                  	// #43
   81054:	a9b923e0 	stp	x0, x8, [sp, #-112]!
   81058:	910003e8 	mov	x8, sp
   8105c:	f0ffffe9 	adrp	x9, 80000 <_start>
   81060:	91326129 	add	x9, x9, #0xc98
   81064:	a9010be1 	stp	x1, x2, [sp, #16]
   81068:	9000002a 	adrp	x10, 85000 <compiler_builtins::mem::__llvm_memset_element_unordered_atomic_16+0x70c>
   8106c:	9102214a 	add	x10, x10, #0x88
   81070:	910083e0 	add	x0, sp, #0x20
   81074:	aa0303e1 	mov	x1, x3
   81078:	a90527e8 	stp	x8, x9, [sp, #80]
   8107c:	910043e8 	add	x8, sp, #0x10
   81080:	f0ffffe9 	adrp	x9, 80000 <_start>
   81084:	9132a129 	add	x9, x9, #0xca8
   81088:	f90013ff 	str	xzr, [sp, #32]
   8108c:	a90627e8 	stp	x8, x9, [sp, #96]
   81090:	52800048 	mov	w8, #0x2                   	// #2
   81094:	910143e9 	add	x9, sp, #0x50
   81098:	a90323ea 	stp	x10, x8, [sp, #48]
   8109c:	a90423e9 	stp	x9, x8, [sp, #64]
   810a0:	97fffc13 	bl	800ec <core::panicking::panic_fmt>
   810a4:	d4200020 	brk	#0x1

00000000000810a8 <<core::fmt::builders::PadAdapter as core::fmt::Write>::write_str>:
   810a8:	d101c3ff 	sub	sp, sp, #0x70
   810ac:	a9017bfd 	stp	x29, x30, [sp, #16]
   810b0:	a9026ffc 	stp	x28, x27, [sp, #32]
   810b4:	a90367fa 	stp	x26, x25, [sp, #48]
   810b8:	a9045ff8 	stp	x24, x23, [sp, #64]
   810bc:	a90557f6 	stp	x22, x21, [sp, #80]
   810c0:	a9064ff4 	stp	x20, x19, [sp, #96]
   810c4:	d2814159 	mov	x25, #0xa0a                 	// #2570
   810c8:	b207dbf7 	mov	x23, #0xfefefefefefefefe    	// #-72340172838076674
   810cc:	a940e008 	ldp	x8, x24, [x0, #8]
   810d0:	f2a14159 	movk	x25, #0xa0a, lsl #16
   810d4:	aa0203fa 	mov	x26, x2
   810d8:	f2c14159 	movk	x25, #0xa0a, lsl #32
   810dc:	aa0103f4 	mov	x20, x1
   810e0:	aa1f03fb 	mov	x27, xzr
   810e4:	aa1f03fc 	mov	x28, xzr
   810e8:	2a1f03fd 	mov	w29, wzr
   810ec:	f29fdff7 	movk	x23, #0xfeff
   810f0:	f9400015 	ldr	x21, [x0]
   810f4:	f2e14159 	movk	x25, #0xa0a, lsl #48
   810f8:	f90007e8 	str	x8, [sp, #8]
   810fc:	1400000c 	b	8112c <<core::fmt::builders::PadAdapter as core::fmt::Write>::write_str+0x84>
   81100:	8b020028 	add	x8, x1, x2
   81104:	385ff108 	ldurb	w8, [x8, #-1]
   81108:	7100291f 	cmp	w8, #0xa
   8110c:	1a9f17e8 	cset	w8, eq  // eq = none
   81110:	39000308 	strb	w8, [x24]
   81114:	f94007e8 	ldr	x8, [sp, #8]
   81118:	aa1503e0 	mov	x0, x21
   8111c:	f9400d08 	ldr	x8, [x8, #24]
   81120:	d63f0100 	blr	x8
   81124:	aa1603fb 	mov	x27, x22
   81128:	37000d80 	tbnz	w0, #0, 812d8 <<core::fmt::builders::PadAdapter as core::fmt::Write>::write_str+0x230>
   8112c:	35000d3d 	cbnz	w29, 812d0 <<core::fmt::builders::PadAdapter as core::fmt::Write>::write_str+0x228>
   81130:	eb1a039f 	cmp	x28, x26
   81134:	54000a48 	b.hi	8127c <<core::fmt::builders::PadAdapter as core::fmt::Write>::write_str+0x1d4>  // b.pmore
   81138:	cb1c0341 	sub	x1, x26, x28
   8113c:	aa1c03e8 	mov	x8, x28
   81140:	8b1c0289 	add	x9, x20, x28
   81144:	f100402a 	subs	x10, x1, #0x10
   81148:	54000162 	b.cs	81174 <<core::fmt::builders::PadAdapter as core::fmt::Write>::write_str+0xcc>  // b.hs, b.nlast
   8114c:	eb1a011f 	cmp	x8, x26
   81150:	54000940 	b.eq	81278 <<core::fmt::builders::PadAdapter as core::fmt::Write>::write_str+0x1d0>  // b.none
   81154:	aa1f03eb 	mov	x11, xzr
   81158:	386b692a 	ldrb	w10, [x9, x11]
   8115c:	7100295f 	cmp	w10, #0xa
   81160:	540006e0 	b.eq	8123c <<core::fmt::builders::PadAdapter as core::fmt::Write>::write_str+0x194>  // b.none
   81164:	9100056b 	add	x11, x11, #0x1
   81168:	eb0b003f 	cmp	x1, x11
   8116c:	54ffff61 	b.ne	81158 <<core::fmt::builders::PadAdapter as core::fmt::Write>::write_str+0xb0>  // b.any
   81170:	14000042 	b	81278 <<core::fmt::builders::PadAdapter as core::fmt::Write>::write_str+0x1d0>
   81174:	91001d2b 	add	x11, x9, #0x7
   81178:	927df16b 	and	x11, x11, #0xfffffffffffffff8
   8117c:	eb09016b 	subs	x11, x11, x9
   81180:	540001c0 	b.eq	811b8 <<core::fmt::builders::PadAdapter as core::fmt::Write>::write_str+0x110>  // b.none
   81184:	eb01017f 	cmp	x11, x1
   81188:	9a813160 	csel	x0, x11, x1, cc  // cc = lo, ul, last
   8118c:	b4000160 	cbz	x0, 811b8 <<core::fmt::builders::PadAdapter as core::fmt::Write>::write_str+0x110>
   81190:	aa1f03eb 	mov	x11, xzr
   81194:	386b692c 	ldrb	w12, [x9, x11]
   81198:	7100299f 	cmp	w12, #0xa
   8119c:	54000500 	b.eq	8123c <<core::fmt::builders::PadAdapter as core::fmt::Write>::write_str+0x194>  // b.none
   811a0:	9100056b 	add	x11, x11, #0x1
   811a4:	eb0b001f 	cmp	x0, x11
   811a8:	54ffff61 	b.ne	81194 <<core::fmt::builders::PadAdapter as core::fmt::Write>::write_str+0xec>  // b.any
   811ac:	eb0a001f 	cmp	x0, x10
   811b0:	54000069 	b.ls	811bc <<core::fmt::builders::PadAdapter as core::fmt::Write>::write_str+0x114>  // b.plast
   811b4:	14000014 	b	81204 <<core::fmt::builders::PadAdapter as core::fmt::Write>::write_str+0x15c>
   811b8:	aa1f03e0 	mov	x0, xzr
   811bc:	f860692b 	ldr	x11, [x9, x0]
   811c0:	ca19016c 	eor	x12, x11, x25
   811c4:	8b17018c 	add	x12, x12, x23
   811c8:	8a2b018b 	bic	x11, x12, x11
   811cc:	f201c17f 	tst	x11, #0x8080808080808080
   811d0:	54000161 	b.ne	811fc <<core::fmt::builders::PadAdapter as core::fmt::Write>::write_str+0x154>  // b.any
   811d4:	8b00012b 	add	x11, x9, x0
   811d8:	f940056b 	ldr	x11, [x11, #8]
   811dc:	ca19016c 	eor	x12, x11, x25
   811e0:	8b17018c 	add	x12, x12, x23
   811e4:	8a2b018b 	bic	x11, x12, x11
   811e8:	f201c17f 	tst	x11, #0x8080808080808080
   811ec:	54000081 	b.ne	811fc <<core::fmt::builders::PadAdapter as core::fmt::Write>::write_str+0x154>  // b.any
   811f0:	91004000 	add	x0, x0, #0x10
   811f4:	eb0a001f 	cmp	x0, x10
   811f8:	54fffe29 	b.ls	811bc <<core::fmt::builders::PadAdapter as core::fmt::Write>::write_str+0x114>  // b.plast
   811fc:	eb01001f 	cmp	x0, x1
   81200:	540007e8 	b.hi	812fc <<core::fmt::builders::PadAdapter as core::fmt::Write>::write_str+0x254>  // b.pmore
   81204:	eb00003f 	cmp	x1, x0
   81208:	54000380 	b.eq	81278 <<core::fmt::builders::PadAdapter as core::fmt::Write>::write_str+0x1d0>  // b.none
   8120c:	cb00034b 	sub	x11, x26, x0
   81210:	aa1f03ea 	mov	x10, xzr
   81214:	8b000129 	add	x9, x9, x0
   81218:	cb08016b 	sub	x11, x11, x8
   8121c:	386a692c 	ldrb	w12, [x9, x10]
   81220:	7100299f 	cmp	w12, #0xa
   81224:	540000a0 	b.eq	81238 <<core::fmt::builders::PadAdapter as core::fmt::Write>::write_str+0x190>  // b.none
   81228:	9100054a 	add	x10, x10, #0x1
   8122c:	eb0a017f 	cmp	x11, x10
   81230:	54ffff61 	b.ne	8121c <<core::fmt::builders::PadAdapter as core::fmt::Write>::write_str+0x174>  // b.any
   81234:	14000011 	b	81278 <<core::fmt::builders::PadAdapter as core::fmt::Write>::write_str+0x1d0>
   81238:	8b00014b 	add	x11, x10, x0
   8123c:	8b0b0109 	add	x9, x8, x11
   81240:	b100053c 	adds	x28, x9, #0x1
   81244:	54fff760 	b.eq	81130 <<core::fmt::builders::PadAdapter as core::fmt::Write>::write_str+0x88>  // b.none
   81248:	eb1a039f 	cmp	x28, x26
   8124c:	54fff728 	b.hi	81130 <<core::fmt::builders::PadAdapter as core::fmt::Write>::write_str+0x88>  // b.pmore
   81250:	8b0b0108 	add	x8, x8, x11
   81254:	38686a88 	ldrb	w8, [x20, x8]
   81258:	7100291f 	cmp	w8, #0xa
   8125c:	54fff6a1 	b.ne	81130 <<core::fmt::builders::PadAdapter as core::fmt::Write>::write_str+0x88>  // b.any
   81260:	2a1f03fd 	mov	w29, wzr
   81264:	aa1c03f6 	mov	x22, x28
   81268:	aa1c03f3 	mov	x19, x28
   8126c:	39400308 	ldrb	w8, [x24]
   81270:	35000148 	cbnz	w8, 81298 <<core::fmt::builders::PadAdapter as core::fmt::Write>::write_str+0x1f0>
   81274:	14000011 	b	812b8 <<core::fmt::builders::PadAdapter as core::fmt::Write>::write_str+0x210>
   81278:	aa1a03fc 	mov	x28, x26
   8127c:	eb1a037f 	cmp	x27, x26
   81280:	54000280 	b.eq	812d0 <<core::fmt::builders::PadAdapter as core::fmt::Write>::write_str+0x228>  // b.none
   81284:	5280003d 	mov	w29, #0x1                   	// #1
   81288:	aa1b03f6 	mov	x22, x27
   8128c:	aa1a03f3 	mov	x19, x26
   81290:	39400308 	ldrb	w8, [x24]
   81294:	34000128 	cbz	w8, 812b8 <<core::fmt::builders::PadAdapter as core::fmt::Write>::write_str+0x210>
   81298:	f94007e8 	ldr	x8, [sp, #8]
   8129c:	aa1503e0 	mov	x0, x21
   812a0:	f0000001 	adrp	x1, 84000 <rust_begin_unwind+0xb4>
   812a4:	913c8821 	add	x1, x1, #0xf22
   812a8:	52800082 	mov	w2, #0x4                   	// #4
   812ac:	f9400d08 	ldr	x8, [x8, #24]
   812b0:	d63f0100 	blr	x8
   812b4:	35000120 	cbnz	w0, 812d8 <<core::fmt::builders::PadAdapter as core::fmt::Write>::write_str+0x230>
   812b8:	cb1b0262 	sub	x2, x19, x27
   812bc:	8b1b0281 	add	x1, x20, x27
   812c0:	eb1b027f 	cmp	x19, x27
   812c4:	54fff1e1 	b.ne	81100 <<core::fmt::builders::PadAdapter as core::fmt::Write>::write_str+0x58>  // b.any
   812c8:	2a1f03e8 	mov	w8, wzr
   812cc:	17ffff91 	b	81110 <<core::fmt::builders::PadAdapter as core::fmt::Write>::write_str+0x68>
   812d0:	2a1f03e0 	mov	w0, wzr
   812d4:	14000002 	b	812dc <<core::fmt::builders::PadAdapter as core::fmt::Write>::write_str+0x234>
   812d8:	52800020 	mov	w0, #0x1                   	// #1
   812dc:	a9464ff4 	ldp	x20, x19, [sp, #96]
   812e0:	a94557f6 	ldp	x22, x21, [sp, #80]
   812e4:	a9445ff8 	ldp	x24, x23, [sp, #64]
   812e8:	a94367fa 	ldp	x26, x25, [sp, #48]
   812ec:	a9426ffc 	ldp	x28, x27, [sp, #32]
   812f0:	a9417bfd 	ldp	x29, x30, [sp, #16]
   812f4:	9101c3ff 	add	sp, sp, #0x70
   812f8:	d65f03c0 	ret
   812fc:	90000022 	adrp	x2, 85000 <compiler_builtins::mem::__llvm_memset_element_unordered_atomic_16+0x70c>
   81300:	9108c042 	add	x2, x2, #0x230
   81304:	97fffcc2 	bl	8060c <core::slice::index::slice_start_index_len_fail>
   81308:	d4200020 	brk	#0x1

000000000008130c <core::fmt::Write::write_char>:
   8130c:	f81f0ffe 	str	x30, [sp, #-16]!
   81310:	7102003f 	cmp	w1, #0x80
   81314:	b9000fff 	str	wzr, [sp, #12]
   81318:	540000e2 	b.cs	81334 <core::fmt::Write::write_char+0x28>  // b.hs, b.nlast
   8131c:	52800022 	mov	w2, #0x1                   	// #1
   81320:	390033e1 	strb	w1, [sp, #12]
   81324:	910033e1 	add	x1, sp, #0xc
   81328:	97ffff60 	bl	810a8 <<core::fmt::builders::PadAdapter as core::fmt::Write>::write_str>
   8132c:	f84107fe 	ldr	x30, [sp], #16
   81330:	d65f03c0 	ret
   81334:	7120003f 	cmp	w1, #0x800
   81338:	54000182 	b.cs	81368 <core::fmt::Write::write_char+0x5c>  // b.hs, b.nlast
   8133c:	53067c28 	lsr	w8, w1, #6
   81340:	52801009 	mov	w9, #0x80                  	// #128
   81344:	321a0508 	orr	w8, w8, #0xc0
   81348:	33001429 	bfxil	w9, w1, #0, #6
   8134c:	52800042 	mov	w2, #0x2                   	// #2
   81350:	390033e8 	strb	w8, [sp, #12]
   81354:	390037e9 	strb	w9, [sp, #13]
   81358:	910033e1 	add	x1, sp, #0xc
   8135c:	97ffff53 	bl	810a8 <<core::fmt::builders::PadAdapter as core::fmt::Write>::write_str>
   81360:	f84107fe 	ldr	x30, [sp], #16
   81364:	d65f03c0 	ret
   81368:	7140403f 	cmp	w1, #0x10, lsl #12
   8136c:	540001e2 	b.cs	813a8 <core::fmt::Write::write_char+0x9c>  // b.hs, b.nlast
   81370:	530c7c28 	lsr	w8, w1, #12
   81374:	52801009 	mov	w9, #0x80                  	// #128
   81378:	5280100a 	mov	w10, #0x80                  	// #128
   8137c:	321b0908 	orr	w8, w8, #0xe0
   81380:	33062c29 	bfxil	w9, w1, #6, #6
   81384:	3300142a 	bfxil	w10, w1, #0, #6
   81388:	52800062 	mov	w2, #0x3                   	// #3
   8138c:	390033e8 	strb	w8, [sp, #12]
   81390:	390037e9 	strb	w9, [sp, #13]
   81394:	39003bea 	strb	w10, [sp, #14]
   81398:	910033e1 	add	x1, sp, #0xc
   8139c:	97ffff43 	bl	810a8 <<core::fmt::builders::PadAdapter as core::fmt::Write>::write_str>
   813a0:	f84107fe 	ldr	x30, [sp], #16
   813a4:	d65f03c0 	ret
   813a8:	52801e08 	mov	w8, #0xf0                  	// #240
   813ac:	52801009 	mov	w9, #0x80                  	// #128
   813b0:	5280100a 	mov	w10, #0x80                  	// #128
   813b4:	5280100b 	mov	w11, #0x80                  	// #128
   813b8:	33125028 	bfxil	w8, w1, #18, #3
   813bc:	330c4429 	bfxil	w9, w1, #12, #6
   813c0:	33062c2a 	bfxil	w10, w1, #6, #6
   813c4:	3300142b 	bfxil	w11, w1, #0, #6
   813c8:	52800082 	mov	w2, #0x4                   	// #4
   813cc:	390033e8 	strb	w8, [sp, #12]
   813d0:	390037e9 	strb	w9, [sp, #13]
   813d4:	39003bea 	strb	w10, [sp, #14]
   813d8:	39003feb 	strb	w11, [sp, #15]
   813dc:	910033e1 	add	x1, sp, #0xc
   813e0:	97ffff32 	bl	810a8 <<core::fmt::builders::PadAdapter as core::fmt::Write>::write_str>
   813e4:	f84107fe 	ldr	x30, [sp], #16
   813e8:	d65f03c0 	ret

00000000000813ec <core::fmt::Write::write_fmt>:
   813ec:	d10103ff 	sub	sp, sp, #0x40
   813f0:	a90303fe 	stp	x30, x0, [sp, #48]
   813f4:	910003e0 	mov	x0, sp
   813f8:	52800602 	mov	w2, #0x30                  	// #48
   813fc:	94000b4b 	bl	84128 <memcpy>
   81400:	90000021 	adrp	x1, 85000 <compiler_builtins::mem::__llvm_memset_element_unordered_atomic_16+0x70c>
   81404:	91078021 	add	x1, x1, #0x1e0
   81408:	9100e3e0 	add	x0, sp, #0x38
   8140c:	910003e2 	mov	x2, sp
   81410:	97fffe29 	bl	80cb4 <core::fmt::write>
   81414:	f9401bfe 	ldr	x30, [sp, #48]
   81418:	910103ff 	add	sp, sp, #0x40
   8141c:	d65f03c0 	ret

0000000000081420 <<&mut W as core::fmt::Write>::write_str>:
   81420:	f9400000 	ldr	x0, [x0]
   81424:	17ffff21 	b	810a8 <<core::fmt::builders::PadAdapter as core::fmt::Write>::write_str>

0000000000081428 <<&mut W as core::fmt::Write>::write_char>:
   81428:	f81f0ffe 	str	x30, [sp, #-16]!
   8142c:	f9400000 	ldr	x0, [x0]
   81430:	7102003f 	cmp	w1, #0x80
   81434:	b9000fff 	str	wzr, [sp, #12]
   81438:	540000e2 	b.cs	81454 <<&mut W as core::fmt::Write>::write_char+0x2c>  // b.hs, b.nlast
   8143c:	52800022 	mov	w2, #0x1                   	// #1
   81440:	390033e1 	strb	w1, [sp, #12]
   81444:	910033e1 	add	x1, sp, #0xc
   81448:	97ffff18 	bl	810a8 <<core::fmt::builders::PadAdapter as core::fmt::Write>::write_str>
   8144c:	f84107fe 	ldr	x30, [sp], #16
   81450:	d65f03c0 	ret
   81454:	7120003f 	cmp	w1, #0x800
   81458:	54000182 	b.cs	81488 <<&mut W as core::fmt::Write>::write_char+0x60>  // b.hs, b.nlast
   8145c:	53067c28 	lsr	w8, w1, #6
   81460:	52801009 	mov	w9, #0x80                  	// #128
   81464:	321a0508 	orr	w8, w8, #0xc0
   81468:	33001429 	bfxil	w9, w1, #0, #6
   8146c:	52800042 	mov	w2, #0x2                   	// #2
   81470:	390033e8 	strb	w8, [sp, #12]
   81474:	390037e9 	strb	w9, [sp, #13]
   81478:	910033e1 	add	x1, sp, #0xc
   8147c:	97ffff0b 	bl	810a8 <<core::fmt::builders::PadAdapter as core::fmt::Write>::write_str>
   81480:	f84107fe 	ldr	x30, [sp], #16
   81484:	d65f03c0 	ret
   81488:	7140403f 	cmp	w1, #0x10, lsl #12
   8148c:	540001e2 	b.cs	814c8 <<&mut W as core::fmt::Write>::write_char+0xa0>  // b.hs, b.nlast
   81490:	530c7c28 	lsr	w8, w1, #12
   81494:	52801009 	mov	w9, #0x80                  	// #128
   81498:	5280100a 	mov	w10, #0x80                  	// #128
   8149c:	321b0908 	orr	w8, w8, #0xe0
   814a0:	33062c29 	bfxil	w9, w1, #6, #6
   814a4:	3300142a 	bfxil	w10, w1, #0, #6
   814a8:	52800062 	mov	w2, #0x3                   	// #3
   814ac:	390033e8 	strb	w8, [sp, #12]
   814b0:	390037e9 	strb	w9, [sp, #13]
   814b4:	39003bea 	strb	w10, [sp, #14]
   814b8:	910033e1 	add	x1, sp, #0xc
   814bc:	97fffefb 	bl	810a8 <<core::fmt::builders::PadAdapter as core::fmt::Write>::write_str>
   814c0:	f84107fe 	ldr	x30, [sp], #16
   814c4:	d65f03c0 	ret
   814c8:	52801e08 	mov	w8, #0xf0                  	// #240
   814cc:	52801009 	mov	w9, #0x80                  	// #128
   814d0:	5280100a 	mov	w10, #0x80                  	// #128
   814d4:	5280100b 	mov	w11, #0x80                  	// #128
   814d8:	33125028 	bfxil	w8, w1, #18, #3
   814dc:	330c4429 	bfxil	w9, w1, #12, #6
   814e0:	33062c2a 	bfxil	w10, w1, #6, #6
   814e4:	3300142b 	bfxil	w11, w1, #0, #6
   814e8:	52800082 	mov	w2, #0x4                   	// #4
   814ec:	390033e8 	strb	w8, [sp, #12]
   814f0:	390037e9 	strb	w9, [sp, #13]
   814f4:	39003bea 	strb	w10, [sp, #14]
   814f8:	39003feb 	strb	w11, [sp, #15]
   814fc:	910033e1 	add	x1, sp, #0xc
   81500:	97fffeea 	bl	810a8 <<core::fmt::builders::PadAdapter as core::fmt::Write>::write_str>
   81504:	f84107fe 	ldr	x30, [sp], #16
   81508:	d65f03c0 	ret

000000000008150c <<&mut W as core::fmt::Write>::write_fmt>:
   8150c:	d10103ff 	sub	sp, sp, #0x40
   81510:	f9400008 	ldr	x8, [x0]
   81514:	910003e0 	mov	x0, sp
   81518:	52800602 	mov	w2, #0x30                  	// #48
   8151c:	a90323fe 	stp	x30, x8, [sp, #48]
   81520:	94000b02 	bl	84128 <memcpy>
   81524:	90000021 	adrp	x1, 85000 <compiler_builtins::mem::__llvm_memset_element_unordered_atomic_16+0x70c>
   81528:	91078021 	add	x1, x1, #0x1e0
   8152c:	9100e3e0 	add	x0, sp, #0x38
   81530:	910003e2 	mov	x2, sp
   81534:	97fffde0 	bl	80cb4 <core::fmt::write>
   81538:	f9401bfe 	ldr	x30, [sp, #48]
   8153c:	910103ff 	add	sp, sp, #0x40
   81540:	d65f03c0 	ret

0000000000081544 <core::fmt::num::imp::<impl core::fmt::Display for u8>::fmt>:
   81544:	d10103ff 	sub	sp, sp, #0x40
   81548:	f9001bfe 	str	x30, [sp, #48]
   8154c:	39400009 	ldrb	w9, [x0]
   81550:	aa0103e8 	mov	x8, x1
   81554:	12001d2a 	and	w10, w9, #0xff
   81558:	71018d5f 	cmp	w10, #0x63
   8155c:	54000209 	b.ls	8159c <core::fmt::num::imp::<impl core::fmt::Display for u8>::fmt+0x58>  // b.plast
   81560:	5280052b 	mov	w11, #0x29                  	// #41
   81564:	1b0b7d4a 	mul	w10, w10, w11
   81568:	12800c6b 	mov	w11, #0xffffff9c            	// #-100
   8156c:	530c7d4c 	lsr	w12, w10, #12
   81570:	9000002a 	adrp	x10, 85000 <compiler_builtins::mem::__llvm_memset_element_unordered_atomic_16+0x70c>
   81574:	9104514a 	add	x10, x10, #0x114
   81578:	1b0b2589 	madd	w9, w12, w11, w9
   8157c:	8b290549 	add	x9, x10, w9, uxtb #1
   81580:	5280048a 	mov	w10, #0x24                  	// #36
   81584:	3940052b 	ldrb	w11, [x9, #1]
   81588:	3940012d 	ldrb	w13, [x9]
   8158c:	2a0c03e9 	mov	w9, w12
   81590:	3900bbeb 	strb	w11, [sp, #46]
   81594:	3900b7ed 	strb	w13, [sp, #45]
   81598:	14000004 	b	815a8 <core::fmt::num::imp::<impl core::fmt::Display for u8>::fmt+0x64>
   8159c:	7100295f 	cmp	w10, #0xa
   815a0:	540000c2 	b.cs	815b8 <core::fmt::num::imp::<impl core::fmt::Display for u8>::fmt+0x74>  // b.hs, b.nlast
   815a4:	528004ca 	mov	w10, #0x26                  	// #38
   815a8:	1100c129 	add	w9, w9, #0x30
   815ac:	910023eb 	add	x11, sp, #0x8
   815b0:	382a6969 	strb	w9, [x11, x10]
   815b4:	1400000a 	b	815dc <core::fmt::num::imp::<impl core::fmt::Display for u8>::fmt+0x98>
   815b8:	92401d29 	and	x9, x9, #0xff
   815bc:	9000002a 	adrp	x10, 85000 <compiler_builtins::mem::__llvm_memset_element_unordered_atomic_16+0x70c>
   815c0:	9104514a 	add	x10, x10, #0x114
   815c4:	8b090549 	add	x9, x10, x9, lsl #1
   815c8:	528004aa 	mov	w10, #0x25                  	// #37
   815cc:	3940052b 	ldrb	w11, [x9, #1]
   815d0:	39400129 	ldrb	w9, [x9]
   815d4:	3900bbeb 	strb	w11, [sp, #46]
   815d8:	3900b7e9 	strb	w9, [sp, #45]
   815dc:	910023e9 	add	x9, sp, #0x8
   815e0:	528004eb 	mov	w11, #0x27                  	// #39
   815e4:	8b0a0123 	add	x3, x9, x10
   815e8:	cb0a0164 	sub	x4, x11, x10
   815ec:	b0000021 	adrp	x1, 86000 <compiler_builtins::mem::__llvm_memset_element_unordered_atomic_16+0x170c>
   815f0:	910cc021 	add	x1, x1, #0x330
   815f4:	aa0803e0 	mov	x0, x8
   815f8:	aa1f03e2 	mov	x2, xzr
   815fc:	97fffb2c 	bl	802ac <core::fmt::Formatter::pad_integral>
   81600:	f9401bfe 	ldr	x30, [sp, #48]
   81604:	910103ff 	add	sp, sp, #0x40
   81608:	d65f03c0 	ret

000000000008160c <core::fmt::num::<impl core::fmt::Binary for i8>::fmt>:
   8160c:	d10243ff 	sub	sp, sp, #0x90
   81610:	f90043fe 	str	x30, [sp, #128]
   81614:	52800fe8 	mov	w8, #0x7f                  	// #127
   81618:	39400009 	ldrb	w9, [x0]
   8161c:	910003ea 	mov	x10, sp
   81620:	53017d2b 	lsr	w11, w9, #1
   81624:	5280060c 	mov	w12, #0x30                  	// #48
   81628:	3300012c 	bfxil	w12, w9, #0, #1
   8162c:	7100053f 	cmp	w9, #0x1
   81630:	aa0803e0 	mov	x0, x8
   81634:	d1000508 	sub	x8, x8, #0x1
   81638:	2a0b03e9 	mov	w9, w11
   8163c:	3820694c 	strb	w12, [x10, x0]
   81640:	54ffff08 	b.hi	81620 <core::fmt::num::<impl core::fmt::Binary for i8>::fmt+0x14>  // b.pmore
   81644:	f102041f 	cmp	x0, #0x81
   81648:	54000202 	b.cs	81688 <core::fmt::num::<impl core::fmt::Binary for i8>::fmt+0x7c>  // b.hs, b.nlast
   8164c:	91000408 	add	x8, x0, #0x1
   81650:	910003e9 	mov	x9, sp
   81654:	5280102a 	mov	w10, #0x81                  	// #129
   81658:	8b080129 	add	x9, x9, x8
   8165c:	cb080144 	sub	x4, x10, x8
   81660:	90000028 	adrp	x8, 85000 <compiler_builtins::mem::__llvm_memset_element_unordered_atomic_16+0x70c>
   81664:	91044108 	add	x8, x8, #0x110
   81668:	d1000523 	sub	x3, x9, #0x1
   8166c:	aa0103e0 	mov	x0, x1
   81670:	aa0803e1 	mov	x1, x8
   81674:	52800042 	mov	w2, #0x2                   	// #2
   81678:	97fffb0d 	bl	802ac <core::fmt::Formatter::pad_integral>
   8167c:	f94043fe 	ldr	x30, [sp, #128]
   81680:	910243ff 	add	sp, sp, #0x90
   81684:	d65f03c0 	ret
   81688:	90000022 	adrp	x2, 85000 <compiler_builtins::mem::__llvm_memset_element_unordered_atomic_16+0x70c>
   8168c:	9103e042 	add	x2, x2, #0xf8
   81690:	52801001 	mov	w1, #0x80                  	// #128
   81694:	97fffbde 	bl	8060c <core::slice::index::slice_start_index_len_fail>
   81698:	d4200020 	brk	#0x1

000000000008169c <core::fmt::num::<impl core::fmt::LowerHex for i64>::fmt>:
   8169c:	d10243ff 	sub	sp, sp, #0x90
   816a0:	f90043fe 	str	x30, [sp, #128]
   816a4:	52800fe8 	mov	w8, #0x7f                  	// #127
   816a8:	52800ae9 	mov	w9, #0x57                  	// #87
   816ac:	f940000c 	ldr	x12, [x0]
   816b0:	5280060a 	mov	w10, #0x30                  	// #48
   816b4:	910003eb 	mov	x11, sp
   816b8:	12000d8d 	and	w13, w12, #0xf
   816bc:	d344fd8e 	lsr	x14, x12, #4
   816c0:	710029bf 	cmp	w13, #0xa
   816c4:	aa0803e0 	mov	x0, x8
   816c8:	1a89314f 	csel	w15, w10, w9, cc  // cc = lo, ul, last
   816cc:	f1003d9f 	cmp	x12, #0xf
   816d0:	d1000508 	sub	x8, x8, #0x1
   816d4:	aa0e03ec 	mov	x12, x14
   816d8:	0b0d01ed 	add	w13, w15, w13
   816dc:	3820696d 	strb	w13, [x11, x0]
   816e0:	54fffec8 	b.hi	816b8 <core::fmt::num::<impl core::fmt::LowerHex for i64>::fmt+0x1c>  // b.pmore
   816e4:	f102041f 	cmp	x0, #0x81
   816e8:	54000202 	b.cs	81728 <core::fmt::num::<impl core::fmt::LowerHex for i64>::fmt+0x8c>  // b.hs, b.nlast
   816ec:	91000408 	add	x8, x0, #0x1
   816f0:	910003e9 	mov	x9, sp
   816f4:	5280102a 	mov	w10, #0x81                  	// #129
   816f8:	8b080129 	add	x9, x9, x8
   816fc:	cb080144 	sub	x4, x10, x8
   81700:	90000028 	adrp	x8, 85000 <compiler_builtins::mem::__llvm_memset_element_unordered_atomic_16+0x70c>
   81704:	91044908 	add	x8, x8, #0x112
   81708:	d1000523 	sub	x3, x9, #0x1
   8170c:	aa0103e0 	mov	x0, x1
   81710:	aa0803e1 	mov	x1, x8
   81714:	52800042 	mov	w2, #0x2                   	// #2
   81718:	97fffae5 	bl	802ac <core::fmt::Formatter::pad_integral>
   8171c:	f94043fe 	ldr	x30, [sp, #128]
   81720:	910243ff 	add	sp, sp, #0x90
   81724:	d65f03c0 	ret
   81728:	90000022 	adrp	x2, 85000 <compiler_builtins::mem::__llvm_memset_element_unordered_atomic_16+0x70c>
   8172c:	9103e042 	add	x2, x2, #0xf8
   81730:	52801001 	mov	w1, #0x80                  	// #128
   81734:	97fffbb6 	bl	8060c <core::slice::index::slice_start_index_len_fail>
   81738:	d4200020 	brk	#0x1

000000000008173c <<core::fmt::Error as core::fmt::Debug>::fmt>:
   8173c:	a9402020 	ldp	x0, x8, [x1]
   81740:	90000021 	adrp	x1, 85000 <compiler_builtins::mem::__llvm_memset_element_unordered_atomic_16+0x70c>
   81744:	910a8021 	add	x1, x1, #0x2a0
   81748:	528000a2 	mov	w2, #0x5                   	// #5
   8174c:	f9400d03 	ldr	x3, [x8, #24]
   81750:	d61f0060 	br	x3

0000000000081754 <<libkernel::memory::arch_mmu::translation_entry::TranslationTableEntry<libkernel::memory::arch_mmu::translation_entry::Level1> as core::fmt::Display>::fmt>:
   81754:	90000008 	adrp	x8, 81000 <core::fmt::num::imp::<impl core::fmt::Display for u32>::fmt+0x128>
   81758:	911a7108 	add	x8, x8, #0x69c
   8175c:	90000029 	adrp	x9, 85000 <compiler_builtins::mem::__llvm_memset_element_unordered_atomic_16+0x70c>
   81760:	913e4129 	add	x9, x9, #0xf90
   81764:	a9bb23e0 	stp	x0, x8, [sp, #-80]!
   81768:	52800028 	mov	w8, #0x1                   	// #1
   8176c:	9000002a 	adrp	x10, 85000 <compiler_builtins::mem::__llvm_memset_element_unordered_atomic_16+0x70c>
   81770:	910aa14a 	add	x10, x10, #0x2a8
   81774:	910043e2 	add	x2, sp, #0x10
   81778:	a9400420 	ldp	x0, x1, [x1]
   8177c:	a90123e9 	stp	x9, x8, [sp, #16]
   81780:	910003e9 	mov	x9, sp
   81784:	a90223ea 	stp	x10, x8, [sp, #32]
   81788:	a903fbe8 	stp	x8, x30, [sp, #56]
   8178c:	f9001be9 	str	x9, [sp, #48]
   81790:	97fffd49 	bl	80cb4 <core::fmt::write>
   81794:	f94023fe 	ldr	x30, [sp, #64]
   81798:	910143ff 	add	sp, sp, #0x50
   8179c:	d65f03c0 	ret

00000000000817a0 <libkernel::memory::arch_mmu::translation_entry::Descriptor::get_address>:
   817a0:	d1000808 	sub	x8, x0, #0x2
   817a4:	f100091f 	cmp	x8, #0x2
   817a8:	540000e3 	b.cc	817c4 <libkernel::memory::arch_mmu::translation_entry::Descriptor::get_address+0x24>  // b.lo, b.ul, b.last
   817ac:	f100041f 	cmp	x0, #0x1
   817b0:	54000100 	b.eq	817d0 <libkernel::memory::arch_mmu::translation_entry::Descriptor::get_address+0x30>  // b.none
   817b4:	b5000200 	cbnz	x0, 817f4 <libkernel::memory::arch_mmu::translation_entry::Descriptor::get_address+0x54>
   817b8:	d360bc28 	ubfx	x8, x1, #32, #16
   817bc:	92624429 	and	x9, x1, #0xffffc0000000
   817c0:	14000006 	b	817d8 <libkernel::memory::arch_mmu::translation_entry::Descriptor::get_address+0x38>
   817c4:	d360bc28 	ubfx	x8, x1, #32, #16
   817c8:	92748c29 	and	x9, x1, #0xfffffffff000
   817cc:	14000003 	b	817d8 <libkernel::memory::arch_mmu::translation_entry::Descriptor::get_address+0x38>
   817d0:	d360bc28 	ubfx	x8, x1, #32, #16
   817d4:	926b6829 	and	x9, x1, #0xffffffe00000
   817d8:	f100011f 	cmp	x8, #0x0
   817dc:	b000002a 	adrp	x10, 86000 <compiler_builtins::mem::__llvm_memset_element_unordered_atomic_16+0x170c>
   817e0:	9108a14a 	add	x10, x10, #0x228
   817e4:	1a9f17e8 	cset	w8, eq  // eq = none
   817e8:	9a891141 	csel	x1, x10, x9, ne  // ne = any
   817ec:	2a0803e0 	mov	w0, w8
   817f0:	d65f03c0 	ret
   817f4:	2a1f03e0 	mov	w0, wzr
   817f8:	d65f03c0 	ret

00000000000817fc <libkernel::memory::arch_mmu::translation_entry::Descriptor::set_attributes>:
   817fc:	92401c29 	and	x9, x1, #0xff
   81800:	f000000a 	adrp	x10, 84000 <rust_begin_unwind+0xb4>
   81804:	9124e14a 	add	x10, x10, #0x938
   81808:	aa0003e8 	mov	x8, x0
   8180c:	1000008b 	adr	x11, 8181c <libkernel::memory::arch_mmu::translation_entry::Descriptor::set_attributes+0x20>
   81810:	3869694c 	ldrb	w12, [x10, x9]
   81814:	8b0c096b 	add	x11, x11, x12, lsl #2
   81818:	d61f0160 	br	x11
   8181c:	f9400109 	ldr	x9, [x8]
   81820:	f1000d3f 	cmp	x9, #0x3
   81824:	54000be0 	b.eq	819a0 <libkernel::memory::arch_mmu::translation_entry::Descriptor::set_attributes+0x1a4>  // b.none
   81828:	f100053f 	cmp	x9, #0x1
   8182c:	54000ce0 	b.eq	819c8 <libkernel::memory::arch_mmu::translation_entry::Descriptor::set_attributes+0x1cc>  // b.none
   81830:	b5000aa9 	cbnz	x9, 81984 <libkernel::memory::arch_mmu::translation_entry::Descriptor::set_attributes+0x188>
   81834:	f9400509 	ldr	x9, [x8, #8]
   81838:	d280800a 	mov	x10, #0x400                 	// #1024
   8183c:	f2e00c0a 	movk	x10, #0x60, lsl #48
   81840:	aa1f03e0 	mov	x0, xzr
   81844:	aa0a0129 	orr	x9, x9, x10
   81848:	5280608a 	mov	w10, #0x304                 	// #772
   8184c:	aa0a0129 	orr	x9, x9, x10
   81850:	a900251f 	stp	xzr, x9, [x8]
   81854:	d65f03c0 	ret
   81858:	f9400109 	ldr	x9, [x8]
   8185c:	f1000d3f 	cmp	x9, #0x3
   81860:	54000c80 	b.eq	819f0 <libkernel::memory::arch_mmu::translation_entry::Descriptor::set_attributes+0x1f4>  // b.none
   81864:	f100053f 	cmp	x9, #0x1
   81868:	54000d80 	b.eq	81a18 <libkernel::memory::arch_mmu::translation_entry::Descriptor::set_attributes+0x21c>  // b.none
   8186c:	b50008c9 	cbnz	x9, 81984 <libkernel::memory::arch_mmu::translation_entry::Descriptor::set_attributes+0x188>
   81870:	f9400509 	ldr	x9, [x8, #8]
   81874:	d280800a 	mov	x10, #0x400                 	// #1024
   81878:	f2e00c0a 	movk	x10, #0x60, lsl #48
   8187c:	aa1f03e0 	mov	x0, xzr
   81880:	aa0a0129 	orr	x9, x9, x10
   81884:	5280708a 	mov	w10, #0x384                 	// #900
   81888:	aa0a0129 	orr	x9, x9, x10
   8188c:	a900251f 	stp	xzr, x9, [x8]
   81890:	d65f03c0 	ret
   81894:	f9400109 	ldr	x9, [x8]
   81898:	f1000d3f 	cmp	x9, #0x3
   8189c:	54000d20 	b.eq	81a40 <libkernel::memory::arch_mmu::translation_entry::Descriptor::set_attributes+0x244>  // b.none
   818a0:	f100053f 	cmp	x9, #0x1
   818a4:	54000de0 	b.eq	81a60 <libkernel::memory::arch_mmu::translation_entry::Descriptor::set_attributes+0x264>  // b.none
   818a8:	b50006e9 	cbnz	x9, 81984 <libkernel::memory::arch_mmu::translation_entry::Descriptor::set_attributes+0x188>
   818ac:	d280f08a 	mov	x10, #0x784                 	// #1924
   818b0:	aa1f03e0 	mov	x0, xzr
   818b4:	f9400509 	ldr	x9, [x8, #8]
   818b8:	f2e0080a 	movk	x10, #0x40, lsl #48
   818bc:	aa0a0129 	orr	x9, x9, x10
   818c0:	a900251f 	stp	xzr, x9, [x8]
   818c4:	d65f03c0 	ret
   818c8:	f9400109 	ldr	x9, [x8]
   818cc:	f1000d3f 	cmp	x9, #0x3
   818d0:	54000d80 	b.eq	81a80 <libkernel::memory::arch_mmu::translation_entry::Descriptor::set_attributes+0x284>  // b.none
   818d4:	f100053f 	cmp	x9, #0x1
   818d8:	54000e00 	b.eq	81a98 <libkernel::memory::arch_mmu::translation_entry::Descriptor::set_attributes+0x29c>  // b.none
   818dc:	b5000549 	cbnz	x9, 81984 <libkernel::memory::arch_mmu::translation_entry::Descriptor::set_attributes+0x188>
   818e0:	f9400509 	ldr	x9, [x8, #8]
   818e4:	aa1f03e0 	mov	x0, xzr
   818e8:	b2780929 	orr	x9, x9, #0x700
   818ec:	a900251f 	stp	xzr, x9, [x8]
   818f0:	d65f03c0 	ret
   818f4:	f9400109 	ldr	x9, [x8]
   818f8:	f1000d3f 	cmp	x9, #0x3
   818fc:	54000da0 	b.eq	81ab0 <libkernel::memory::arch_mmu::translation_entry::Descriptor::set_attributes+0x2b4>  // b.none
   81900:	f100053f 	cmp	x9, #0x1
   81904:	54000e60 	b.eq	81ad0 <libkernel::memory::arch_mmu::translation_entry::Descriptor::set_attributes+0x2d4>  // b.none
   81908:	b50003e9 	cbnz	x9, 81984 <libkernel::memory::arch_mmu::translation_entry::Descriptor::set_attributes+0x188>
   8190c:	f9400509 	ldr	x9, [x8, #8]
   81910:	d280800a 	mov	x10, #0x400                 	// #1024
   81914:	aa1f03e0 	mov	x0, xzr
   81918:	f2e00c0a 	movk	x10, #0x60, lsl #48
   8191c:	aa0a0129 	orr	x9, x9, x10
   81920:	a900251f 	stp	xzr, x9, [x8]
   81924:	d65f03c0 	ret
   81928:	f9400109 	ldr	x9, [x8]
   8192c:	f1000d3f 	cmp	x9, #0x3
   81930:	54000e00 	b.eq	81af0 <libkernel::memory::arch_mmu::translation_entry::Descriptor::set_attributes+0x2f4>  // b.none
   81934:	f100053f 	cmp	x9, #0x1
   81938:	54000ee0 	b.eq	81b14 <libkernel::memory::arch_mmu::translation_entry::Descriptor::set_attributes+0x318>  // b.none
   8193c:	b5000249 	cbnz	x9, 81984 <libkernel::memory::arch_mmu::translation_entry::Descriptor::set_attributes+0x188>
   81940:	f9400509 	ldr	x9, [x8, #8]
   81944:	d280800a 	mov	x10, #0x400                 	// #1024
   81948:	f2e00c0a 	movk	x10, #0x60, lsl #48
   8194c:	aa1f03e0 	mov	x0, xzr
   81950:	aa0a0129 	orr	x9, x9, x10
   81954:	b2790129 	orr	x9, x9, #0x80
   81958:	a900251f 	stp	xzr, x9, [x8]
   8195c:	d65f03c0 	ret
   81960:	f9400109 	ldr	x9, [x8]
   81964:	f100093f 	cmp	x9, #0x2
   81968:	540000e1 	b.ne	81984 <libkernel::memory::arch_mmu::translation_entry::Descriptor::set_attributes+0x188>  // b.any
   8196c:	f9400509 	ldr	x9, [x8, #8]
   81970:	aa1f03e0 	mov	x0, xzr
   81974:	5280004a 	mov	w10, #0x2                   	// #2
   81978:	b2450929 	orr	x9, x9, #0x3800000000000000
   8197c:	a900250a 	stp	x10, x9, [x8]
   81980:	d65f03c0 	ret
   81984:	b0000020 	adrp	x0, 86000 <compiler_builtins::mem::__llvm_memset_element_unordered_atomic_16+0x170c>
   81988:	9106c000 	add	x0, x0, #0x1b0
   8198c:	d65f03c0 	ret
   81990:	52800089 	mov	w9, #0x4                   	// #4
   81994:	aa1f03e0 	mov	x0, xzr
   81998:	f9000109 	str	x9, [x8]
   8199c:	d65f03c0 	ret
   819a0:	f9400509 	ldr	x9, [x8, #8]
   819a4:	d280800a 	mov	x10, #0x400                 	// #1024
   819a8:	f2e00c0a 	movk	x10, #0x60, lsl #48
   819ac:	aa1f03e0 	mov	x0, xzr
   819b0:	5280006b 	mov	w11, #0x3                   	// #3
   819b4:	aa0a0129 	orr	x9, x9, x10
   819b8:	5280608a 	mov	w10, #0x304                 	// #772
   819bc:	aa0a0129 	orr	x9, x9, x10
   819c0:	a900250b 	stp	x11, x9, [x8]
   819c4:	d65f03c0 	ret
   819c8:	f9400509 	ldr	x9, [x8, #8]
   819cc:	d280800a 	mov	x10, #0x400                 	// #1024
   819d0:	f2e00c0a 	movk	x10, #0x60, lsl #48
   819d4:	aa1f03e0 	mov	x0, xzr
   819d8:	aa0a0129 	orr	x9, x9, x10
   819dc:	5280608a 	mov	w10, #0x304                 	// #772
   819e0:	5280002b 	mov	w11, #0x1                   	// #1
   819e4:	aa0a0129 	orr	x9, x9, x10
   819e8:	a900250b 	stp	x11, x9, [x8]
   819ec:	d65f03c0 	ret
   819f0:	f9400509 	ldr	x9, [x8, #8]
   819f4:	d280800a 	mov	x10, #0x400                 	// #1024
   819f8:	f2e00c0a 	movk	x10, #0x60, lsl #48
   819fc:	aa1f03e0 	mov	x0, xzr
   81a00:	5280006b 	mov	w11, #0x3                   	// #3
   81a04:	aa0a0129 	orr	x9, x9, x10
   81a08:	5280708a 	mov	w10, #0x384                 	// #900
   81a0c:	aa0a0129 	orr	x9, x9, x10
   81a10:	a900250b 	stp	x11, x9, [x8]
   81a14:	d65f03c0 	ret
   81a18:	f9400509 	ldr	x9, [x8, #8]
   81a1c:	d280800a 	mov	x10, #0x400                 	// #1024
   81a20:	f2e00c0a 	movk	x10, #0x60, lsl #48
   81a24:	aa1f03e0 	mov	x0, xzr
   81a28:	aa0a0129 	orr	x9, x9, x10
   81a2c:	5280708a 	mov	w10, #0x384                 	// #900
   81a30:	5280002b 	mov	w11, #0x1                   	// #1
   81a34:	aa0a0129 	orr	x9, x9, x10
   81a38:	a900250b 	stp	x11, x9, [x8]
   81a3c:	d65f03c0 	ret
   81a40:	f9400509 	ldr	x9, [x8, #8]
   81a44:	d280f08a 	mov	x10, #0x784                 	// #1924
   81a48:	aa1f03e0 	mov	x0, xzr
   81a4c:	f2e0080a 	movk	x10, #0x40, lsl #48
   81a50:	5280006b 	mov	w11, #0x3                   	// #3
   81a54:	aa0a0129 	orr	x9, x9, x10
   81a58:	a900250b 	stp	x11, x9, [x8]
   81a5c:	d65f03c0 	ret
   81a60:	d280f08a 	mov	x10, #0x784                 	// #1924
   81a64:	aa1f03e0 	mov	x0, xzr
   81a68:	f9400509 	ldr	x9, [x8, #8]
   81a6c:	f2e0080a 	movk	x10, #0x40, lsl #48
   81a70:	5280002b 	mov	w11, #0x1                   	// #1
   81a74:	aa0a0129 	orr	x9, x9, x10
   81a78:	a900250b 	stp	x11, x9, [x8]
   81a7c:	d65f03c0 	ret
   81a80:	f9400509 	ldr	x9, [x8, #8]
   81a84:	aa1f03e0 	mov	x0, xzr
   81a88:	5280006a 	mov	w10, #0x3                   	// #3
   81a8c:	b2780929 	orr	x9, x9, #0x700
   81a90:	a900250a 	stp	x10, x9, [x8]
   81a94:	d65f03c0 	ret
   81a98:	aa1f03e0 	mov	x0, xzr
   81a9c:	f9400509 	ldr	x9, [x8, #8]
   81aa0:	5280002a 	mov	w10, #0x1                   	// #1
   81aa4:	b2780929 	orr	x9, x9, #0x700
   81aa8:	a900250a 	stp	x10, x9, [x8]
   81aac:	d65f03c0 	ret
   81ab0:	f9400509 	ldr	x9, [x8, #8]
   81ab4:	d280800a 	mov	x10, #0x400                 	// #1024
   81ab8:	aa1f03e0 	mov	x0, xzr
   81abc:	f2e00c0a 	movk	x10, #0x60, lsl #48
   81ac0:	5280006b 	mov	w11, #0x3                   	// #3
   81ac4:	aa0a0129 	orr	x9, x9, x10
   81ac8:	a900250b 	stp	x11, x9, [x8]
   81acc:	d65f03c0 	ret
   81ad0:	f9400509 	ldr	x9, [x8, #8]
   81ad4:	d280800a 	mov	x10, #0x400                 	// #1024
   81ad8:	aa1f03e0 	mov	x0, xzr
   81adc:	f2e00c0a 	movk	x10, #0x60, lsl #48
   81ae0:	5280002b 	mov	w11, #0x1                   	// #1
   81ae4:	aa0a0129 	orr	x9, x9, x10
   81ae8:	a900250b 	stp	x11, x9, [x8]
   81aec:	d65f03c0 	ret
   81af0:	f9400509 	ldr	x9, [x8, #8]
   81af4:	d280800a 	mov	x10, #0x400                 	// #1024
   81af8:	f2e00c0a 	movk	x10, #0x60, lsl #48
   81afc:	aa1f03e0 	mov	x0, xzr
   81b00:	aa0a0129 	orr	x9, x9, x10
   81b04:	5280006a 	mov	w10, #0x3                   	// #3
   81b08:	b2790129 	orr	x9, x9, #0x80
   81b0c:	a900250a 	stp	x10, x9, [x8]
   81b10:	d65f03c0 	ret
   81b14:	f9400509 	ldr	x9, [x8, #8]
   81b18:	d280800a 	mov	x10, #0x400                 	// #1024
   81b1c:	f2e00c0a 	movk	x10, #0x60, lsl #48
   81b20:	aa1f03e0 	mov	x0, xzr
   81b24:	aa0a0129 	orr	x9, x9, x10
   81b28:	5280002a 	mov	w10, #0x1                   	// #1
   81b2c:	b2790129 	orr	x9, x9, #0x80
   81b30:	a900250a 	stp	x10, x9, [x8]
   81b34:	d65f03c0 	ret

0000000000081b38 <<libkernel::memory::arch_mmu::translation_entry::Descriptor as core::fmt::Debug>::fmt>:
   81b38:	d10483ff 	sub	sp, sp, #0x120
   81b3c:	f90083fd 	str	x29, [sp, #256]
   81b40:	a9114ffe 	stp	x30, x19, [sp, #272]
   81b44:	f9400008 	ldr	x8, [x0]
   81b48:	f0000009 	adrp	x9, 84000 <rust_begin_unwind+0xb4>
   81b4c:	91250129 	add	x9, x9, #0x940
   81b50:	aa0103f3 	mov	x19, x1
   81b54:	1000008a 	adr	x10, 81b64 <<libkernel::memory::arch_mmu::translation_entry::Descriptor as core::fmt::Debug>::fmt+0x2c>
   81b58:	3868692b 	ldrb	w11, [x9, x8]
   81b5c:	8b0b094a 	add	x10, x10, x11, lsl #2
   81b60:	d61f0140 	br	x10
   81b64:	f9400401 	ldr	x1, [x0, #8]
   81b68:	aa1f03e0 	mov	x0, xzr
   81b6c:	d376d828 	ubfx	x8, x1, #54, #1
   81b70:	d375d429 	ubfx	x9, x1, #53, #1
   81b74:	d374d02a 	ubfx	x10, x1, #52, #1
   81b78:	530b2c2b 	ubfx	w11, w1, #11, #1
   81b7c:	3902b3e8 	strb	w8, [sp, #172]
   81b80:	530a2828 	ubfx	w8, w1, #10, #1
   81b84:	3902c3e9 	strb	w9, [sp, #176]
   81b88:	53082429 	ubfx	w9, w1, #8, #2
   81b8c:	3902d3ea 	strb	w10, [sp, #180]
   81b90:	12001c2a 	and	w10, w1, #0xff
   81b94:	3902e3eb 	strb	w11, [sp, #184]
   81b98:	53061c2b 	ubfx	w11, w1, #6, #2
   81b9c:	3902f3e8 	strb	w8, [sp, #188]
   81ba0:	53051548 	ubfx	w8, w10, #5, #1
   81ba4:	390303e9 	strb	w9, [sp, #192]
   81ba8:	53021149 	ubfx	w9, w10, #2, #3
   81bac:	390313eb 	strb	w11, [sp, #196]
   81bb0:	390323e8 	strb	w8, [sp, #200]
   81bb4:	390333e9 	strb	w9, [sp, #204]
   81bb8:	97fffefa 	bl	817a0 <libkernel::memory::arch_mmu::translation_entry::Descriptor::get_address>
   81bbc:	b4001b40 	cbz	x0, 81f24 <<libkernel::memory::arch_mmu::translation_entry::Descriptor as core::fmt::Debug>::fmt+0x3ec>
   81bc0:	9102b3e8 	add	x8, sp, #0xac
   81bc4:	90000009 	adrp	x9, 81000 <core::fmt::num::imp::<impl core::fmt::Display for u32>::fmt+0x128>
   81bc8:	91151129 	add	x9, x9, #0x544
   81bcc:	9102c3ea 	add	x10, sp, #0xb0
   81bd0:	9000000b 	adrp	x11, 81000 <core::fmt::num::imp::<impl core::fmt::Display for u32>::fmt+0x128>
   81bd4:	9118316b 	add	x11, x11, #0x60c
   81bd8:	f90087e1 	str	x1, [sp, #264]
   81bdc:	a900a7e8 	stp	x8, x9, [sp, #8]
   81be0:	9102d3e8 	add	x8, sp, #0xb4
   81be4:	a901a7ea 	stp	x10, x9, [sp, #24]
   81be8:	9102e3ea 	add	x10, sp, #0xb8
   81bec:	a902a7e8 	stp	x8, x9, [sp, #40]
   81bf0:	9102f3e8 	add	x8, sp, #0xbc
   81bf4:	a903a7ea 	stp	x10, x9, [sp, #56]
   81bf8:	910303ea 	add	x10, sp, #0xc0
   81bfc:	a904a7e8 	stp	x8, x9, [sp, #72]
   81c00:	910313e8 	add	x8, sp, #0xc4
   81c04:	a905afea 	stp	x10, x11, [sp, #88]
   81c08:	910323ea 	add	x10, sp, #0xc8
   81c0c:	a906afe8 	stp	x8, x11, [sp, #104]
   81c10:	910333e8 	add	x8, sp, #0xcc
   81c14:	a907a7ea 	stp	x10, x9, [sp, #120]
   81c18:	b0000009 	adrp	x9, 82000 <<libkernel::memory::arch_mmu::translation_entry::Descriptor as core::fmt::Display>::fmt+0xac>
   81c1c:	91220129 	add	x9, x9, #0x880
   81c20:	9000002a 	adrp	x10, 85000 <compiler_builtins::mem::__llvm_memset_element_unordered_atomic_16+0x70c>
   81c24:	9114014a 	add	x10, x10, #0x500
   81c28:	a908afe8 	stp	x8, x11, [sp, #136]
   81c2c:	910423e8 	add	x8, sp, #0x108
   81c30:	a909a7e8 	stp	x8, x9, [sp, #152]
   81c34:	52800148 	mov	w8, #0xa                   	// #10
   81c38:	90000029 	adrp	x9, 85000 <compiler_builtins::mem::__llvm_memset_element_unordered_atomic_16+0x70c>
   81c3c:	91294129 	add	x9, x9, #0xa50
   81c40:	140000a2 	b	81ec8 <<libkernel::memory::arch_mmu::translation_entry::Descriptor as core::fmt::Debug>::fmt+0x390>
   81c44:	f9400401 	ldr	x1, [x0, #8]
   81c48:	52800040 	mov	w0, #0x2                   	// #2
   81c4c:	d37ffc28 	lsr	x8, x1, #63
   81c50:	d37df829 	ubfx	x9, x1, #61, #2
   81c54:	d37cf02a 	ubfx	x10, x1, #60, #1
   81c58:	d37bec2b 	ubfx	x11, x1, #59, #1
   81c5c:	390303e8 	strb	w8, [sp, #192]
   81c60:	390313e9 	strb	w9, [sp, #196]
   81c64:	390323ea 	strb	w10, [sp, #200]
   81c68:	390333eb 	strb	w11, [sp, #204]
   81c6c:	97fffecd 	bl	817a0 <libkernel::memory::arch_mmu::translation_entry::Descriptor::get_address>
   81c70:	b4001420 	cbz	x0, 81ef4 <<libkernel::memory::arch_mmu::translation_entry::Descriptor as core::fmt::Debug>::fmt+0x3bc>
   81c74:	910303e8 	add	x8, sp, #0xc0
   81c78:	90000009 	adrp	x9, 81000 <core::fmt::num::imp::<impl core::fmt::Display for u32>::fmt+0x128>
   81c7c:	91151129 	add	x9, x9, #0x544
   81c80:	910313ea 	add	x10, sp, #0xc4
   81c84:	9000000b 	adrp	x11, 81000 <core::fmt::num::imp::<impl core::fmt::Display for u32>::fmt+0x128>
   81c88:	9118316b 	add	x11, x11, #0x60c
   81c8c:	f90087e1 	str	x1, [sp, #264]
   81c90:	a900a7e8 	stp	x8, x9, [sp, #8]
   81c94:	910323e8 	add	x8, sp, #0xc8
   81c98:	a901afea 	stp	x10, x11, [sp, #24]
   81c9c:	910333ea 	add	x10, sp, #0xcc
   81ca0:	a902a7e8 	stp	x8, x9, [sp, #40]
   81ca4:	910423e8 	add	x8, sp, #0x108
   81ca8:	a903a7ea 	stp	x10, x9, [sp, #56]
   81cac:	b0000009 	adrp	x9, 82000 <<libkernel::memory::arch_mmu::translation_entry::Descriptor as core::fmt::Display>::fmt+0xac>
   81cb0:	91220129 	add	x9, x9, #0x880
   81cb4:	9000002a 	adrp	x10, 85000 <compiler_builtins::mem::__llvm_memset_element_unordered_atomic_16+0x70c>
   81cb8:	9120614a 	add	x10, x10, #0x818
   81cbc:	a904a7e8 	stp	x8, x9, [sp, #72]
   81cc0:	528000a8 	mov	w8, #0x5                   	// #5
   81cc4:	90000029 	adrp	x9, 85000 <compiler_builtins::mem::__llvm_memset_element_unordered_atomic_16+0x70c>
   81cc8:	911f2129 	add	x9, x9, #0x7c8
   81ccc:	1400007f 	b	81ec8 <<libkernel::memory::arch_mmu::translation_entry::Descriptor as core::fmt::Debug>::fmt+0x390>
   81cd0:	f9400401 	ldr	x1, [x0, #8]
   81cd4:	52800060 	mov	w0, #0x3                   	// #3
   81cd8:	d376d828 	ubfx	x8, x1, #54, #1
   81cdc:	d375d429 	ubfx	x9, x1, #53, #1
   81ce0:	d374d02a 	ubfx	x10, x1, #52, #1
   81ce4:	530b2c2b 	ubfx	w11, w1, #11, #1
   81ce8:	3902b3e8 	strb	w8, [sp, #172]
   81cec:	530a2828 	ubfx	w8, w1, #10, #1
   81cf0:	3902c3e9 	strb	w9, [sp, #176]
   81cf4:	53082429 	ubfx	w9, w1, #8, #2
   81cf8:	3902d3ea 	strb	w10, [sp, #180]
   81cfc:	12001c2a 	and	w10, w1, #0xff
   81d00:	3902e3eb 	strb	w11, [sp, #184]
   81d04:	53061c2b 	ubfx	w11, w1, #6, #2
   81d08:	3902f3e8 	strb	w8, [sp, #188]
   81d0c:	53051548 	ubfx	w8, w10, #5, #1
   81d10:	390303e9 	strb	w9, [sp, #192]
   81d14:	53021149 	ubfx	w9, w10, #2, #3
   81d18:	390313eb 	strb	w11, [sp, #196]
   81d1c:	390323e8 	strb	w8, [sp, #200]
   81d20:	390333e9 	strb	w9, [sp, #204]
   81d24:	97fffe9f 	bl	817a0 <libkernel::memory::arch_mmu::translation_entry::Descriptor::get_address>
   81d28:	b4000f20 	cbz	x0, 81f0c <<libkernel::memory::arch_mmu::translation_entry::Descriptor as core::fmt::Debug>::fmt+0x3d4>
   81d2c:	9102b3e8 	add	x8, sp, #0xac
   81d30:	90000009 	adrp	x9, 81000 <core::fmt::num::imp::<impl core::fmt::Display for u32>::fmt+0x128>
   81d34:	91151129 	add	x9, x9, #0x544
   81d38:	9102c3ea 	add	x10, sp, #0xb0
   81d3c:	9000000b 	adrp	x11, 81000 <core::fmt::num::imp::<impl core::fmt::Display for u32>::fmt+0x128>
   81d40:	9118316b 	add	x11, x11, #0x60c
   81d44:	f90087e1 	str	x1, [sp, #264]
   81d48:	a900a7e8 	stp	x8, x9, [sp, #8]
   81d4c:	9102d3e8 	add	x8, sp, #0xb4
   81d50:	a901a7ea 	stp	x10, x9, [sp, #24]
   81d54:	9102e3ea 	add	x10, sp, #0xb8
   81d58:	a902a7e8 	stp	x8, x9, [sp, #40]
   81d5c:	9102f3e8 	add	x8, sp, #0xbc
   81d60:	a903a7ea 	stp	x10, x9, [sp, #56]
   81d64:	910303ea 	add	x10, sp, #0xc0
   81d68:	a904a7e8 	stp	x8, x9, [sp, #72]
   81d6c:	910313e8 	add	x8, sp, #0xc4
   81d70:	a905afea 	stp	x10, x11, [sp, #88]
   81d74:	910323ea 	add	x10, sp, #0xc8
   81d78:	a906afe8 	stp	x8, x11, [sp, #104]
   81d7c:	910333e8 	add	x8, sp, #0xcc
   81d80:	a907a7ea 	stp	x10, x9, [sp, #120]
   81d84:	b0000009 	adrp	x9, 82000 <<libkernel::memory::arch_mmu::translation_entry::Descriptor as core::fmt::Display>::fmt+0xac>
   81d88:	91220129 	add	x9, x9, #0x880
   81d8c:	9000002a 	adrp	x10, 85000 <compiler_builtins::mem::__llvm_memset_element_unordered_atomic_16+0x70c>
   81d90:	9114014a 	add	x10, x10, #0x500
   81d94:	a908afe8 	stp	x8, x11, [sp, #136]
   81d98:	910423e8 	add	x8, sp, #0x108
   81d9c:	a909a7e8 	stp	x8, x9, [sp, #152]
   81da0:	52800148 	mov	w8, #0xa                   	// #10
   81da4:	90000029 	adrp	x9, 85000 <compiler_builtins::mem::__llvm_memset_element_unordered_atomic_16+0x70c>
   81da8:	91118129 	add	x9, x9, #0x460
   81dac:	14000047 	b	81ec8 <<libkernel::memory::arch_mmu::translation_entry::Descriptor as core::fmt::Debug>::fmt+0x390>
   81db0:	a9400660 	ldp	x0, x1, [x19]
   81db4:	90000028 	adrp	x8, 85000 <compiler_builtins::mem::__llvm_memset_element_unordered_atomic_16+0x70c>
   81db8:	910fa108 	add	x8, x8, #0x3e8
   81dbc:	52800029 	mov	w9, #0x1                   	// #1
   81dc0:	b000002a 	adrp	x10, 86000 <compiler_builtins::mem::__llvm_memset_element_unordered_atomic_16+0x170c>
   81dc4:	910cc14a 	add	x10, x10, #0x330
   81dc8:	910023e2 	add	x2, sp, #0x8
   81dcc:	f90007ff 	str	xzr, [sp, #8]
   81dd0:	a901a7e8 	stp	x8, x9, [sp, #24]
   81dd4:	a902ffea 	stp	x10, xzr, [sp, #40]
   81dd8:	97fffbb7 	bl	80cb4 <core::fmt::write>
   81ddc:	a9514ffe 	ldp	x30, x19, [sp, #272]
   81de0:	f94083fd 	ldr	x29, [sp, #256]
   81de4:	910483ff 	add	sp, sp, #0x120
   81de8:	d65f03c0 	ret
   81dec:	f9400401 	ldr	x1, [x0, #8]
   81df0:	52800020 	mov	w0, #0x1                   	// #1
   81df4:	d376d828 	ubfx	x8, x1, #54, #1
   81df8:	d375d429 	ubfx	x9, x1, #53, #1
   81dfc:	d374d02a 	ubfx	x10, x1, #52, #1
   81e00:	530b2c2b 	ubfx	w11, w1, #11, #1
   81e04:	3902b3e8 	strb	w8, [sp, #172]
   81e08:	530a2828 	ubfx	w8, w1, #10, #1
   81e0c:	3902c3e9 	strb	w9, [sp, #176]
   81e10:	53082429 	ubfx	w9, w1, #8, #2
   81e14:	3902d3ea 	strb	w10, [sp, #180]
   81e18:	12001c2a 	and	w10, w1, #0xff
   81e1c:	3902e3eb 	strb	w11, [sp, #184]
   81e20:	53061c2b 	ubfx	w11, w1, #6, #2
   81e24:	3902f3e8 	strb	w8, [sp, #188]
   81e28:	53051548 	ubfx	w8, w10, #5, #1
   81e2c:	390303e9 	strb	w9, [sp, #192]
   81e30:	53021149 	ubfx	w9, w10, #2, #3
   81e34:	390313eb 	strb	w11, [sp, #196]
   81e38:	390323e8 	strb	w8, [sp, #200]
   81e3c:	390333e9 	strb	w9, [sp, #204]
   81e40:	97fffe58 	bl	817a0 <libkernel::memory::arch_mmu::translation_entry::Descriptor::get_address>
   81e44:	b40007c0 	cbz	x0, 81f3c <<libkernel::memory::arch_mmu::translation_entry::Descriptor as core::fmt::Debug>::fmt+0x404>
   81e48:	9102b3e8 	add	x8, sp, #0xac
   81e4c:	90000009 	adrp	x9, 81000 <core::fmt::num::imp::<impl core::fmt::Display for u32>::fmt+0x128>
   81e50:	91151129 	add	x9, x9, #0x544
   81e54:	9102c3ea 	add	x10, sp, #0xb0
   81e58:	9000000b 	adrp	x11, 81000 <core::fmt::num::imp::<impl core::fmt::Display for u32>::fmt+0x128>
   81e5c:	9118316b 	add	x11, x11, #0x60c
   81e60:	f90087e1 	str	x1, [sp, #264]
   81e64:	a900a7e8 	stp	x8, x9, [sp, #8]
   81e68:	9102d3e8 	add	x8, sp, #0xb4
   81e6c:	a901a7ea 	stp	x10, x9, [sp, #24]
   81e70:	9102e3ea 	add	x10, sp, #0xb8
   81e74:	a902a7e8 	stp	x8, x9, [sp, #40]
   81e78:	9102f3e8 	add	x8, sp, #0xbc
   81e7c:	a903a7ea 	stp	x10, x9, [sp, #56]
   81e80:	910303ea 	add	x10, sp, #0xc0
   81e84:	a904a7e8 	stp	x8, x9, [sp, #72]
   81e88:	910313e8 	add	x8, sp, #0xc4
   81e8c:	a905afea 	stp	x10, x11, [sp, #88]
   81e90:	910323ea 	add	x10, sp, #0xc8
   81e94:	a906afe8 	stp	x8, x11, [sp, #104]
   81e98:	910333e8 	add	x8, sp, #0xcc
   81e9c:	a907a7ea 	stp	x10, x9, [sp, #120]
   81ea0:	b0000009 	adrp	x9, 82000 <<libkernel::memory::arch_mmu::translation_entry::Descriptor as core::fmt::Display>::fmt+0xac>
   81ea4:	91220129 	add	x9, x9, #0x880
   81ea8:	9000002a 	adrp	x10, 85000 <compiler_builtins::mem::__llvm_memset_element_unordered_atomic_16+0x70c>
   81eac:	9114014a 	add	x10, x10, #0x500
   81eb0:	a908afe8 	stp	x8, x11, [sp, #136]
   81eb4:	910423e8 	add	x8, sp, #0x108
   81eb8:	a909a7e8 	stp	x8, x9, [sp, #152]
   81ebc:	52800148 	mov	w8, #0xa                   	// #10
   81ec0:	90000029 	adrp	x9, 85000 <compiler_builtins::mem::__llvm_memset_element_unordered_atomic_16+0x70c>
   81ec4:	9125c129 	add	x9, x9, #0x970
   81ec8:	a9400660 	ldp	x0, x1, [x19]
   81ecc:	a90d23ea 	stp	x10, x8, [sp, #208]
   81ed0:	910023ea 	add	x10, sp, #0x8
   81ed4:	a90e23e9 	stp	x9, x8, [sp, #224]
   81ed8:	910343e2 	add	x2, sp, #0xd0
   81edc:	a90f23ea 	stp	x10, x8, [sp, #240]
   81ee0:	97fffb75 	bl	80cb4 <core::fmt::write>
   81ee4:	a9514ffe 	ldp	x30, x19, [sp, #272]
   81ee8:	f94083fd 	ldr	x29, [sp, #256]
   81eec:	910483ff 	add	sp, sp, #0x120
   81ef0:	d65f03c0 	ret
   81ef4:	90000020 	adrp	x0, 85000 <compiler_builtins::mem::__llvm_memset_element_unordered_atomic_16+0x70c>
   81ef8:	913f2000 	add	x0, x0, #0xfc8
   81efc:	90000021 	adrp	x1, 85000 <compiler_builtins::mem::__llvm_memset_element_unordered_atomic_16+0x70c>
   81f00:	9124c021 	add	x1, x1, #0x930
   81f04:	97fffb58 	bl	80c64 <core::panicking::panic>
   81f08:	d4200020 	brk	#0x1
   81f0c:	90000020 	adrp	x0, 85000 <compiler_builtins::mem::__llvm_memset_element_unordered_atomic_16+0x70c>
   81f10:	913f2000 	add	x0, x0, #0xfc8
   81f14:	90000021 	adrp	x1, 85000 <compiler_builtins::mem::__llvm_memset_element_unordered_atomic_16+0x70c>
   81f18:	911da021 	add	x1, x1, #0x768
   81f1c:	97fffb52 	bl	80c64 <core::panicking::panic>
   81f20:	d4200020 	brk	#0x1
   81f24:	90000020 	adrp	x0, 85000 <compiler_builtins::mem::__llvm_memset_element_unordered_atomic_16+0x70c>
   81f28:	913f2000 	add	x0, x0, #0xfc8
   81f2c:	90000021 	adrp	x1, 85000 <compiler_builtins::mem::__llvm_memset_element_unordered_atomic_16+0x70c>
   81f30:	912bc021 	add	x1, x1, #0xaf0
   81f34:	97fffb4c 	bl	80c64 <core::panicking::panic>
   81f38:	d4200020 	brk	#0x1
   81f3c:	90000020 	adrp	x0, 85000 <compiler_builtins::mem::__llvm_memset_element_unordered_atomic_16+0x70c>
   81f40:	913f2000 	add	x0, x0, #0xfc8
   81f44:	90000021 	adrp	x1, 85000 <compiler_builtins::mem::__llvm_memset_element_unordered_atomic_16+0x70c>
   81f48:	91284021 	add	x1, x1, #0xa10
   81f4c:	97fffb46 	bl	80c64 <core::panicking::panic>
   81f50:	d4200020 	brk	#0x1

0000000000081f54 <<libkernel::memory::arch_mmu::translation_entry::Descriptor as core::fmt::Display>::fmt>:
   81f54:	d101c3ff 	sub	sp, sp, #0x70
   81f58:	a9064ffe 	stp	x30, x19, [sp, #96]
   81f5c:	f9400008 	ldr	x8, [x0]
   81f60:	f0000009 	adrp	x9, 84000 <rust_begin_unwind+0xb4>
   81f64:	91251529 	add	x9, x9, #0x945
   81f68:	aa0103f3 	mov	x19, x1
   81f6c:	1000008a 	adr	x10, 81f7c <<libkernel::memory::arch_mmu::translation_entry::Descriptor as core::fmt::Display>::fmt+0x28>
   81f70:	3868692b 	ldrb	w11, [x9, x8]
   81f74:	8b0b094a 	add	x10, x10, x11, lsl #2
   81f78:	d61f0140 	br	x10
   81f7c:	f9400401 	ldr	x1, [x0, #8]
   81f80:	d2808fe9 	mov	x9, #0x47f                 	// #1151
   81f84:	f2e00c09 	movk	x9, #0x60, lsl #48
   81f88:	927ed028 	and	x8, x1, #0x7ffffffffffffc
   81f8c:	924c5d08 	and	x8, x8, #0xfff0000000000fff
   81f90:	eb09011f 	cmp	x8, x9
   81f94:	54000ccc 	b.gt	8212c <<libkernel::memory::arch_mmu::translation_entry::Descriptor as core::fmt::Display>::fmt+0x1d8>
   81f98:	f11c011f 	cmp	x8, #0x700
   81f9c:	54001040 	b.eq	821a4 <<libkernel::memory::arch_mmu::translation_entry::Descriptor as core::fmt::Display>::fmt+0x250>  // b.none
   81fa0:	d280f089 	mov	x9, #0x784                 	// #1924
   81fa4:	f2e00809 	movk	x9, #0x40, lsl #48
   81fa8:	eb09011f 	cmp	x8, x9
   81fac:	54001020 	b.eq	821b0 <<libkernel::memory::arch_mmu::translation_entry::Descriptor as core::fmt::Display>::fmt+0x25c>  // b.none
   81fb0:	d2808009 	mov	x9, #0x400                 	// #1024
   81fb4:	f2e00c09 	movk	x9, #0x60, lsl #48
   81fb8:	eb09011f 	cmp	x8, x9
   81fbc:	540014a1 	b.ne	82250 <<libkernel::memory::arch_mmu::translation_entry::Descriptor as core::fmt::Display>::fmt+0x2fc>  // b.any
   81fc0:	90000028 	adrp	x8, 85000 <compiler_builtins::mem::__llvm_memset_element_unordered_atomic_16+0x70c>
   81fc4:	910f3108 	add	x8, x8, #0x3cc
   81fc8:	140000a4 	b	82258 <<libkernel::memory::arch_mmu::translation_entry::Descriptor as core::fmt::Display>::fmt+0x304>
   81fcc:	f9400401 	ldr	x1, [x0, #8]
   81fd0:	90000028 	adrp	x8, 85000 <compiler_builtins::mem::__llvm_memset_element_unordered_atomic_16+0x70c>
   81fd4:	910f3d08 	add	x8, x8, #0x3cf
   81fd8:	9000002a 	adrp	x10, 85000 <compiler_builtins::mem::__llvm_memset_element_unordered_atomic_16+0x70c>
   81fdc:	910f394a 	add	x10, x10, #0x3ce
   81fe0:	52800040 	mov	w0, #0x2                   	// #2
   81fe4:	d37bfc29 	lsr	x9, x1, #59
   81fe8:	f1001d3f 	cmp	x9, #0x7
   81fec:	9a880148 	csel	x8, x10, x8, eq  // eq = none
   81ff0:	f90013e8 	str	x8, [sp, #32]
   81ff4:	97fffdeb 	bl	817a0 <libkernel::memory::arch_mmu::translation_entry::Descriptor::get_address>
   81ff8:	b40018a0 	cbz	x0, 8230c <<libkernel::memory::arch_mmu::translation_entry::Descriptor as core::fmt::Display>::fmt+0x3b8>
   81ffc:	910083e8 	add	x8, sp, #0x20
   82000:	90000009 	adrp	x9, 82000 <<libkernel::memory::arch_mmu::translation_entry::Descriptor as core::fmt::Display>::fmt+0xac>
   82004:	910db129 	add	x9, x9, #0x36c
   82008:	f90017e1 	str	x1, [sp, #40]
   8200c:	f000000a 	adrp	x10, 85000 <compiler_builtins::mem::__llvm_memset_element_unordered_atomic_16+0x70c>
   82010:	912da14a 	add	x10, x10, #0xb68
   82014:	140000ae 	b	822cc <<libkernel::memory::arch_mmu::translation_entry::Descriptor as core::fmt::Display>::fmt+0x378>
   82018:	f9400401 	ldr	x1, [x0, #8]
   8201c:	d2808fe9 	mov	x9, #0x47f                 	// #1151
   82020:	f2e00c09 	movk	x9, #0x60, lsl #48
   82024:	927ed028 	and	x8, x1, #0x7ffffffffffffc
   82028:	924c5d08 	and	x8, x8, #0xfff0000000000fff
   8202c:	eb09011f 	cmp	x8, x9
   82030:	5400060c 	b.gt	820f0 <<libkernel::memory::arch_mmu::translation_entry::Descriptor as core::fmt::Display>::fmt+0x19c>
   82034:	f11c011f 	cmp	x8, #0x700
   82038:	54000c20 	b.eq	821bc <<libkernel::memory::arch_mmu::translation_entry::Descriptor as core::fmt::Display>::fmt+0x268>  // b.none
   8203c:	d280f089 	mov	x9, #0x784                 	// #1924
   82040:	f2e00809 	movk	x9, #0x40, lsl #48
   82044:	eb09011f 	cmp	x8, x9
   82048:	54000c00 	b.eq	821c8 <<libkernel::memory::arch_mmu::translation_entry::Descriptor as core::fmt::Display>::fmt+0x274>  // b.none
   8204c:	d2808009 	mov	x9, #0x400                 	// #1024
   82050:	f2e00c09 	movk	x9, #0x60, lsl #48
   82054:	eb09011f 	cmp	x8, x9
   82058:	54000d61 	b.ne	82204 <<libkernel::memory::arch_mmu::translation_entry::Descriptor as core::fmt::Display>::fmt+0x2b0>  // b.any
   8205c:	f0000008 	adrp	x8, 85000 <compiler_builtins::mem::__llvm_memset_element_unordered_atomic_16+0x70c>
   82060:	910f3108 	add	x8, x8, #0x3cc
   82064:	1400006a 	b	8220c <<libkernel::memory::arch_mmu::translation_entry::Descriptor as core::fmt::Display>::fmt+0x2b8>
   82068:	a9400660 	ldp	x0, x1, [x19]
   8206c:	f0000008 	adrp	x8, 85000 <compiler_builtins::mem::__llvm_memset_element_unordered_atomic_16+0x70c>
   82070:	910fa108 	add	x8, x8, #0x3e8
   82074:	52800029 	mov	w9, #0x1                   	// #1
   82078:	9000002a 	adrp	x10, 86000 <compiler_builtins::mem::__llvm_memset_element_unordered_atomic_16+0x170c>
   8207c:	910cc14a 	add	x10, x10, #0x330
   82080:	f9001bff 	str	xzr, [sp, #48]
   82084:	a90427e8 	stp	x8, x9, [sp, #64]
   82088:	a9057fea 	stp	x10, xzr, [sp, #80]
   8208c:	9100c3e2 	add	x2, sp, #0x30
   82090:	97fffb09 	bl	80cb4 <core::fmt::write>
   82094:	a9464ffe 	ldp	x30, x19, [sp, #96]
   82098:	9101c3ff 	add	sp, sp, #0x70
   8209c:	d65f03c0 	ret
   820a0:	f9400401 	ldr	x1, [x0, #8]
   820a4:	d2808fe9 	mov	x9, #0x47f                 	// #1151
   820a8:	f2e00c09 	movk	x9, #0x60, lsl #48
   820ac:	927ed028 	and	x8, x1, #0x7ffffffffffffc
   820b0:	924c5d08 	and	x8, x8, #0xfff0000000000fff
   820b4:	eb09011f 	cmp	x8, x9
   820b8:	5400058c 	b.gt	82168 <<libkernel::memory::arch_mmu::translation_entry::Descriptor as core::fmt::Display>::fmt+0x214>
   820bc:	f11c011f 	cmp	x8, #0x700
   820c0:	540008a0 	b.eq	821d4 <<libkernel::memory::arch_mmu::translation_entry::Descriptor as core::fmt::Display>::fmt+0x280>  // b.none
   820c4:	d280f089 	mov	x9, #0x784                 	// #1924
   820c8:	f2e00809 	movk	x9, #0x40, lsl #48
   820cc:	eb09011f 	cmp	x8, x9
   820d0:	54000880 	b.eq	821e0 <<libkernel::memory::arch_mmu::translation_entry::Descriptor as core::fmt::Display>::fmt+0x28c>  // b.none
   820d4:	d2808009 	mov	x9, #0x400                 	// #1024
   820d8:	f2e00c09 	movk	x9, #0x60, lsl #48
   820dc:	eb09011f 	cmp	x8, x9
   820e0:	54000de1 	b.ne	8229c <<libkernel::memory::arch_mmu::translation_entry::Descriptor as core::fmt::Display>::fmt+0x348>  // b.any
   820e4:	f0000008 	adrp	x8, 85000 <compiler_builtins::mem::__llvm_memset_element_unordered_atomic_16+0x70c>
   820e8:	910f3108 	add	x8, x8, #0x3cc
   820ec:	1400006e 	b	822a4 <<libkernel::memory::arch_mmu::translation_entry::Descriptor as core::fmt::Display>::fmt+0x350>
   820f0:	d2809009 	mov	x9, #0x480                 	// #1152
   820f4:	f2e00c09 	movk	x9, #0x60, lsl #48
   820f8:	eb09011f 	cmp	x8, x9
   820fc:	54000780 	b.eq	821ec <<libkernel::memory::arch_mmu::translation_entry::Descriptor as core::fmt::Display>::fmt+0x298>  // b.none
   82100:	d280e089 	mov	x9, #0x704                 	// #1796
   82104:	f2e00c09 	movk	x9, #0x60, lsl #48
   82108:	eb09011f 	cmp	x8, x9
   8210c:	54000760 	b.eq	821f8 <<libkernel::memory::arch_mmu::translation_entry::Descriptor as core::fmt::Display>::fmt+0x2a4>  // b.none
   82110:	d280f089 	mov	x9, #0x784                 	// #1924
   82114:	f2e00c09 	movk	x9, #0x60, lsl #48
   82118:	eb09011f 	cmp	x8, x9
   8211c:	54000741 	b.ne	82204 <<libkernel::memory::arch_mmu::translation_entry::Descriptor as core::fmt::Display>::fmt+0x2b0>  // b.any
   82120:	f0000008 	adrp	x8, 85000 <compiler_builtins::mem::__llvm_memset_element_unordered_atomic_16+0x70c>
   82124:	910f2508 	add	x8, x8, #0x3c9
   82128:	14000039 	b	8220c <<libkernel::memory::arch_mmu::translation_entry::Descriptor as core::fmt::Display>::fmt+0x2b8>
   8212c:	d2809009 	mov	x9, #0x480                 	// #1152
   82130:	f2e00c09 	movk	x9, #0x60, lsl #48
   82134:	eb09011f 	cmp	x8, x9
   82138:	54000800 	b.eq	82238 <<libkernel::memory::arch_mmu::translation_entry::Descriptor as core::fmt::Display>::fmt+0x2e4>  // b.none
   8213c:	d280e089 	mov	x9, #0x704                 	// #1796
   82140:	f2e00c09 	movk	x9, #0x60, lsl #48
   82144:	eb09011f 	cmp	x8, x9
   82148:	540007e0 	b.eq	82244 <<libkernel::memory::arch_mmu::translation_entry::Descriptor as core::fmt::Display>::fmt+0x2f0>  // b.none
   8214c:	d280f089 	mov	x9, #0x784                 	// #1924
   82150:	f2e00c09 	movk	x9, #0x60, lsl #48
   82154:	eb09011f 	cmp	x8, x9
   82158:	540007c1 	b.ne	82250 <<libkernel::memory::arch_mmu::translation_entry::Descriptor as core::fmt::Display>::fmt+0x2fc>  // b.any
   8215c:	f0000008 	adrp	x8, 85000 <compiler_builtins::mem::__llvm_memset_element_unordered_atomic_16+0x70c>
   82160:	910f2508 	add	x8, x8, #0x3c9
   82164:	1400003d 	b	82258 <<libkernel::memory::arch_mmu::translation_entry::Descriptor as core::fmt::Display>::fmt+0x304>
   82168:	d2809009 	mov	x9, #0x480                 	// #1152
   8216c:	f2e00c09 	movk	x9, #0x60, lsl #48
   82170:	eb09011f 	cmp	x8, x9
   82174:	54000880 	b.eq	82284 <<libkernel::memory::arch_mmu::translation_entry::Descriptor as core::fmt::Display>::fmt+0x330>  // b.none
   82178:	d280e089 	mov	x9, #0x704                 	// #1796
   8217c:	f2e00c09 	movk	x9, #0x60, lsl #48
   82180:	eb09011f 	cmp	x8, x9
   82184:	54000860 	b.eq	82290 <<libkernel::memory::arch_mmu::translation_entry::Descriptor as core::fmt::Display>::fmt+0x33c>  // b.none
   82188:	d280f089 	mov	x9, #0x784                 	// #1924
   8218c:	f2e00c09 	movk	x9, #0x60, lsl #48
   82190:	eb09011f 	cmp	x8, x9
   82194:	54000841 	b.ne	8229c <<libkernel::memory::arch_mmu::translation_entry::Descriptor as core::fmt::Display>::fmt+0x348>  // b.any
   82198:	f0000008 	adrp	x8, 85000 <compiler_builtins::mem::__llvm_memset_element_unordered_atomic_16+0x70c>
   8219c:	910f2508 	add	x8, x8, #0x3c9
   821a0:	14000041 	b	822a4 <<libkernel::memory::arch_mmu::translation_entry::Descriptor as core::fmt::Display>::fmt+0x350>
   821a4:	f0000008 	adrp	x8, 85000 <compiler_builtins::mem::__llvm_memset_element_unordered_atomic_16+0x70c>
   821a8:	910f2d08 	add	x8, x8, #0x3cb
   821ac:	1400002b 	b	82258 <<libkernel::memory::arch_mmu::translation_entry::Descriptor as core::fmt::Display>::fmt+0x304>
   821b0:	f0000008 	adrp	x8, 85000 <compiler_builtins::mem::__llvm_memset_element_unordered_atomic_16+0x70c>
   821b4:	910f2908 	add	x8, x8, #0x3ca
   821b8:	14000028 	b	82258 <<libkernel::memory::arch_mmu::translation_entry::Descriptor as core::fmt::Display>::fmt+0x304>
   821bc:	f0000008 	adrp	x8, 85000 <compiler_builtins::mem::__llvm_memset_element_unordered_atomic_16+0x70c>
   821c0:	910f2d08 	add	x8, x8, #0x3cb
   821c4:	14000012 	b	8220c <<libkernel::memory::arch_mmu::translation_entry::Descriptor as core::fmt::Display>::fmt+0x2b8>
   821c8:	f0000008 	adrp	x8, 85000 <compiler_builtins::mem::__llvm_memset_element_unordered_atomic_16+0x70c>
   821cc:	910f2908 	add	x8, x8, #0x3ca
   821d0:	1400000f 	b	8220c <<libkernel::memory::arch_mmu::translation_entry::Descriptor as core::fmt::Display>::fmt+0x2b8>
   821d4:	f0000008 	adrp	x8, 85000 <compiler_builtins::mem::__llvm_memset_element_unordered_atomic_16+0x70c>
   821d8:	910f2d08 	add	x8, x8, #0x3cb
   821dc:	14000032 	b	822a4 <<libkernel::memory::arch_mmu::translation_entry::Descriptor as core::fmt::Display>::fmt+0x350>
   821e0:	f0000008 	adrp	x8, 85000 <compiler_builtins::mem::__llvm_memset_element_unordered_atomic_16+0x70c>
   821e4:	910f2908 	add	x8, x8, #0x3ca
   821e8:	1400002f 	b	822a4 <<libkernel::memory::arch_mmu::translation_entry::Descriptor as core::fmt::Display>::fmt+0x350>
   821ec:	f0000008 	adrp	x8, 85000 <compiler_builtins::mem::__llvm_memset_element_unordered_atomic_16+0x70c>
   821f0:	910f3508 	add	x8, x8, #0x3cd
   821f4:	14000006 	b	8220c <<libkernel::memory::arch_mmu::translation_entry::Descriptor as core::fmt::Display>::fmt+0x2b8>
   821f8:	f0000008 	adrp	x8, 85000 <compiler_builtins::mem::__llvm_memset_element_unordered_atomic_16+0x70c>
   821fc:	910f2108 	add	x8, x8, #0x3c8
   82200:	14000003 	b	8220c <<libkernel::memory::arch_mmu::translation_entry::Descriptor as core::fmt::Display>::fmt+0x2b8>
   82204:	f0000008 	adrp	x8, 85000 <compiler_builtins::mem::__llvm_memset_element_unordered_atomic_16+0x70c>
   82208:	910f3d08 	add	x8, x8, #0x3cf
   8220c:	52800060 	mov	w0, #0x3                   	// #3
   82210:	f90013e8 	str	x8, [sp, #32]
   82214:	97fffd63 	bl	817a0 <libkernel::memory::arch_mmu::translation_entry::Descriptor::get_address>
   82218:	b4000860 	cbz	x0, 82324 <<libkernel::memory::arch_mmu::translation_entry::Descriptor as core::fmt::Display>::fmt+0x3d0>
   8221c:	910083e8 	add	x8, sp, #0x20
   82220:	90000009 	adrp	x9, 82000 <<libkernel::memory::arch_mmu::translation_entry::Descriptor as core::fmt::Display>::fmt+0xac>
   82224:	910db129 	add	x9, x9, #0x36c
   82228:	f000000a 	adrp	x10, 85000 <compiler_builtins::mem::__llvm_memset_element_unordered_atomic_16+0x70c>
   8222c:	912c814a 	add	x10, x10, #0xb20
   82230:	f90017e1 	str	x1, [sp, #40]
   82234:	14000026 	b	822cc <<libkernel::memory::arch_mmu::translation_entry::Descriptor as core::fmt::Display>::fmt+0x378>
   82238:	f0000008 	adrp	x8, 85000 <compiler_builtins::mem::__llvm_memset_element_unordered_atomic_16+0x70c>
   8223c:	910f3508 	add	x8, x8, #0x3cd
   82240:	14000006 	b	82258 <<libkernel::memory::arch_mmu::translation_entry::Descriptor as core::fmt::Display>::fmt+0x304>
   82244:	f0000008 	adrp	x8, 85000 <compiler_builtins::mem::__llvm_memset_element_unordered_atomic_16+0x70c>
   82248:	910f2108 	add	x8, x8, #0x3c8
   8224c:	14000003 	b	82258 <<libkernel::memory::arch_mmu::translation_entry::Descriptor as core::fmt::Display>::fmt+0x304>
   82250:	f0000008 	adrp	x8, 85000 <compiler_builtins::mem::__llvm_memset_element_unordered_atomic_16+0x70c>
   82254:	910f3d08 	add	x8, x8, #0x3cf
   82258:	aa1f03e0 	mov	x0, xzr
   8225c:	f90013e8 	str	x8, [sp, #32]
   82260:	97fffd50 	bl	817a0 <libkernel::memory::arch_mmu::translation_entry::Descriptor::get_address>
   82264:	b40006c0 	cbz	x0, 8233c <<libkernel::memory::arch_mmu::translation_entry::Descriptor as core::fmt::Display>::fmt+0x3e8>
   82268:	910083e8 	add	x8, sp, #0x20
   8226c:	90000009 	adrp	x9, 82000 <<libkernel::memory::arch_mmu::translation_entry::Descriptor as core::fmt::Display>::fmt+0xac>
   82270:	910db129 	add	x9, x9, #0x36c
   82274:	f90017e1 	str	x1, [sp, #40]
   82278:	f000000a 	adrp	x10, 85000 <compiler_builtins::mem::__llvm_memset_element_unordered_atomic_16+0x70c>
   8227c:	912fe14a 	add	x10, x10, #0xbf8
   82280:	14000013 	b	822cc <<libkernel::memory::arch_mmu::translation_entry::Descriptor as core::fmt::Display>::fmt+0x378>
   82284:	f0000008 	adrp	x8, 85000 <compiler_builtins::mem::__llvm_memset_element_unordered_atomic_16+0x70c>
   82288:	910f3508 	add	x8, x8, #0x3cd
   8228c:	14000006 	b	822a4 <<libkernel::memory::arch_mmu::translation_entry::Descriptor as core::fmt::Display>::fmt+0x350>
   82290:	f0000008 	adrp	x8, 85000 <compiler_builtins::mem::__llvm_memset_element_unordered_atomic_16+0x70c>
   82294:	910f2108 	add	x8, x8, #0x3c8
   82298:	14000003 	b	822a4 <<libkernel::memory::arch_mmu::translation_entry::Descriptor as core::fmt::Display>::fmt+0x350>
   8229c:	f0000008 	adrp	x8, 85000 <compiler_builtins::mem::__llvm_memset_element_unordered_atomic_16+0x70c>
   822a0:	910f3d08 	add	x8, x8, #0x3cf
   822a4:	52800020 	mov	w0, #0x1                   	// #1
   822a8:	f90013e8 	str	x8, [sp, #32]
   822ac:	97fffd3d 	bl	817a0 <libkernel::memory::arch_mmu::translation_entry::Descriptor::get_address>
   822b0:	b4000520 	cbz	x0, 82354 <<libkernel::memory::arch_mmu::translation_entry::Descriptor as core::fmt::Display>::fmt+0x400>
   822b4:	910083e8 	add	x8, sp, #0x20
   822b8:	90000009 	adrp	x9, 82000 <<libkernel::memory::arch_mmu::translation_entry::Descriptor as core::fmt::Display>::fmt+0xac>
   822bc:	910db129 	add	x9, x9, #0x36c
   822c0:	f90017e1 	str	x1, [sp, #40]
   822c4:	f000000a 	adrp	x10, 85000 <compiler_builtins::mem::__llvm_memset_element_unordered_atomic_16+0x70c>
   822c8:	912ee14a 	add	x10, x10, #0xbb8
   822cc:	a90027e8 	stp	x8, x9, [sp]
   822d0:	9100a3e8 	add	x8, sp, #0x28
   822d4:	90000009 	adrp	x9, 82000 <<libkernel::memory::arch_mmu::translation_entry::Descriptor as core::fmt::Display>::fmt+0xac>
   822d8:	91220129 	add	x9, x9, #0x880
   822dc:	a9400660 	ldp	x0, x1, [x19]
   822e0:	a90127e8 	stp	x8, x9, [sp, #16]
   822e4:	52800048 	mov	w8, #0x2                   	// #2
   822e8:	910003e9 	mov	x9, sp
   822ec:	f9001bff 	str	xzr, [sp, #48]
   822f0:	a90423ea 	stp	x10, x8, [sp, #64]
   822f4:	a90523e9 	stp	x9, x8, [sp, #80]
   822f8:	9100c3e2 	add	x2, sp, #0x30
   822fc:	97fffa6e 	bl	80cb4 <core::fmt::write>
   82300:	a9464ffe 	ldp	x30, x19, [sp, #96]
   82304:	9101c3ff 	add	sp, sp, #0x70
   82308:	d65f03c0 	ret
   8230c:	f0000000 	adrp	x0, 85000 <compiler_builtins::mem::__llvm_memset_element_unordered_atomic_16+0x70c>
   82310:	913f2000 	add	x0, x0, #0xfc8
   82314:	f0000001 	adrp	x1, 85000 <compiler_builtins::mem::__llvm_memset_element_unordered_atomic_16+0x70c>
   82318:	912e2021 	add	x1, x1, #0xb88
   8231c:	97fffa52 	bl	80c64 <core::panicking::panic>
   82320:	d4200020 	brk	#0x1
   82324:	f0000000 	adrp	x0, 85000 <compiler_builtins::mem::__llvm_memset_element_unordered_atomic_16+0x70c>
   82328:	913f2000 	add	x0, x0, #0xfc8
   8232c:	f0000001 	adrp	x1, 85000 <compiler_builtins::mem::__llvm_memset_element_unordered_atomic_16+0x70c>
   82330:	912d0021 	add	x1, x1, #0xb40
   82334:	97fffa4c 	bl	80c64 <core::panicking::panic>
   82338:	d4200020 	brk	#0x1
   8233c:	f0000000 	adrp	x0, 85000 <compiler_builtins::mem::__llvm_memset_element_unordered_atomic_16+0x70c>
   82340:	913f2000 	add	x0, x0, #0xfc8
   82344:	f0000001 	adrp	x1, 85000 <compiler_builtins::mem::__llvm_memset_element_unordered_atomic_16+0x70c>
   82348:	91306021 	add	x1, x1, #0xc18
   8234c:	97fffa46 	bl	80c64 <core::panicking::panic>
   82350:	d4200020 	brk	#0x1
   82354:	f0000000 	adrp	x0, 85000 <compiler_builtins::mem::__llvm_memset_element_unordered_atomic_16+0x70c>
   82358:	913f2000 	add	x0, x0, #0xfc8
   8235c:	f0000001 	adrp	x1, 85000 <compiler_builtins::mem::__llvm_memset_element_unordered_atomic_16+0x70c>
   82360:	912f6021 	add	x1, x1, #0xbd8
   82364:	97fffa40 	bl	80c64 <core::panicking::panic>
   82368:	d4200020 	brk	#0x1

000000000008236c <<&T as core::fmt::Display>::fmt>:
   8236c:	d10103ff 	sub	sp, sp, #0x40
   82370:	f9001bfe 	str	x30, [sp, #48]
   82374:	f9400008 	ldr	x8, [x0]
   82378:	d0000009 	adrp	x9, 84000 <rust_begin_unwind+0xb4>
   8237c:	91252929 	add	x9, x9, #0x94a
   82380:	39400108 	ldrb	w8, [x8]
   82384:	1000008a 	adr	x10, 82394 <<&T as core::fmt::Display>::fmt+0x28>
   82388:	3868692b 	ldrb	w11, [x9, x8]
   8238c:	8b0b094a 	add	x10, x10, x11, lsl #2
   82390:	d61f0140 	br	x10
   82394:	f0000008 	adrp	x8, 85000 <compiler_builtins::mem::__llvm_memset_element_unordered_atomic_16+0x70c>
   82398:	910ee108 	add	x8, x8, #0x3b8
   8239c:	14000015 	b	823f0 <<&T as core::fmt::Display>::fmt+0x84>
   823a0:	f0000008 	adrp	x8, 85000 <compiler_builtins::mem::__llvm_memset_element_unordered_atomic_16+0x70c>
   823a4:	910e6108 	add	x8, x8, #0x398
   823a8:	14000012 	b	823f0 <<&T as core::fmt::Display>::fmt+0x84>
   823ac:	f0000008 	adrp	x8, 85000 <compiler_builtins::mem::__llvm_memset_element_unordered_atomic_16+0x70c>
   823b0:	910de108 	add	x8, x8, #0x378
   823b4:	1400000f 	b	823f0 <<&T as core::fmt::Display>::fmt+0x84>
   823b8:	f0000008 	adrp	x8, 85000 <compiler_builtins::mem::__llvm_memset_element_unordered_atomic_16+0x70c>
   823bc:	910d4108 	add	x8, x8, #0x350
   823c0:	1400000c 	b	823f0 <<&T as core::fmt::Display>::fmt+0x84>
   823c4:	f0000008 	adrp	x8, 85000 <compiler_builtins::mem::__llvm_memset_element_unordered_atomic_16+0x70c>
   823c8:	910c6108 	add	x8, x8, #0x318
   823cc:	14000009 	b	823f0 <<&T as core::fmt::Display>::fmt+0x84>
   823d0:	f0000008 	adrp	x8, 85000 <compiler_builtins::mem::__llvm_memset_element_unordered_atomic_16+0x70c>
   823d4:	910be108 	add	x8, x8, #0x2f8
   823d8:	14000006 	b	823f0 <<&T as core::fmt::Display>::fmt+0x84>
   823dc:	f0000008 	adrp	x8, 85000 <compiler_builtins::mem::__llvm_memset_element_unordered_atomic_16+0x70c>
   823e0:	910b6108 	add	x8, x8, #0x2d8
   823e4:	14000003 	b	823f0 <<&T as core::fmt::Display>::fmt+0x84>
   823e8:	f0000008 	adrp	x8, 85000 <compiler_builtins::mem::__llvm_memset_element_unordered_atomic_16+0x70c>
   823ec:	910b2108 	add	x8, x8, #0x2c8
   823f0:	a9400420 	ldp	x0, x1, [x1]
   823f4:	52800029 	mov	w9, #0x1                   	// #1
   823f8:	9000002a 	adrp	x10, 86000 <compiler_builtins::mem::__llvm_memset_element_unordered_atomic_16+0x170c>
   823fc:	910cc14a 	add	x10, x10, #0x330
   82400:	910003e2 	mov	x2, sp
   82404:	f90003ff 	str	xzr, [sp]
   82408:	f9000be8 	str	x8, [sp, #16]
   8240c:	a901abe9 	stp	x9, x10, [sp, #24]
   82410:	f90017ff 	str	xzr, [sp, #40]
   82414:	97fffa28 	bl	80cb4 <core::fmt::write>
   82418:	f9401bfe 	ldr	x30, [sp, #48]
   8241c:	910103ff 	add	sp, sp, #0x40
   82420:	d65f03c0 	ret

0000000000082424 <libkernel::print::_print>:
   82424:	d10143ff 	sub	sp, sp, #0x50
   82428:	f9001bfe 	str	x30, [sp, #48]
   8242c:	a9044ff4 	stp	x20, x19, [sp, #64]
   82430:	b0000028 	adrp	x8, 87000 <libkernel::console::CONSOLE>
   82434:	91002108 	add	x8, x8, #0x8
   82438:	aa0003e1 	mov	x1, x0
   8243c:	910003e0 	mov	x0, sp
   82440:	52800602 	mov	w2, #0x30                  	// #48
   82444:	a9405113 	ldp	x19, x20, [x8]
   82448:	94000738 	bl	84128 <memcpy>
   8244c:	f9401a88 	ldr	x8, [x20, #48]
   82450:	910003e1 	mov	x1, sp
   82454:	aa1303e0 	mov	x0, x19
   82458:	d63f0100 	blr	x8
   8245c:	370000e0 	tbnz	w0, #0, 82478 <libkernel::print::_print+0x54>
   82460:	a9444ff4 	ldp	x20, x19, [sp, #64]
   82464:	b0000020 	adrp	x0, 87000 <libkernel::console::CONSOLE>
   82468:	91000000 	add	x0, x0, #0x0
   8246c:	f9401bfe 	ldr	x30, [sp, #48]
   82470:	910143ff 	add	sp, sp, #0x50
   82474:	14000020 	b	824f4 <unlock>
   82478:	90000020 	adrp	x0, 86000 <compiler_builtins::mem::__llvm_memset_element_unordered_atomic_16+0x170c>
   8247c:	91024000 	add	x0, x0, #0x90
   82480:	f0000002 	adrp	x2, 85000 <compiler_builtins::mem::__llvm_memset_element_unordered_atomic_16+0x70c>
   82484:	9130c042 	add	x2, x2, #0xc30
   82488:	f0000003 	adrp	x3, 85000 <compiler_builtins::mem::__llvm_memset_element_unordered_atomic_16+0x70c>
   8248c:	9131a063 	add	x3, x3, #0xc68
   82490:	9100e3e1 	add	x1, sp, #0x38
   82494:	97fffaef 	bl	81050 <core::result::unwrap_failed>
   82498:	d4200020 	brk	#0x1

000000000008249c <<&T as core::fmt::Display>::fmt>:
   8249c:	f9400009 	ldr	x9, [x0]
   824a0:	aa0103e8 	mov	x8, x1
   824a4:	aa0803e0 	mov	x0, x8
   824a8:	a9400921 	ldp	x1, x2, [x9]
   824ac:	17fff86d 	b	80660 <core::fmt::Formatter::pad>

00000000000824b0 <<&T as core::fmt::Display>::fmt>:
   824b0:	d10143ff 	sub	sp, sp, #0x50
   824b4:	f9001bfe 	str	x30, [sp, #48]
   824b8:	a9044ff4 	stp	x20, x19, [sp, #64]
   824bc:	f9400008 	ldr	x8, [x0]
   824c0:	910003e0 	mov	x0, sp
   824c4:	a9405033 	ldp	x19, x20, [x1]
   824c8:	52800602 	mov	w2, #0x30                  	// #48
   824cc:	aa0803e1 	mov	x1, x8
   824d0:	94000716 	bl	84128 <memcpy>
   824d4:	910003e2 	mov	x2, sp
   824d8:	aa1303e0 	mov	x0, x19
   824dc:	aa1403e1 	mov	x1, x20
   824e0:	97fff9f5 	bl	80cb4 <core::fmt::write>
   824e4:	a9444ff4 	ldp	x20, x19, [sp, #64]
   824e8:	f9401bfe 	ldr	x30, [sp, #48]
   824ec:	910143ff 	add	sp, sp, #0x50
   824f0:	d65f03c0 	ret

00000000000824f4 <unlock>:
   824f4:	d65f03c0 	ret

00000000000824f8 <try_lock>:
   824f8:	52800020 	mov	w0, #0x1                   	// #1
   824fc:	d65f03c0 	ret

0000000000082500 <<core::option::Option<T> as core::fmt::Debug>::fmt>:
   82500:	d10283ff 	sub	sp, sp, #0xa0
   82504:	a9075ffe 	stp	x30, x23, [sp, #112]
   82508:	a90857f6 	stp	x22, x21, [sp, #128]
   8250c:	a9094ff4 	stp	x20, x19, [sp, #144]
   82510:	f9400008 	ldr	x8, [x0]
   82514:	aa0103f6 	mov	x22, x1
   82518:	b4000228 	cbz	x8, 8255c <<core::option::Option<T> as core::fmt::Debug>::fmt+0x5c>
   8251c:	a94052d3 	ldp	x19, x20, [x22]
   82520:	aa0003f5 	mov	x21, x0
   82524:	d0000001 	adrp	x1, 84000 <rust_begin_unwind+0xb4>
   82528:	913ca821 	add	x1, x1, #0xf2a
   8252c:	52800082 	mov	w2, #0x4                   	// #4
   82530:	aa1303e0 	mov	x0, x19
   82534:	f9400e97 	ldr	x23, [x20, #24]
   82538:	d63f02e0 	blr	x23
   8253c:	36000240 	tbz	w0, #0, 82584 <<core::option::Option<T> as core::fmt::Debug>::fmt+0x84>
   82540:	52800036 	mov	w22, #0x1                   	// #1
   82544:	2a1603e0 	mov	w0, w22
   82548:	a9494ff4 	ldp	x20, x19, [sp, #144]
   8254c:	a94857f6 	ldp	x22, x21, [sp, #128]
   82550:	a9475ffe 	ldp	x30, x23, [sp, #112]
   82554:	910283ff 	add	sp, sp, #0xa0
   82558:	d65f03c0 	ret
   8255c:	a94022c0 	ldp	x0, x8, [x22]
   82560:	d0000001 	adrp	x1, 84000 <rust_begin_unwind+0xb4>
   82564:	913cb821 	add	x1, x1, #0xf2e
   82568:	a9494ff4 	ldp	x20, x19, [sp, #144]
   8256c:	52800082 	mov	w2, #0x4                   	// #4
   82570:	a94857f6 	ldp	x22, x21, [sp, #128]
   82574:	a9475ffe 	ldp	x30, x23, [sp, #112]
   82578:	f9400d03 	ldr	x3, [x8, #24]
   8257c:	910283ff 	add	sp, sp, #0xa0
   82580:	d61f0060 	br	x3
   82584:	3940c2c8 	ldrb	w8, [x22, #48]
   82588:	371003e8 	tbnz	w8, #2, 82604 <<core::option::Option<T> as core::fmt::Debug>::fmt+0x104>
   8258c:	f0000001 	adrp	x1, 85000 <compiler_builtins::mem::__llvm_memset_element_unordered_atomic_16+0x70c>
   82590:	91037021 	add	x1, x1, #0xdc
   82594:	aa1303e0 	mov	x0, x19
   82598:	52800022 	mov	w2, #0x1                   	// #1
   8259c:	52800036 	mov	w22, #0x1                   	// #1
   825a0:	d63f02e0 	blr	x23
   825a4:	3707fd00 	tbnz	w0, #0, 82544 <<core::option::Option<T> as core::fmt::Debug>::fmt+0x44>
   825a8:	f94006a8 	ldr	x8, [x21, #8]
   825ac:	d354cd09 	ubfx	x9, x8, #20, #32
   825b0:	b50008e9 	cbnz	x9, 826cc <<core::option::Option<T> as core::fmt::Debug>::fmt+0x1cc>
   825b4:	d374cd08 	lsl	x8, x8, #12
   825b8:	9100a3e9 	add	x9, sp, #0x28
   825bc:	9000000a 	adrp	x10, 82000 <<libkernel::memory::arch_mmu::translation_entry::Descriptor as core::fmt::Display>::fmt+0xac>
   825c0:	911bf14a 	add	x10, x10, #0x6fc
   825c4:	f000000b 	adrp	x11, 85000 <compiler_builtins::mem::__llvm_memset_element_unordered_atomic_16+0x70c>
   825c8:	913be16b 	add	x11, x11, #0xef8
   825cc:	f90017e8 	str	x8, [sp, #40]
   825d0:	52800048 	mov	w8, #0x2                   	// #2
   825d4:	a900abe9 	stp	x9, x10, [sp, #8]
   825d8:	910023e9 	add	x9, sp, #0x8
   825dc:	52800036 	mov	w22, #0x1                   	// #1
   825e0:	910103e2 	add	x2, sp, #0x40
   825e4:	aa1303e0 	mov	x0, x19
   825e8:	aa1403e1 	mov	x1, x20
   825ec:	f90023ff 	str	xzr, [sp, #64]
   825f0:	a90523eb 	stp	x11, x8, [sp, #80]
   825f4:	a9065be9 	stp	x9, x22, [sp, #96]
   825f8:	97fff9af 	bl	80cb4 <core::fmt::write>
   825fc:	3707fa40 	tbnz	w0, #0, 82544 <<core::option::Option<T> as core::fmt::Debug>::fmt+0x44>
   82600:	14000029 	b	826a4 <<core::option::Option<T> as core::fmt::Debug>::fmt+0x1a4>
   82604:	f0000001 	adrp	x1, 85000 <compiler_builtins::mem::__llvm_memset_element_unordered_atomic_16+0x70c>
   82608:	91036821 	add	x1, x1, #0xda
   8260c:	aa1303e0 	mov	x0, x19
   82610:	52800042 	mov	w2, #0x2                   	// #2
   82614:	d63f02e0 	blr	x23
   82618:	52800036 	mov	w22, #0x1                   	// #1
   8261c:	3707f940 	tbnz	w0, #0, 82544 <<core::option::Option<T> as core::fmt::Debug>::fmt+0x44>
   82620:	f94006a8 	ldr	x8, [x21, #8]
   82624:	910093e9 	add	x9, sp, #0x24
   82628:	390093f6 	strb	w22, [sp, #36]
   8262c:	a900d3f3 	stp	x19, x20, [sp, #8]
   82630:	d354cd0a 	ubfx	x10, x8, #20, #32
   82634:	f9000fe9 	str	x9, [sp, #24]
   82638:	b50004aa 	cbnz	x10, 826cc <<core::option::Option<T> as core::fmt::Debug>::fmt+0x1cc>
   8263c:	d374cd08 	lsl	x8, x8, #12
   82640:	9100e3e9 	add	x9, sp, #0x38
   82644:	9000000a 	adrp	x10, 82000 <<libkernel::memory::arch_mmu::translation_entry::Descriptor as core::fmt::Display>::fmt+0xac>
   82648:	911bf14a 	add	x10, x10, #0x6fc
   8264c:	f000000b 	adrp	x11, 85000 <compiler_builtins::mem::__llvm_memset_element_unordered_atomic_16+0x70c>
   82650:	913be16b 	add	x11, x11, #0xef8
   82654:	f90017e9 	str	x9, [sp, #40]
   82658:	9100a3e9 	add	x9, sp, #0x28
   8265c:	a90323ea 	stp	x10, x8, [sp, #48]
   82660:	52800048 	mov	w8, #0x2                   	// #2
   82664:	5280002a 	mov	w10, #0x1                   	// #1
   82668:	f0000001 	adrp	x1, 85000 <compiler_builtins::mem::__llvm_memset_element_unordered_atomic_16+0x70c>
   8266c:	9102a021 	add	x1, x1, #0xa8
   82670:	910023e0 	add	x0, sp, #0x8
   82674:	910103e2 	add	x2, sp, #0x40
   82678:	f90023ff 	str	xzr, [sp, #64]
   8267c:	a90523eb 	stp	x11, x8, [sp, #80]
   82680:	a9062be9 	stp	x9, x10, [sp, #96]
   82684:	97fff98c 	bl	80cb4 <core::fmt::write>
   82688:	3707f5c0 	tbnz	w0, #0, 82540 <<core::option::Option<T> as core::fmt::Debug>::fmt+0x40>
   8268c:	f0000001 	adrp	x1, 85000 <compiler_builtins::mem::__llvm_memset_element_unordered_atomic_16+0x70c>
   82690:	91036021 	add	x1, x1, #0xd8
   82694:	910023e0 	add	x0, sp, #0x8
   82698:	52800042 	mov	w2, #0x2                   	// #2
   8269c:	97fffa83 	bl	810a8 <<core::fmt::builders::PadAdapter as core::fmt::Write>::write_str>
   826a0:	3707f500 	tbnz	w0, #0, 82540 <<core::option::Option<T> as core::fmt::Debug>::fmt+0x40>
   826a4:	f0000001 	adrp	x1, 85000 <compiler_builtins::mem::__llvm_memset_element_unordered_atomic_16+0x70c>
   826a8:	91016021 	add	x1, x1, #0x58
   826ac:	aa1303e0 	mov	x0, x19
   826b0:	52800022 	mov	w2, #0x1                   	// #1
   826b4:	d63f02e0 	blr	x23
   826b8:	a9494ff4 	ldp	x20, x19, [sp, #144]
   826bc:	a94857f6 	ldp	x22, x21, [sp, #128]
   826c0:	a9475ffe 	ldp	x30, x23, [sp, #112]
   826c4:	910283ff 	add	sp, sp, #0xa0
   826c8:	d65f03c0 	ret
   826cc:	90000028 	adrp	x8, 86000 <compiler_builtins::mem::__llvm_memset_element_unordered_atomic_16+0x170c>
   826d0:	9108a108 	add	x8, x8, #0x228
   826d4:	90000020 	adrp	x0, 86000 <compiler_builtins::mem::__llvm_memset_element_unordered_atomic_16+0x170c>
   826d8:	91024000 	add	x0, x0, #0x90
   826dc:	f0000002 	adrp	x2, 85000 <compiler_builtins::mem::__llvm_memset_element_unordered_atomic_16+0x70c>
   826e0:	913c6042 	add	x2, x2, #0xf18
   826e4:	f0000003 	adrp	x3, 85000 <compiler_builtins::mem::__llvm_memset_element_unordered_atomic_16+0x70c>
   826e8:	913d8063 	add	x3, x3, #0xf60
   826ec:	910103e1 	add	x1, sp, #0x40
   826f0:	f90023e8 	str	x8, [sp, #64]
   826f4:	97fffa57 	bl	81050 <core::result::unwrap_failed>
   826f8:	d4200020 	brk	#0x1

00000000000826fc <<libkernel::memory::arch_mmu::address::PhysicalAddress as core::fmt::Debug>::fmt>:
   826fc:	d10183ff 	sub	sp, sp, #0x60
   82700:	f0ffffe8 	adrp	x8, 81000 <core::fmt::num::imp::<impl core::fmt::Display for u32>::fmt+0x128>
   82704:	911a7108 	add	x8, x8, #0x69c
   82708:	f940000b 	ldr	x11, [x0]
   8270c:	d0ffffe9 	adrp	x9, 80000 <_start>
   82710:	9104d129 	add	x9, x9, #0x134
   82714:	910163ea 	add	x10, sp, #0x58
   82718:	a90023e0 	stp	x0, x8, [sp]
   8271c:	f000000c 	adrp	x12, 85000 <compiler_builtins::mem::__llvm_memset_element_unordered_atomic_16+0x70c>
   82720:	913a018c 	add	x12, x12, #0xe80
   82724:	d34cfd68 	lsr	x8, x11, #12
   82728:	a9400420 	ldp	x0, x1, [x1]
   8272c:	a90127ea 	stp	x10, x9, [sp, #16]
   82730:	52800049 	mov	w9, #0x2                   	// #2
   82734:	a90523fe 	stp	x30, x8, [sp, #80]
   82738:	f0000008 	adrp	x8, 85000 <compiler_builtins::mem::__llvm_memset_element_unordered_atomic_16+0x70c>
   8273c:	91398108 	add	x8, x8, #0xe60
   82740:	910003ea 	mov	x10, sp
   82744:	910083e2 	add	x2, sp, #0x20
   82748:	a90227ec 	stp	x12, x9, [sp, #32]
   8274c:	a90327e8 	stp	x8, x9, [sp, #48]
   82750:	a90427ea 	stp	x10, x9, [sp, #64]
   82754:	97fff958 	bl	80cb4 <core::fmt::write>
   82758:	f9402bfe 	ldr	x30, [sp, #80]
   8275c:	910183ff 	add	sp, sp, #0x60
   82760:	d65f03c0 	ret

0000000000082764 <<libkernel::memory::arch_mmu::address::VirtualAddress as core::fmt::Debug>::fmt>:
   82764:	d10243ff 	sub	sp, sp, #0x90
   82768:	f0ffffe8 	adrp	x8, 81000 <core::fmt::num::imp::<impl core::fmt::Display for u32>::fmt+0x128>
   8276c:	911a7108 	add	x8, x8, #0x69c
   82770:	f9400009 	ldr	x9, [x0]
   82774:	910103eb 	add	x11, sp, #0x40
   82778:	910143e2 	add	x2, sp, #0x50
   8277c:	a90023e0 	stp	x0, x8, [sp]
   82780:	d0ffffe8 	adrp	x8, 80000 <_start>
   82784:	9104d108 	add	x8, x8, #0x134
   82788:	d35e9932 	ubfx	x18, x9, #30, #9
   8278c:	d355752a 	ubfx	x10, x9, #21, #9
   82790:	d34c5129 	ubfx	x9, x9, #12, #9
   82794:	a9400420 	ldp	x0, x1, [x1]
   82798:	a90123eb 	stp	x11, x8, [sp, #16]
   8279c:	910123eb 	add	x11, sp, #0x48
   827a0:	a90827fe 	stp	x30, x9, [sp, #128]
   827a4:	910223e9 	add	x9, sp, #0x88
   827a8:	a9042bf2 	stp	x18, x10, [sp, #64]
   827ac:	f000000a 	adrp	x10, 85000 <compiler_builtins::mem::__llvm_memset_element_unordered_atomic_16+0x70c>
   827b0:	9135c14a 	add	x10, x10, #0xd70
   827b4:	a90223eb 	stp	x11, x8, [sp, #32]
   827b8:	a90323e9 	stp	x9, x8, [sp, #48]
   827bc:	52800088 	mov	w8, #0x4                   	// #4
   827c0:	528000a9 	mov	w9, #0x5                   	// #5
   827c4:	910003eb 	mov	x11, sp
   827c8:	a90523ea 	stp	x10, x8, [sp, #80]
   827cc:	f000000a 	adrp	x10, 85000 <compiler_builtins::mem::__llvm_memset_element_unordered_atomic_16+0x70c>
   827d0:	9134814a 	add	x10, x10, #0xd20
   827d4:	a90723eb 	stp	x11, x8, [sp, #112]
   827d8:	a90627ea 	stp	x10, x9, [sp, #96]
   827dc:	97fff936 	bl	80cb4 <core::fmt::write>
   827e0:	f94043fe 	ldr	x30, [sp, #128]
   827e4:	910243ff 	add	sp, sp, #0x90
   827e8:	d65f03c0 	ret

00000000000827ec <<libkernel::memory::arch_mmu::address::FrameNumber as core::fmt::Debug>::fmt>:
   827ec:	d10143ff 	sub	sp, sp, #0x50
   827f0:	f90023fe 	str	x30, [sp, #64]
   827f4:	f9400008 	ldr	x8, [x0]
   827f8:	d354cd09 	ubfx	x9, x8, #20, #32
   827fc:	b50002a9 	cbnz	x9, 82850 <<libkernel::memory::arch_mmu::address::FrameNumber as core::fmt::Debug>::fmt+0x64>
   82800:	d374cd08 	lsl	x8, x8, #12
   82804:	910123e9 	add	x9, sp, #0x48
   82808:	9000000a 	adrp	x10, 82000 <<libkernel::memory::arch_mmu::translation_entry::Descriptor as core::fmt::Display>::fmt+0xac>
   8280c:	911bf14a 	add	x10, x10, #0x6fc
   82810:	a9400420 	ldp	x0, x1, [x1]
   82814:	f90027e8 	str	x8, [sp, #72]
   82818:	f0000008 	adrp	x8, 85000 <compiler_builtins::mem::__llvm_memset_element_unordered_atomic_16+0x70c>
   8281c:	913be108 	add	x8, x8, #0xef8
   82820:	a9002be9 	stp	x9, x10, [sp]
   82824:	52800049 	mov	w9, #0x2                   	// #2
   82828:	5280002a 	mov	w10, #0x1                   	// #1
   8282c:	910043e2 	add	x2, sp, #0x10
   82830:	f9000bff 	str	xzr, [sp, #16]
   82834:	a90227e8 	stp	x8, x9, [sp, #32]
   82838:	910003e8 	mov	x8, sp
   8283c:	a9032be8 	stp	x8, x10, [sp, #48]
   82840:	97fff91d 	bl	80cb4 <core::fmt::write>
   82844:	f94023fe 	ldr	x30, [sp, #64]
   82848:	910143ff 	add	sp, sp, #0x50
   8284c:	d65f03c0 	ret
   82850:	90000028 	adrp	x8, 86000 <compiler_builtins::mem::__llvm_memset_element_unordered_atomic_16+0x170c>
   82854:	9108a108 	add	x8, x8, #0x228
   82858:	90000020 	adrp	x0, 86000 <compiler_builtins::mem::__llvm_memset_element_unordered_atomic_16+0x170c>
   8285c:	91024000 	add	x0, x0, #0x90
   82860:	f0000002 	adrp	x2, 85000 <compiler_builtins::mem::__llvm_memset_element_unordered_atomic_16+0x70c>
   82864:	913c6042 	add	x2, x2, #0xf18
   82868:	f0000003 	adrp	x3, 85000 <compiler_builtins::mem::__llvm_memset_element_unordered_atomic_16+0x70c>
   8286c:	913d8063 	add	x3, x3, #0xf60
   82870:	910043e1 	add	x1, sp, #0x10
   82874:	f9000be8 	str	x8, [sp, #16]
   82878:	97fff9f6 	bl	81050 <core::result::unwrap_failed>
   8287c:	d4200020 	brk	#0x1

0000000000082880 <<libkernel::memory::arch_mmu::address::VirtualAddress as core::fmt::Display>::fmt>:
   82880:	f0ffffe8 	adrp	x8, 81000 <core::fmt::num::imp::<impl core::fmt::Display for u32>::fmt+0x128>
   82884:	911a7108 	add	x8, x8, #0x69c
   82888:	f0000009 	adrp	x9, 85000 <compiler_builtins::mem::__llvm_memset_element_unordered_atomic_16+0x70c>
   8288c:	913e4129 	add	x9, x9, #0xf90
   82890:	a9bb23e0 	stp	x0, x8, [sp, #-80]!
   82894:	52800028 	mov	w8, #0x1                   	// #1
   82898:	9000002a 	adrp	x10, 86000 <compiler_builtins::mem::__llvm_memset_element_unordered_atomic_16+0x170c>
   8289c:	910a614a 	add	x10, x10, #0x298
   828a0:	910043e2 	add	x2, sp, #0x10
   828a4:	a9400420 	ldp	x0, x1, [x1]
   828a8:	a90123e9 	stp	x9, x8, [sp, #16]
   828ac:	910003e9 	mov	x9, sp
   828b0:	a90223ea 	stp	x10, x8, [sp, #32]
   828b4:	a903fbe8 	stp	x8, x30, [sp, #56]
   828b8:	f9001be9 	str	x9, [sp, #48]
   828bc:	97fff8fe 	bl	80cb4 <core::fmt::write>
   828c0:	f94023fe 	ldr	x30, [sp, #64]
   828c4:	910143ff 	add	sp, sp, #0x50
   828c8:	d65f03c0 	ret

00000000000828cc <libkernel::memory::arch_mmu::MemoryManagementUnit::config>:
   828cc:	d10583ff 	sub	sp, sp, #0x160
   828d0:	a9107bfd 	stp	x29, x30, [sp, #256]
   828d4:	a9116ffc 	stp	x28, x27, [sp, #272]
   828d8:	a91267fa 	stp	x26, x25, [sp, #288]
   828dc:	a9135ff8 	stp	x24, x23, [sp, #304]
   828e0:	a91457f6 	stp	x22, x21, [sp, #320]
   828e4:	a9154ff4 	stp	x20, x19, [sp, #336]
   828e8:	9102e3e9 	add	x9, sp, #0xb8
   828ec:	f0fffff4 	adrp	x20, 81000 <core::fmt::num::imp::<impl core::fmt::Display for u32>::fmt+0x128>
   828f0:	911a7294 	add	x20, x20, #0x69c
   828f4:	b000002d 	adrp	x13, 87000 <libkernel::console::CONSOLE>
   828f8:	910021ad 	add	x13, x13, #0x8
   828fc:	b2409be8 	mov	x8, #0x7fffffffff          	// #549755813887
   82900:	5280004a 	mov	w10, #0x2                   	// #2
   82904:	9000002b 	adrp	x11, 86000 <compiler_builtins::mem::__llvm_memset_element_unordered_atomic_16+0x170c>
   82908:	9100216b 	add	x11, x11, #0x8
   8290c:	a90653e9 	stp	x9, x20, [sp, #96]
   82910:	a94025a0 	ldp	x0, x9, [x13]
   82914:	f9005fe8 	str	x8, [sp, #184]
   82918:	90000028 	adrp	x8, 86000 <compiler_builtins::mem::__llvm_memset_element_unordered_atomic_16+0x170c>
   8291c:	9100a108 	add	x8, x8, #0x28
   82920:	5280002c 	mov	w12, #0x1                   	// #1
   82924:	a90dabeb 	stp	x11, x10, [sp, #216]
   82928:	910183ea 	add	x10, sp, #0x60
   8292c:	910323e1 	add	x1, sp, #0xc8
   82930:	a90cb3e8 	stp	x8, x12, [sp, #200]
   82934:	f9401928 	ldr	x8, [x9, #48]
   82938:	a90eb3ea 	stp	x10, x12, [sp, #232]
   8293c:	d63f0100 	blr	x8
   82940:	35006cc0 	cbnz	w0, 836d8 <libkernel::memory::arch_mmu::MemoryManagementUnit::config+0xe0c>
   82944:	b0000020 	adrp	x0, 87000 <libkernel::console::CONSOLE>
   82948:	91000000 	add	x0, x0, #0x0
   8294c:	97fffeea 	bl	824f4 <unlock>
   82950:	d5380708 	mrs	x8, id_aa64mmfr0_el1
   82954:	f2640d1f 	tst	x8, #0xf0000000
   82958:	54007481 	b.ne	837e8 <libkernel::memory::arch_mmu::MemoryManagementUnit::config+0xf1c>  // b.any
   8295c:	b000002b 	adrp	x11, 87000 <libkernel::console::CONSOLE>
   82960:	9100216b 	add	x11, x11, #0x8
   82964:	90000029 	adrp	x9, 86000 <compiler_builtins::mem::__llvm_memset_element_unordered_atomic_16+0x170c>
   82968:	91020129 	add	x9, x9, #0x80
   8296c:	5280002a 	mov	w10, #0x1                   	// #1
   82970:	9000003a 	adrp	x26, 86000 <compiler_builtins::mem::__llvm_memset_element_unordered_atomic_16+0x170c>
   82974:	910cc35a 	add	x26, x26, #0x330
   82978:	910323e1 	add	x1, sp, #0xc8
   8297c:	a9402160 	ldp	x0, x8, [x11]
   82980:	f90067ff 	str	xzr, [sp, #200]
   82984:	a90dabe9 	stp	x9, x10, [sp, #216]
   82988:	a90efffa 	stp	x26, xzr, [sp, #232]
   8298c:	f9401908 	ldr	x8, [x8, #48]
   82990:	d63f0100 	blr	x8
   82994:	35006a20 	cbnz	w0, 836d8 <libkernel::memory::arch_mmu::MemoryManagementUnit::config+0xe0c>
   82998:	b0000033 	adrp	x19, 87000 <libkernel::console::CONSOLE>
   8299c:	91000273 	add	x19, x19, #0x0
   829a0:	aa1303e0 	mov	x0, x19
   829a4:	97fffed4 	bl	824f4 <unlock>
   829a8:	52860328 	mov	w8, #0x3019                	// #12313
   829ac:	52888089 	mov	w9, #0x4404                	// #17412
   829b0:	72a01008 	movk	w8, #0x80, lsl #16
   829b4:	d5182048 	msr	tcr_el1, x8
   829b8:	d518a209 	msr	mair_el1, x9
   829bc:	d5382008 	mrs	x8, ttbr0_el1
   829c0:	f27fb918 	ands	x24, x8, #0xfffffffffffe
   829c4:	540067e0 	b.eq	836c0 <libkernel::memory::arch_mmu::MemoryManagementUnit::config+0xdf4>  // b.none
   829c8:	b0000029 	adrp	x9, 87000 <libkernel::console::CONSOLE>
   829cc:	91002129 	add	x9, x9, #0x8
   829d0:	d0000008 	adrp	x8, 84000 <rust_begin_unwind+0xb4>
   829d4:	91288108 	add	x8, x8, #0xa20
   829d8:	5280004a 	mov	w10, #0x2                   	// #2
   829dc:	9102e3f9 	add	x25, sp, #0xb8
   829e0:	a9402520 	ldp	x0, x9, [x9]
   829e4:	90000015 	adrp	x21, 82000 <<libkernel::memory::arch_mmu::translation_entry::Descriptor as core::fmt::Display>::fmt+0xac>
   829e8:	912202b5 	add	x21, x21, #0x880
   829ec:	910183f7 	add	x23, sp, #0x60
   829f0:	a90dabe8 	stp	x8, x10, [sp, #216]
   829f4:	52800028 	mov	w8, #0x1                   	// #1
   829f8:	910323e1 	add	x1, sp, #0xc8
   829fc:	f9005ff8 	str	x24, [sp, #184]
   82a00:	f9401929 	ldr	x9, [x9, #48]
   82a04:	a90657f9 	stp	x25, x21, [sp, #96]
   82a08:	f90067ff 	str	xzr, [sp, #200]
   82a0c:	a90ea3f7 	stp	x23, x8, [sp, #232]
   82a10:	d63f0120 	blr	x9
   82a14:	35006620 	cbnz	w0, 836d8 <libkernel::memory::arch_mmu::MemoryManagementUnit::config+0xe0c>
   82a18:	aa1303e0 	mov	x0, x19
   82a1c:	97fffeb6 	bl	824f4 <unlock>
   82a20:	d0000008 	adrp	x8, 84000 <rust_begin_unwind+0xb4>
   82a24:	9129e108 	add	x8, x8, #0xa78
   82a28:	d0ffffe9 	adrp	x9, 80000 <_start>
   82a2c:	9104d129 	add	x9, x9, #0x134
   82a30:	a940aa60 	ldp	x0, x10, [x19, #8]
   82a34:	d000000b 	adrp	x11, 84000 <rust_begin_unwind+0xb4>
   82a38:	9129216b 	add	x11, x11, #0xa48
   82a3c:	a90627e8 	stp	x8, x9, [sp, #96]
   82a40:	52800048 	mov	w8, #0x2                   	// #2
   82a44:	d0000009 	adrp	x9, 84000 <rust_begin_unwind+0xb4>
   82a48:	912a6129 	add	x9, x9, #0xa98
   82a4c:	913fe316 	add	x22, x24, #0xff8
   82a50:	910323e1 	add	x1, sp, #0xc8
   82a54:	a90753f9 	stp	x25, x20, [sp, #112]
   82a58:	a90ca3e9 	stp	x9, x8, [sp, #200]
   82a5c:	52800069 	mov	w9, #0x3                   	// #3
   82a60:	f9005ff6 	str	x22, [sp, #184]
   82a64:	a90ea3f7 	stp	x23, x8, [sp, #232]
   82a68:	a90da7eb 	stp	x11, x9, [sp, #216]
   82a6c:	f9401949 	ldr	x9, [x10, #48]
   82a70:	d63f0120 	blr	x9
   82a74:	35006320 	cbnz	w0, 836d8 <libkernel::memory::arch_mmu::MemoryManagementUnit::config+0xe0c>
   82a78:	b0000020 	adrp	x0, 87000 <libkernel::console::CONSOLE>
   82a7c:	91000000 	add	x0, x0, #0x0
   82a80:	97fffe9d 	bl	824f4 <unlock>
   82a84:	394002c8 	ldrb	w8, [x22]
   82a88:	37006c88 	tbnz	w8, #0, 83818 <libkernel::memory::arch_mmu::MemoryManagementUnit::config+0xf4c>
   82a8c:	910283ea 	add	x10, sp, #0xa0
   82a90:	f0ffffeb 	adrp	x11, 81000 <core::fmt::num::imp::<impl core::fmt::Display for u32>::fmt+0x128>
   82a94:	913d516b 	add	x11, x11, #0xf54
   82a98:	d2800069 	mov	x9, #0x3                   	// #3
   82a9c:	52800048 	mov	w8, #0x2                   	// #2
   82aa0:	f2e70009 	movk	x9, #0x3800, lsl #48
   82aa4:	d0000017 	adrp	x23, 84000 <rust_begin_unwind+0xb4>
   82aa8:	912cc2f7 	add	x23, x23, #0xb30
   82aac:	a9062fea 	stp	x10, x11, [sp, #96]
   82ab0:	b000002b 	adrp	x11, 87000 <libkernel::console::CONSOLE>
   82ab4:	9100216b 	add	x11, x11, #0x8
   82ab8:	a90a27e8 	stp	x8, x9, [sp, #160]
   82abc:	910183ea 	add	x10, sp, #0x60
   82ac0:	910323e1 	add	x1, sp, #0xc8
   82ac4:	f90067ff 	str	xzr, [sp, #200]
   82ac8:	a9402560 	ldp	x0, x9, [x11]
   82acc:	a90e2be8 	stp	x8, x10, [sp, #224]
   82ad0:	52800028 	mov	w8, #0x1                   	// #1
   82ad4:	f9006ff7 	str	x23, [sp, #216]
   82ad8:	f9007be8 	str	x8, [sp, #240]
   82adc:	f9401929 	ldr	x9, [x9, #48]
   82ae0:	d63f0120 	blr	x9
   82ae4:	35005fa0 	cbnz	w0, 836d8 <libkernel::memory::arch_mmu::MemoryManagementUnit::config+0xe0c>
   82ae8:	b0000020 	adrp	x0, 87000 <libkernel::console::CONSOLE>
   82aec:	91000000 	add	x0, x0, #0x0
   82af0:	97fffe81 	bl	824f4 <unlock>
   82af4:	d360ff08 	lsr	x8, x24, #32
   82af8:	b5006a88 	cbnz	x8, 83848 <libkernel::memory::arch_mmu::MemoryManagementUnit::config+0xf7c>
   82afc:	b000002c 	adrp	x12, 87000 <libkernel::console::CONSOLE>
   82b00:	9100218c 	add	x12, x12, #0x8
   82b04:	910243e8 	add	x8, sp, #0x90
   82b08:	90000009 	adrp	x9, 82000 <<libkernel::memory::arch_mmu::translation_entry::Descriptor as core::fmt::Display>::fmt+0xac>
   82b0c:	911bf129 	add	x9, x9, #0x6fc
   82b10:	5280004b 	mov	w11, #0x2                   	// #2
   82b14:	a9402980 	ldp	x0, x10, [x12]
   82b18:	d0000014 	adrp	x20, 84000 <rust_begin_unwind+0xb4>
   82b1c:	912de294 	add	x20, x20, #0xb78
   82b20:	a90627e8 	stp	x8, x9, [sp, #96]
   82b24:	910183e8 	add	x8, sp, #0x60
   82b28:	910323e1 	add	x1, sp, #0xc8
   82b2c:	f9004bf8 	str	x24, [sp, #144]
   82b30:	f90067ff 	str	xzr, [sp, #200]
   82b34:	a90e23eb 	stp	x11, x8, [sp, #224]
   82b38:	52800028 	mov	w8, #0x1                   	// #1
   82b3c:	f9401949 	ldr	x9, [x10, #48]
   82b40:	f9006ff4 	str	x20, [sp, #216]
   82b44:	f9007be8 	str	x8, [sp, #240]
   82b48:	d63f0120 	blr	x9
   82b4c:	35005c60 	cbnz	w0, 836d8 <libkernel::memory::arch_mmu::MemoryManagementUnit::config+0xe0c>
   82b50:	b0000033 	adrp	x19, 87000 <libkernel::console::CONSOLE>
   82b54:	91000273 	add	x19, x19, #0x0
   82b58:	aa1303e0 	mov	x0, x19
   82b5c:	97fffe66 	bl	824f4 <unlock>
   82b60:	f94053e8 	ldr	x8, [sp, #160]
   82b64:	f100091f 	cmp	x8, #0x2
   82b68:	54006881 	b.ne	83878 <libkernel::memory::arch_mmu::MemoryManagementUnit::config+0xfac>  // b.any
   82b6c:	f94057e9 	ldr	x9, [sp, #168]
   82b70:	d280e08a 	mov	x10, #0x704                 	// #1796
   82b74:	f2e00c0a 	movk	x10, #0x60, lsl #48
   82b78:	f9404be8 	ldr	x8, [sp, #144]
   82b7c:	5280006b 	mov	w11, #0x3                   	// #3
   82b80:	aa0a0129 	orr	x9, x9, x10
   82b84:	f2402d1f 	tst	x8, #0xfff
   82b88:	a90ba7eb 	stp	x11, x9, [sp, #184]
   82b8c:	540068e1 	b.ne	838a8 <libkernel::memory::arch_mmu::MemoryManagementUnit::config+0xfdc>  // b.any
   82b90:	aa090108 	orr	x8, x8, x9
   82b94:	9102e3e9 	add	x9, sp, #0xb8
   82b98:	f0ffffea 	adrp	x10, 81000 <core::fmt::num::imp::<impl core::fmt::Display for u32>::fmt+0x128>
   82b9c:	913d514a 	add	x10, x10, #0xf54
   82ba0:	910183f9 	add	x25, sp, #0x60
   82ba4:	910323e1 	add	x1, sp, #0xc8
   82ba8:	a90c7fe8 	stp	x8, xzr, [sp, #192]
   82bac:	b0000028 	adrp	x8, 87000 <libkernel::console::CONSOLE>
   82bb0:	91002108 	add	x8, x8, #0x8
   82bb4:	a9062be9 	stp	x9, x10, [sp, #96]
   82bb8:	52800049 	mov	w9, #0x2                   	// #2
   82bbc:	5280002a 	mov	w10, #0x1                   	// #1
   82bc0:	a9402100 	ldp	x0, x8, [x8]
   82bc4:	a90da7f7 	stp	x23, x9, [sp, #216]
   82bc8:	a90eabf9 	stp	x25, x10, [sp, #232]
   82bcc:	f9401908 	ldr	x8, [x8, #48]
   82bd0:	d63f0100 	blr	x8
   82bd4:	35005820 	cbnz	w0, 836d8 <libkernel::memory::arch_mmu::MemoryManagementUnit::config+0xe0c>
   82bd8:	aa1303e0 	mov	x0, x19
   82bdc:	97fffe46 	bl	824f4 <unlock>
   82be0:	a94ba7e8 	ldp	x8, x9, [sp, #184]
   82be4:	5280004a 	mov	w10, #0x2                   	// #2
   82be8:	910323e1 	add	x1, sp, #0xc8
   82bec:	f90067ff 	str	xzr, [sp, #200]
   82bf0:	f100111f 	cmp	x8, #0x4
   82bf4:	f0ffffe8 	adrp	x8, 81000 <core::fmt::num::imp::<impl core::fmt::Display for u32>::fmt+0x128>
   82bf8:	911d5108 	add	x8, x8, #0x754
   82bfc:	9a9f3129 	csel	x9, x9, xzr, cc  // cc = lo, ul, last
   82c00:	f90002c9 	str	x9, [x22]
   82c04:	a940a660 	ldp	x0, x9, [x19, #8]
   82c08:	a90623f6 	stp	x22, x8, [sp, #96]
   82c0c:	d0000008 	adrp	x8, 84000 <rust_begin_unwind+0xb4>
   82c10:	912f4108 	add	x8, x8, #0xbd0
   82c14:	a90dabe8 	stp	x8, x10, [sp, #216]
   82c18:	52800028 	mov	w8, #0x1                   	// #1
   82c1c:	f9401929 	ldr	x9, [x9, #48]
   82c20:	a90ea3f9 	stp	x25, x8, [sp, #232]
   82c24:	d63f0120 	blr	x9
   82c28:	35005580 	cbnz	w0, 836d8 <libkernel::memory::arch_mmu::MemoryManagementUnit::config+0xe0c>
   82c2c:	b0000033 	adrp	x19, 87000 <libkernel::console::CONSOLE>
   82c30:	91000273 	add	x19, x19, #0x0
   82c34:	aa1303e0 	mov	x0, x19
   82c38:	97fffe2f 	bl	824f4 <unlock>
   82c3c:	d0ffffe8 	adrp	x8, 80000 <_start>
   82c40:	91000108 	add	x8, x8, #0x0
   82c44:	d370fd09 	lsr	x9, x8, #48
   82c48:	90000039 	adrp	x25, 86000 <compiler_builtins::mem::__llvm_memset_element_unordered_atomic_16+0x170c>
   82c4c:	9108a339 	add	x25, x25, #0x228
   82c50:	f100013f 	cmp	x9, #0x0
   82c54:	b5006429 	cbnz	x9, 838d8 <libkernel::memory::arch_mmu::MemoryManagementUnit::config+0x100c>
   82c58:	d0ffffe9 	adrp	x9, 80000 <_start>
   82c5c:	91000129 	add	x9, x9, #0x0
   82c60:	9a88132a 	csel	x10, x25, x8, ne  // ne = any
   82c64:	d370fd28 	lsr	x8, x9, #48
   82c68:	f100011f 	cmp	x8, #0x0
   82c6c:	f9000bea 	str	x10, [sp, #16]
   82c70:	b50064a8 	cbnz	x8, 83904 <libkernel::memory::arch_mmu::MemoryManagementUnit::config+0x1038>
   82c74:	b0000028 	adrp	x8, 87000 <libkernel::console::CONSOLE>
   82c78:	91000108 	add	x8, x8, #0x0
   82c7c:	9a89132a 	csel	x10, x25, x9, ne  // ne = any
   82c80:	d370fd09 	lsr	x9, x8, #48
   82c84:	f100013f 	cmp	x9, #0x0
   82c88:	f9000fea 	str	x10, [sp, #24]
   82c8c:	b5006529 	cbnz	x9, 83930 <libkernel::memory::arch_mmu::MemoryManagementUnit::config+0x1064>
   82c90:	d0000029 	adrp	x9, 88000 <libkernel::bsp::device_driver::mini_uart::MINI_UART>
   82c94:	91000129 	add	x9, x9, #0x0
   82c98:	9a88132a 	csel	x10, x25, x8, ne  // ne = any
   82c9c:	d370fd28 	lsr	x8, x9, #48
   82ca0:	f100011f 	cmp	x8, #0x0
   82ca4:	f90013ea 	str	x10, [sp, #32]
   82ca8:	b50065a8 	cbnz	x8, 8395c <libkernel::memory::arch_mmu::MemoryManagementUnit::config+0x1090>
   82cac:	f0000028 	adrp	x8, 89000 <__bss_end_exclusive>
   82cb0:	91000108 	add	x8, x8, #0x0
   82cb4:	9a89132a 	csel	x10, x25, x9, ne  // ne = any
   82cb8:	d370fd09 	lsr	x9, x8, #48
   82cbc:	f90017ea 	str	x10, [sp, #40]
   82cc0:	b5006649 	cbnz	x9, 83988 <libkernel::memory::arch_mmu::MemoryManagementUnit::config+0x10bc>
   82cc4:	f100013f 	cmp	x9, #0x0
   82cc8:	d2c00029 	mov	x9, #0x100000000           	// #4294967296
   82ccc:	90000016 	adrp	x22, 82000 <<libkernel::memory::arch_mmu::translation_entry::Descriptor as core::fmt::Display>::fmt+0xac>
   82cd0:	911d92d6 	add	x22, x22, #0x764
   82cd4:	52bfc00a 	mov	w10, #0xfe000000            	// #-33554432
   82cd8:	9a881328 	csel	x8, x25, x8, ne  // ne = any
   82cdc:	f90027e9 	str	x9, [sp, #72]
   82ce0:	910043e9 	add	x9, sp, #0x10
   82ce4:	910183f7 	add	x23, sp, #0x60
   82ce8:	910323e1 	add	x1, sp, #0xc8
   82cec:	a903abf8 	stp	x24, x10, [sp, #56]
   82cf0:	5280004a 	mov	w10, #0x2                   	// #2
   82cf4:	a9065be9 	stp	x9, x22, [sp, #96]
   82cf8:	b0000029 	adrp	x9, 87000 <libkernel::console::CONSOLE>
   82cfc:	91002129 	add	x9, x9, #0x8
   82d00:	f9001be8 	str	x8, [sp, #48]
   82d04:	d0000008 	adrp	x8, 84000 <rust_begin_unwind+0xb4>
   82d08:	9132a108 	add	x8, x8, #0xca8
   82d0c:	f90067ff 	str	xzr, [sp, #200]
   82d10:	a9402520 	ldp	x0, x9, [x9]
   82d14:	a90dabe8 	stp	x8, x10, [sp, #216]
   82d18:	52800028 	mov	w8, #0x1                   	// #1
   82d1c:	a90ea3f7 	stp	x23, x8, [sp, #232]
   82d20:	f9401929 	ldr	x9, [x9, #48]
   82d24:	d63f0120 	blr	x9
   82d28:	35004d80 	cbnz	w0, 836d8 <libkernel::memory::arch_mmu::MemoryManagementUnit::config+0xe0c>
   82d2c:	aa1303e0 	mov	x0, x19
   82d30:	97fffdf1 	bl	824f4 <unlock>
   82d34:	910063e8 	add	x8, sp, #0x18
   82d38:	d0000009 	adrp	x9, 84000 <rust_begin_unwind+0xb4>
   82d3c:	91336129 	add	x9, x9, #0xcd8
   82d40:	910323e1 	add	x1, sp, #0xc8
   82d44:	a940aa60 	ldp	x0, x10, [x19, #8]
   82d48:	a9065be8 	stp	x8, x22, [sp, #96]
   82d4c:	52800048 	mov	w8, #0x2                   	// #2
   82d50:	f90067ff 	str	xzr, [sp, #200]
   82d54:	a90da3e9 	stp	x9, x8, [sp, #216]
   82d58:	52800029 	mov	w9, #0x1                   	// #1
   82d5c:	f940194a 	ldr	x10, [x10, #48]
   82d60:	a90ea7f7 	stp	x23, x9, [sp, #232]
   82d64:	d63f0140 	blr	x10
   82d68:	35004b80 	cbnz	w0, 836d8 <libkernel::memory::arch_mmu::MemoryManagementUnit::config+0xe0c>
   82d6c:	aa1303e0 	mov	x0, x19
   82d70:	97fffde1 	bl	824f4 <unlock>
   82d74:	910083e8 	add	x8, sp, #0x20
   82d78:	d0000009 	adrp	x9, 84000 <rust_begin_unwind+0xb4>
   82d7c:	91342129 	add	x9, x9, #0xd08
   82d80:	910183f7 	add	x23, sp, #0x60
   82d84:	a940aa60 	ldp	x0, x10, [x19, #8]
   82d88:	a9065be8 	stp	x8, x22, [sp, #96]
   82d8c:	52800048 	mov	w8, #0x2                   	// #2
   82d90:	910323e1 	add	x1, sp, #0xc8
   82d94:	f90067ff 	str	xzr, [sp, #200]
   82d98:	a90da3e9 	stp	x9, x8, [sp, #216]
   82d9c:	52800029 	mov	w9, #0x1                   	// #1
   82da0:	f940194a 	ldr	x10, [x10, #48]
   82da4:	a90ea7f7 	stp	x23, x9, [sp, #232]
   82da8:	d63f0140 	blr	x10
   82dac:	35004960 	cbnz	w0, 836d8 <libkernel::memory::arch_mmu::MemoryManagementUnit::config+0xe0c>
   82db0:	aa1303e0 	mov	x0, x19
   82db4:	97fffdd0 	bl	824f4 <unlock>
   82db8:	9100a3e8 	add	x8, sp, #0x28
   82dbc:	d0000009 	adrp	x9, 84000 <rust_begin_unwind+0xb4>
   82dc0:	9134e129 	add	x9, x9, #0xd38
   82dc4:	910323e1 	add	x1, sp, #0xc8
   82dc8:	a940aa60 	ldp	x0, x10, [x19, #8]
   82dcc:	a9065be8 	stp	x8, x22, [sp, #96]
   82dd0:	52800048 	mov	w8, #0x2                   	// #2
   82dd4:	f90067ff 	str	xzr, [sp, #200]
   82dd8:	a90da3e9 	stp	x9, x8, [sp, #216]
   82ddc:	52800029 	mov	w9, #0x1                   	// #1
   82de0:	f940194a 	ldr	x10, [x10, #48]
   82de4:	a90ea7f7 	stp	x23, x9, [sp, #232]
   82de8:	d63f0140 	blr	x10
   82dec:	35004760 	cbnz	w0, 836d8 <libkernel::memory::arch_mmu::MemoryManagementUnit::config+0xe0c>
   82df0:	aa1303e0 	mov	x0, x19
   82df4:	97fffdc0 	bl	824f4 <unlock>
   82df8:	9100c3e8 	add	x8, sp, #0x30
   82dfc:	d0000009 	adrp	x9, 84000 <rust_begin_unwind+0xb4>
   82e00:	9135a129 	add	x9, x9, #0xd68
   82e04:	910183f7 	add	x23, sp, #0x60
   82e08:	a940aa60 	ldp	x0, x10, [x19, #8]
   82e0c:	a9065be8 	stp	x8, x22, [sp, #96]
   82e10:	52800048 	mov	w8, #0x2                   	// #2
   82e14:	910323e1 	add	x1, sp, #0xc8
   82e18:	f90067ff 	str	xzr, [sp, #200]
   82e1c:	a90da3e9 	stp	x9, x8, [sp, #216]
   82e20:	52800029 	mov	w9, #0x1                   	// #1
   82e24:	f940194a 	ldr	x10, [x10, #48]
   82e28:	a90ea7f7 	stp	x23, x9, [sp, #232]
   82e2c:	d63f0140 	blr	x10
   82e30:	35004540 	cbnz	w0, 836d8 <libkernel::memory::arch_mmu::MemoryManagementUnit::config+0xe0c>
   82e34:	aa1303e0 	mov	x0, x19
   82e38:	97fffdaf 	bl	824f4 <unlock>
   82e3c:	a940a660 	ldp	x0, x9, [x19, #8]
   82e40:	9100e3e8 	add	x8, sp, #0x38
   82e44:	5280004a 	mov	w10, #0x2                   	// #2
   82e48:	910323e1 	add	x1, sp, #0xc8
   82e4c:	f90067ff 	str	xzr, [sp, #200]
   82e50:	a9065be8 	stp	x8, x22, [sp, #96]
   82e54:	52800028 	mov	w8, #0x1                   	// #1
   82e58:	f9401929 	ldr	x9, [x9, #48]
   82e5c:	a90dabf4 	stp	x20, x10, [sp, #216]
   82e60:	a90ea3f7 	stp	x23, x8, [sp, #232]
   82e64:	d63f0120 	blr	x9
   82e68:	35004380 	cbnz	w0, 836d8 <libkernel::memory::arch_mmu::MemoryManagementUnit::config+0xe0c>
   82e6c:	aa1303e0 	mov	x0, x19
   82e70:	97fffda1 	bl	824f4 <unlock>
   82e74:	910103e8 	add	x8, sp, #0x40
   82e78:	d0000009 	adrp	x9, 84000 <rust_begin_unwind+0xb4>
   82e7c:	91366129 	add	x9, x9, #0xd98
   82e80:	910183f4 	add	x20, sp, #0x60
   82e84:	a940aa60 	ldp	x0, x10, [x19, #8]
   82e88:	a9065be8 	stp	x8, x22, [sp, #96]
   82e8c:	52800048 	mov	w8, #0x2                   	// #2
   82e90:	910323e1 	add	x1, sp, #0xc8
   82e94:	f90067ff 	str	xzr, [sp, #200]
   82e98:	a90da3e9 	stp	x9, x8, [sp, #216]
   82e9c:	52800029 	mov	w9, #0x1                   	// #1
   82ea0:	f940194a 	ldr	x10, [x10, #48]
   82ea4:	a90ea7f4 	stp	x20, x9, [sp, #232]
   82ea8:	d63f0140 	blr	x10
   82eac:	35004160 	cbnz	w0, 836d8 <libkernel::memory::arch_mmu::MemoryManagementUnit::config+0xe0c>
   82eb0:	aa1303e0 	mov	x0, x19
   82eb4:	97fffd90 	bl	824f4 <unlock>
   82eb8:	910123e8 	add	x8, sp, #0x48
   82ebc:	d0000009 	adrp	x9, 84000 <rust_begin_unwind+0xb4>
   82ec0:	91372129 	add	x9, x9, #0xdc8
   82ec4:	910323e1 	add	x1, sp, #0xc8
   82ec8:	a940aa60 	ldp	x0, x10, [x19, #8]
   82ecc:	a9065be8 	stp	x8, x22, [sp, #96]
   82ed0:	52800048 	mov	w8, #0x2                   	// #2
   82ed4:	f90067ff 	str	xzr, [sp, #200]
   82ed8:	a90da3e9 	stp	x9, x8, [sp, #216]
   82edc:	52800029 	mov	w9, #0x1                   	// #1
   82ee0:	f940194a 	ldr	x10, [x10, #48]
   82ee4:	a90ea7f4 	stp	x20, x9, [sp, #232]
   82ee8:	d63f0140 	blr	x10
   82eec:	35003f60 	cbnz	w0, 836d8 <libkernel::memory::arch_mmu::MemoryManagementUnit::config+0xe0c>
   82ef0:	b0000033 	adrp	x19, 87000 <libkernel::console::CONSOLE>
   82ef4:	91000273 	add	x19, x19, #0x0
   82ef8:	aa1303e0 	mov	x0, x19
   82efc:	97fffd7e 	bl	824f4 <unlock>
   82f00:	12820008 	mov	w8, #0xffffefff            	// #-4097
   82f04:	eb08031f 	cmp	x24, x8
   82f08:	54005588 	b.hi	839b8 <libkernel::memory::arch_mmu::MemoryManagementUnit::config+0x10ec>  // b.pmore
   82f0c:	91400709 	add	x9, x24, #0x1, lsl #12
   82f10:	910143e8 	add	x8, sp, #0x50
   82f14:	d34cfd29 	lsr	x9, x9, #12
   82f18:	9000000a 	adrp	x10, 82000 <<libkernel::memory::arch_mmu::translation_entry::Descriptor as core::fmt::Display>::fmt+0xac>
   82f1c:	911fb14a 	add	x10, x10, #0x7ec
   82f20:	910183eb 	add	x11, sp, #0x60
   82f24:	910323e1 	add	x1, sp, #0xc8
   82f28:	f90067ff 	str	xzr, [sp, #200]
   82f2c:	f9002be9 	str	x9, [sp, #80]
   82f30:	b0000029 	adrp	x9, 87000 <libkernel::console::CONSOLE>
   82f34:	91002129 	add	x9, x9, #0x8
   82f38:	a9062be8 	stp	x8, x10, [sp, #96]
   82f3c:	d0000008 	adrp	x8, 84000 <rust_begin_unwind+0xb4>
   82f40:	91380108 	add	x8, x8, #0xe00
   82f44:	5280004a 	mov	w10, #0x2                   	// #2
   82f48:	a9402520 	ldp	x0, x9, [x9]
   82f4c:	a90dabe8 	stp	x8, x10, [sp, #216]
   82f50:	52800028 	mov	w8, #0x1                   	// #1
   82f54:	f9401929 	ldr	x9, [x9, #48]
   82f58:	a90ea3eb 	stp	x11, x8, [sp, #232]
   82f5c:	d63f0120 	blr	x9
   82f60:	35003bc0 	cbnz	w0, 836d8 <libkernel::memory::arch_mmu::MemoryManagementUnit::config+0xe0c>
   82f64:	aa1303e0 	mov	x0, x19
   82f68:	97fffd63 	bl	824f4 <unlock>
   82f6c:	a940a660 	ldp	x0, x9, [x19, #8]
   82f70:	d0000008 	adrp	x8, 84000 <rust_begin_unwind+0xb4>
   82f74:	9138e108 	add	x8, x8, #0xe38
   82f78:	5280002a 	mov	w10, #0x1                   	// #1
   82f7c:	910323e1 	add	x1, sp, #0xc8
   82f80:	f9402bfc 	ldr	x28, [sp, #80]
   82f84:	f90067ff 	str	xzr, [sp, #200]
   82f88:	a90efffa 	stp	x26, xzr, [sp, #232]
   82f8c:	a90dabe8 	stp	x8, x10, [sp, #216]
   82f90:	f9401928 	ldr	x8, [x9, #48]
   82f94:	d63f0100 	blr	x8
   82f98:	35003a00 	cbnz	w0, 836d8 <libkernel::memory::arch_mmu::MemoryManagementUnit::config+0xe0c>
   82f9c:	b0000033 	adrp	x19, 87000 <libkernel::console::CONSOLE>
   82fa0:	91000273 	add	x19, x19, #0x0
   82fa4:	aa1303e0 	mov	x0, x19
   82fa8:	97fffd53 	bl	824f4 <unlock>
   82fac:	f9002fff 	str	xzr, [sp, #88]
   82fb0:	f9400301 	ldr	x1, [x24]
   82fb4:	37000461 	tbnz	w1, #0, 83040 <libkernel::memory::arch_mmu::MemoryManagementUnit::config+0x774>
   82fb8:	52800048 	mov	w8, #0x2                   	// #2
   82fbc:	52800069 	mov	w9, #0x3                   	// #3
   82fc0:	910243e0 	add	x0, sp, #0x90
   82fc4:	528000c1 	mov	w1, #0x6                   	// #6
   82fc8:	a90927e8 	stp	x8, x9, [sp, #144]
   82fcc:	97fffa0c 	bl	817fc <libkernel::memory::arch_mmu::translation_entry::Descriptor::set_attributes>
   82fd0:	d354cf88 	ubfx	x8, x28, #20, #32
   82fd4:	b50051e8 	cbnz	x8, 83a10 <libkernel::memory::arch_mmu::MemoryManagementUnit::config+0x1144>
   82fd8:	d374cf94 	lsl	x20, x28, #12
   82fdc:	aa1403e0 	mov	x0, x20
   82fe0:	97fff424 	bl	80070 <clear_frame>
   82fe4:	9100079c 	add	x28, x28, #0x1
   82fe8:	d354ff88 	lsr	x8, x28, #20
   82fec:	b5005168 	cbnz	x8, 83a18 <libkernel::memory::arch_mmu::MemoryManagementUnit::config+0x114c>
   82ff0:	f9404be8 	ldr	x8, [sp, #144]
   82ff4:	f1000d1f 	cmp	x8, #0x3
   82ff8:	540035a8 	b.hi	836ac <libkernel::memory::arch_mmu::MemoryManagementUnit::config+0xde0>  // b.pmore
   82ffc:	d0000009 	adrp	x9, 84000 <rust_begin_unwind+0xb4>
   83000:	91255129 	add	x9, x9, #0x954
   83004:	1000000a 	adr	x10, 83004 <libkernel::memory::arch_mmu::MemoryManagementUnit::config+0x738>
   83008:	b8a8792b 	ldrsw	x11, [x9, x8, lsl #2]
   8300c:	8b0b014a 	add	x10, x10, x11
   83010:	d61f0140 	br	x10
   83014:	f240769f 	tst	x20, #0x3fffffff
   83018:	540003c1 	b.ne	83090 <libkernel::memory::arch_mmu::MemoryManagementUnit::config+0x7c4>  // b.any
   8301c:	f9404fe8 	ldr	x8, [sp, #152]
   83020:	aa080288 	orr	x8, x20, x8
   83024:	a90923ff 	stp	xzr, x8, [sp, #144]
   83028:	f9402fe8 	ldr	x8, [sp, #88]
   8302c:	f9404fe9 	ldr	x9, [sp, #152]
   83030:	d35e9908 	ubfx	x8, x8, #30, #9
   83034:	f8287b09 	str	x9, [x24, x8, lsl #3]
   83038:	b5000374 	cbnz	x20, 830a4 <libkernel::memory::arch_mmu::MemoryManagementUnit::config+0x7d8>
   8303c:	140001a1 	b	836c0 <libkernel::memory::arch_mmu::MemoryManagementUnit::config+0xdf4>
   83040:	36083ce1 	tbz	w1, #1, 837dc <libkernel::memory::arch_mmu::MemoryManagementUnit::config+0xf10>
   83044:	52800040 	mov	w0, #0x2                   	// #2
   83048:	97fff9d6 	bl	817a0 <libkernel::memory::arch_mmu::translation_entry::Descriptor::get_address>
   8304c:	b4004fe0 	cbz	x0, 83a48 <libkernel::memory::arch_mmu::MemoryManagementUnit::config+0x117c>
   83050:	aa0103f4 	mov	x20, x1
   83054:	b4003361 	cbz	x1, 836c0 <libkernel::memory::arch_mmu::MemoryManagementUnit::config+0xdf4>
   83058:	aa1f03e8 	mov	x8, xzr
   8305c:	14000013 	b	830a8 <libkernel::memory::arch_mmu::MemoryManagementUnit::config+0x7dc>
   83060:	f240529f 	tst	x20, #0x1fffff
   83064:	54000161 	b.ne	83090 <libkernel::memory::arch_mmu::MemoryManagementUnit::config+0x7c4>  // b.any
   83068:	f9404fe8 	ldr	x8, [sp, #152]
   8306c:	52800029 	mov	w9, #0x1                   	// #1
   83070:	14000006 	b	83088 <libkernel::memory::arch_mmu::MemoryManagementUnit::config+0x7bc>
   83074:	f9404fe8 	ldr	x8, [sp, #152]
   83078:	52800049 	mov	w9, #0x2                   	// #2
   8307c:	14000003 	b	83088 <libkernel::memory::arch_mmu::MemoryManagementUnit::config+0x7bc>
   83080:	f9404fe8 	ldr	x8, [sp, #152]
   83084:	52800069 	mov	w9, #0x3                   	// #3
   83088:	aa080288 	orr	x8, x20, x8
   8308c:	a90923e9 	stp	x9, x8, [sp, #144]
   83090:	f9402fe8 	ldr	x8, [sp, #88]
   83094:	f9404fe9 	ldr	x9, [sp, #152]
   83098:	d35e9908 	ubfx	x8, x8, #30, #9
   8309c:	f8287b09 	str	x9, [x24, x8, lsl #3]
   830a0:	b4003114 	cbz	x20, 836c0 <libkernel::memory::arch_mmu::MemoryManagementUnit::config+0xdf4>
   830a4:	f9402fe8 	ldr	x8, [sp, #88]
   830a8:	d3557516 	ubfx	x22, x8, #21, #9
   830ac:	f8767a88 	ldr	x8, [x20, x22, lsl #3]
   830b0:	37003968 	tbnz	w8, #0, 837dc <libkernel::memory::arch_mmu::MemoryManagementUnit::config+0xf10>
   830b4:	52800028 	mov	w8, #0x1                   	// #1
   830b8:	910283e0 	add	x0, sp, #0xa0
   830bc:	52800061 	mov	w1, #0x3                   	// #3
   830c0:	a90a23e8 	stp	x8, x8, [sp, #160]
   830c4:	97fff9ce 	bl	817fc <libkernel::memory::arch_mmu::translation_entry::Descriptor::set_attributes>
   830c8:	f94053e8 	ldr	x8, [sp, #160]
   830cc:	f1000d1f 	cmp	x8, #0x3
   830d0:	54000128 	b.hi	830f4 <libkernel::memory::arch_mmu::MemoryManagementUnit::config+0x828>  // b.pmore
   830d4:	b0000009 	adrp	x9, 84000 <rust_begin_unwind+0xb4>
   830d8:	91259129 	add	x9, x9, #0x964
   830dc:	1000000a 	adr	x10, 830dc <libkernel::memory::arch_mmu::MemoryManagementUnit::config+0x810>
   830e0:	b8a8792b 	ldrsw	x11, [x9, x8, lsl #2]
   830e4:	8b0b014a 	add	x10, x10, x11
   830e8:	d61f0140 	br	x10
   830ec:	f90053ff 	str	xzr, [sp, #160]
   830f0:	14000009 	b	83114 <libkernel::memory::arch_mmu::MemoryManagementUnit::config+0x848>
   830f4:	aa1f03e8 	mov	x8, xzr
   830f8:	14000008 	b	83118 <libkernel::memory::arch_mmu::MemoryManagementUnit::config+0x84c>
   830fc:	52800028 	mov	w8, #0x1                   	// #1
   83100:	14000004 	b	83110 <libkernel::memory::arch_mmu::MemoryManagementUnit::config+0x844>
   83104:	52800048 	mov	w8, #0x2                   	// #2
   83108:	14000002 	b	83110 <libkernel::memory::arch_mmu::MemoryManagementUnit::config+0x844>
   8310c:	52800068 	mov	w8, #0x3                   	// #3
   83110:	f90053e8 	str	x8, [sp, #160]
   83114:	f94057e8 	ldr	x8, [sp, #168]
   83118:	f8367a88 	str	x8, [x20, x22, lsl #3]
   8311c:	9102e3e9 	add	x9, sp, #0xb8
   83120:	f9402fe8 	ldr	x8, [sp, #88]
   83124:	d0ffffea 	adrp	x10, 81000 <core::fmt::num::imp::<impl core::fmt::Display for u32>::fmt+0x128>
   83128:	912ce14a 	add	x10, x10, #0xb38
   8312c:	b000000b 	adrp	x11, 84000 <rust_begin_unwind+0xb4>
   83130:	913fa16b 	add	x11, x11, #0xfe8
   83134:	910163ec 	add	x12, sp, #0x58
   83138:	d3557508 	ubfx	x8, x8, #21, #9
   8313c:	9000002d 	adrp	x13, 87000 <libkernel::console::CONSOLE>
   83140:	910021ad 	add	x13, x13, #0x8
   83144:	910323e1 	add	x1, sp, #0xc8
   83148:	f9005be8 	str	x8, [sp, #176]
   8314c:	f8687a88 	ldr	x8, [x20, x8, lsl #3]
   83150:	a9072be9 	stp	x9, x10, [sp, #112]
   83154:	52800089 	mov	w9, #0x4                   	// #4
   83158:	910183ea 	add	x10, sp, #0x60
   8315c:	a90857ec 	stp	x12, x21, [sp, #128]
   83160:	5280002c 	mov	w12, #0x1                   	// #1
   83164:	f90067ff 	str	xzr, [sp, #200]
   83168:	a90da7eb 	stp	x11, x9, [sp, #216]
   8316c:	9102c3eb 	add	x11, sp, #0xb0
   83170:	f27f011f 	tst	x8, #0x2
   83174:	f90077ea 	str	x10, [sp, #232]
   83178:	9a8c058a 	cinc	x10, x12, ne  // ne = any
   8317c:	f240011f 	tst	x8, #0x1
   83180:	a94031a0 	ldp	x0, x12, [x13]
   83184:	f90033eb 	str	x11, [sp, #96]
   83188:	b0ffffeb 	adrp	x11, 80000 <_start>
   8318c:	9104d16b 	add	x11, x11, #0x134
   83190:	9a8a0129 	csel	x9, x9, x10, eq  // eq = none
   83194:	5280006a 	mov	w10, #0x3                   	// #3
   83198:	f90037eb 	str	x11, [sp, #104]
   8319c:	f940198b 	ldr	x11, [x12, #48]
   831a0:	a90ba3e9 	stp	x9, x8, [sp, #184]
   831a4:	f9007bea 	str	x10, [sp, #240]
   831a8:	d63f0160 	blr	x11
   831ac:	35002960 	cbnz	w0, 836d8 <libkernel::memory::arch_mmu::MemoryManagementUnit::config+0xe0c>
   831b0:	aa1303e0 	mov	x0, x19
   831b4:	97fffcd0 	bl	824f4 <unlock>
   831b8:	a940a660 	ldp	x0, x9, [x19, #8]
   831bc:	b0000008 	adrp	x8, 84000 <rust_begin_unwind+0xb4>
   831c0:	9139c108 	add	x8, x8, #0xe70
   831c4:	5280002a 	mov	w10, #0x1                   	// #1
   831c8:	910323e1 	add	x1, sp, #0xc8
   831cc:	f90067ff 	str	xzr, [sp, #200]
   831d0:	a90efffa 	stp	x26, xzr, [sp, #232]
   831d4:	a90dabe8 	stp	x8, x10, [sp, #216]
   831d8:	f9401928 	ldr	x8, [x9, #48]
   831dc:	d63f0100 	blr	x8
   831e0:	350027c0 	cbnz	w0, 836d8 <libkernel::memory::arch_mmu::MemoryManagementUnit::config+0xe0c>
   831e4:	90000020 	adrp	x0, 87000 <libkernel::console::CONSOLE>
   831e8:	91000000 	add	x0, x0, #0x0
   831ec:	97fffcc2 	bl	824f4 <unlock>
   831f0:	f94027e8 	ldr	x8, [sp, #72]
   831f4:	d370fd09 	lsr	x9, x8, #48
   831f8:	b5003f49 	cbnz	x9, 839e0 <libkernel::memory::arch_mmu::MemoryManagementUnit::config+0x1114>
   831fc:	9274cd1d 	and	x29, x8, #0xfffffffffffff000
   83200:	52bfc016 	mov	w22, #0xfe000000            	// #-33554432
   83204:	32131bfb 	mov	w27, #0xfe000               	// #1040384
   83208:	52800059 	mov	w25, #0x2                   	// #2
   8320c:	5280007a 	mov	w26, #0x3                   	// #3
   83210:	90000033 	adrp	x19, 87000 <libkernel::console::CONSOLE>
   83214:	91000273 	add	x19, x19, #0x0
   83218:	f0000008 	adrp	x8, 86000 <compiler_builtins::mem::__llvm_memset_element_unordered_atomic_16+0x170c>
   8321c:	91094108 	add	x8, x8, #0x250
   83220:	f90007e8 	str	x8, [sp, #8]
   83224:	14000008 	b	83244 <libkernel::memory::arch_mmu::MemoryManagementUnit::config+0x978>
   83228:	f24156df 	tst	x22, #0x80000000001fffff
   8322c:	54001941 	b.ne	83554 <libkernel::memory::arch_mmu::MemoryManagementUnit::config+0xc88>  // b.any
   83230:	f9406be8 	ldr	x8, [sp, #208]
   83234:	9100077b 	add	x27, x27, #0x1
   83238:	aa0802c8 	orr	x8, x22, x8
   8323c:	914006d6 	add	x22, x22, #0x1, lsl #12
   83240:	f8347aa8 	str	x8, [x21, x20, lsl #3]
   83244:	eb1d02df 	cmp	x22, x29
   83248:	540018c2 	b.cs	83560 <libkernel::memory::arch_mmu::MemoryManagementUnit::config+0xc94>  // b.hs, b.nlast
   8324c:	d360fec8 	lsr	x8, x22, #32
   83250:	b5002568 	cbnz	x8, 836fc <libkernel::memory::arch_mmu::MemoryManagementUnit::config+0xe30>
   83254:	d35e9ad5 	ubfx	x21, x22, #30, #9
   83258:	f8757b01 	ldr	x1, [x24, x21, lsl #3]
   8325c:	37000361 	tbnz	w1, #0, 832c8 <libkernel::memory::arch_mmu::MemoryManagementUnit::config+0x9fc>
   83260:	910243e0 	add	x0, sp, #0x90
   83264:	528000c1 	mov	w1, #0x6                   	// #6
   83268:	a9096bf9 	stp	x25, x26, [sp, #144]
   8326c:	97fff964 	bl	817fc <libkernel::memory::arch_mmu::translation_entry::Descriptor::set_attributes>
   83270:	d354cf88 	ubfx	x8, x28, #20, #32
   83274:	b50025c8 	cbnz	x8, 8372c <libkernel::memory::arch_mmu::MemoryManagementUnit::config+0xe60>
   83278:	d374cf94 	lsl	x20, x28, #12
   8327c:	aa1403e0 	mov	x0, x20
   83280:	97fff37c 	bl	80070 <clear_frame>
   83284:	9100079c 	add	x28, x28, #0x1
   83288:	d354ff88 	lsr	x8, x28, #20
   8328c:	b5002688 	cbnz	x8, 8375c <libkernel::memory::arch_mmu::MemoryManagementUnit::config+0xe90>
   83290:	f9404be8 	ldr	x8, [sp, #144]
   83294:	f1000d1f 	cmp	x8, #0x3
   83298:	54000268 	b.hi	832e4 <libkernel::memory::arch_mmu::MemoryManagementUnit::config+0xa18>  // b.pmore
   8329c:	b000000b 	adrp	x11, 84000 <rust_begin_unwind+0xb4>
   832a0:	9125d16b 	add	x11, x11, #0x974
   832a4:	10000009 	adr	x9, 832a4 <libkernel::memory::arch_mmu::MemoryManagementUnit::config+0x9d8>
   832a8:	b8a8796a 	ldrsw	x10, [x11, x8, lsl #2]
   832ac:	8b0a0129 	add	x9, x9, x10
   832b0:	d61f0120 	br	x9
   832b4:	f240769f 	tst	x20, #0x3fffffff
   832b8:	54000341 	b.ne	83320 <libkernel::memory::arch_mmu::MemoryManagementUnit::config+0xa54>  // b.any
   832bc:	f9404fe8 	ldr	x8, [sp, #152]
   832c0:	f9004bff 	str	xzr, [sp, #144]
   832c4:	14000015 	b	83318 <libkernel::memory::arch_mmu::MemoryManagementUnit::config+0xa4c>
   832c8:	36082501 	tbz	w1, #1, 83768 <libkernel::memory::arch_mmu::MemoryManagementUnit::config+0xe9c>
   832cc:	52800040 	mov	w0, #0x2                   	// #2
   832d0:	97fff934 	bl	817a0 <libkernel::memory::arch_mmu::translation_entry::Descriptor::get_address>
   832d4:	b4002660 	cbz	x0, 837a0 <libkernel::memory::arch_mmu::MemoryManagementUnit::config+0xed4>
   832d8:	aa0103f4 	mov	x20, x1
   832dc:	b5000681 	cbnz	x1, 833ac <libkernel::memory::arch_mmu::MemoryManagementUnit::config+0xae0>
   832e0:	140000f8 	b	836c0 <libkernel::memory::arch_mmu::MemoryManagementUnit::config+0xdf4>
   832e4:	aa1f03e8 	mov	x8, xzr
   832e8:	1400000f 	b	83324 <libkernel::memory::arch_mmu::MemoryManagementUnit::config+0xa58>
   832ec:	f240529f 	tst	x20, #0x1fffff
   832f0:	54000181 	b.ne	83320 <libkernel::memory::arch_mmu::MemoryManagementUnit::config+0xa54>  // b.any
   832f4:	52800029 	mov	w9, #0x1                   	// #1
   832f8:	f9404fe8 	ldr	x8, [sp, #152]
   832fc:	f9004be9 	str	x9, [sp, #144]
   83300:	14000006 	b	83318 <libkernel::memory::arch_mmu::MemoryManagementUnit::config+0xa4c>
   83304:	f9404fe8 	ldr	x8, [sp, #152]
   83308:	f9004bf9 	str	x25, [sp, #144]
   8330c:	14000003 	b	83318 <libkernel::memory::arch_mmu::MemoryManagementUnit::config+0xa4c>
   83310:	f9404fe8 	ldr	x8, [sp, #152]
   83314:	f9004bfa 	str	x26, [sp, #144]
   83318:	aa080288 	orr	x8, x20, x8
   8331c:	f9004fe8 	str	x8, [sp, #152]
   83320:	f9404fe8 	ldr	x8, [sp, #152]
   83324:	d37df2a9 	lsl	x9, x21, #3
   83328:	9000002b 	adrp	x11, 87000 <libkernel::console::CONSOLE>
   8332c:	9100216b 	add	x11, x11, #0x8
   83330:	b000000c 	adrp	x12, 84000 <rust_begin_unwind+0xb4>
   83334:	913ce18c 	add	x12, x12, #0xf38
   83338:	910323e1 	add	x1, sp, #0xc8
   8333c:	f8296b08 	str	x8, [x24, x9]
   83340:	f90053f5 	str	x21, [sp, #160]
   83344:	f8696b08 	ldr	x8, [x24, x9]
   83348:	910283e9 	add	x9, sp, #0xa0
   8334c:	a90debec 	stp	x12, x26, [sp, #216]
   83350:	5280008c 	mov	w12, #0x4                   	// #4
   83354:	f90033e9 	str	x9, [sp, #96]
   83358:	b0ffffe9 	adrp	x9, 80000 <_start>
   8335c:	9104d12a 	add	x10, x9, #0x134
   83360:	9102e3e9 	add	x9, sp, #0xb8
   83364:	f240011f 	tst	x8, #0x1
   83368:	a90c7fe8 	stp	x8, xzr, [sp, #192]
   8336c:	a906a7ea 	stp	x10, x9, [sp, #104]
   83370:	d0ffffe9 	adrp	x9, 81000 <core::fmt::num::imp::<impl core::fmt::Display for u32>::fmt+0x128>
   83374:	913d5129 	add	x9, x9, #0xf54
   83378:	927f010a 	and	x10, x8, #0x2
   8337c:	9a8a018a 	csel	x10, x12, x10, eq  // eq = none
   83380:	f9003fe9 	str	x9, [sp, #120]
   83384:	a9402560 	ldp	x0, x9, [x11]
   83388:	910183eb 	add	x11, sp, #0x60
   8338c:	f9005fea 	str	x10, [sp, #184]
   83390:	a90ee7eb 	stp	x11, x25, [sp, #232]
   83394:	f9401929 	ldr	x9, [x9, #48]
   83398:	d63f0120 	blr	x9
   8339c:	350019e0 	cbnz	w0, 836d8 <libkernel::memory::arch_mmu::MemoryManagementUnit::config+0xe0c>
   833a0:	aa1303e0 	mov	x0, x19
   833a4:	97fffc54 	bl	824f4 <unlock>
   833a8:	b40018d4 	cbz	x20, 836c0 <libkernel::memory::arch_mmu::MemoryManagementUnit::config+0xdf4>
   833ac:	d35576d7 	ubfx	x23, x22, #21, #9
   833b0:	f8777a81 	ldr	x1, [x20, x23, lsl #3]
   833b4:	37000361 	tbnz	w1, #0, 83420 <libkernel::memory::arch_mmu::MemoryManagementUnit::config+0xb54>
   833b8:	910283e0 	add	x0, sp, #0xa0
   833bc:	528000c1 	mov	w1, #0x6                   	// #6
   833c0:	a90a6bf9 	stp	x25, x26, [sp, #160]
   833c4:	97fff90e 	bl	817fc <libkernel::memory::arch_mmu::translation_entry::Descriptor::set_attributes>
   833c8:	d354cf88 	ubfx	x8, x28, #20, #32
   833cc:	b5001b08 	cbnz	x8, 8372c <libkernel::memory::arch_mmu::MemoryManagementUnit::config+0xe60>
   833d0:	d374cf95 	lsl	x21, x28, #12
   833d4:	aa1503e0 	mov	x0, x21
   833d8:	97fff326 	bl	80070 <clear_frame>
   833dc:	9100079c 	add	x28, x28, #0x1
   833e0:	d354ff88 	lsr	x8, x28, #20
   833e4:	b5001bc8 	cbnz	x8, 8375c <libkernel::memory::arch_mmu::MemoryManagementUnit::config+0xe90>
   833e8:	f94053e8 	ldr	x8, [sp, #160]
   833ec:	f1000d1f 	cmp	x8, #0x3
   833f0:	540002e8 	b.hi	8344c <libkernel::memory::arch_mmu::MemoryManagementUnit::config+0xb80>  // b.pmore
   833f4:	b000000b 	adrp	x11, 84000 <rust_begin_unwind+0xb4>
   833f8:	9126116b 	add	x11, x11, #0x984
   833fc:	10000009 	adr	x9, 833fc <libkernel::memory::arch_mmu::MemoryManagementUnit::config+0xb30>
   83400:	b8a8796a 	ldrsw	x10, [x11, x8, lsl #2]
   83404:	8b0a0129 	add	x9, x9, x10
   83408:	d61f0120 	br	x9
   8340c:	f24076bf 	tst	x21, #0x3fffffff
   83410:	54000361 	b.ne	8347c <libkernel::memory::arch_mmu::MemoryManagementUnit::config+0xbb0>  // b.any
   83414:	f94057e8 	ldr	x8, [sp, #168]
   83418:	f90053ff 	str	xzr, [sp, #160]
   8341c:	14000016 	b	83474 <libkernel::memory::arch_mmu::MemoryManagementUnit::config+0xba8>
   83420:	36081a41 	tbz	w1, #1, 83768 <libkernel::memory::arch_mmu::MemoryManagementUnit::config+0xe9c>
   83424:	52800040 	mov	w0, #0x2                   	// #2
   83428:	a90a07f9 	stp	x25, x1, [sp, #160]
   8342c:	97fff8dd 	bl	817a0 <libkernel::memory::arch_mmu::translation_entry::Descriptor::get_address>
   83430:	b4001c40 	cbz	x0, 837b8 <libkernel::memory::arch_mmu::MemoryManagementUnit::config+0xeec>
   83434:	aa0103f5 	mov	x21, x1
   83438:	b50006c1 	cbnz	x1, 83510 <libkernel::memory::arch_mmu::MemoryManagementUnit::config+0xc44>
   8343c:	140000a1 	b	836c0 <libkernel::memory::arch_mmu::MemoryManagementUnit::config+0xdf4>
   83440:	f94057e8 	ldr	x8, [sp, #168]
   83444:	f90053f9 	str	x25, [sp, #160]
   83448:	1400000b 	b	83474 <libkernel::memory::arch_mmu::MemoryManagementUnit::config+0xba8>
   8344c:	aa1f03e8 	mov	x8, xzr
   83450:	1400000c 	b	83480 <libkernel::memory::arch_mmu::MemoryManagementUnit::config+0xbb4>
   83454:	f24052bf 	tst	x21, #0x1fffff
   83458:	54000121 	b.ne	8347c <libkernel::memory::arch_mmu::MemoryManagementUnit::config+0xbb0>  // b.any
   8345c:	52800029 	mov	w9, #0x1                   	// #1
   83460:	f94057e8 	ldr	x8, [sp, #168]
   83464:	f90053e9 	str	x9, [sp, #160]
   83468:	14000003 	b	83474 <libkernel::memory::arch_mmu::MemoryManagementUnit::config+0xba8>
   8346c:	f94057e8 	ldr	x8, [sp, #168]
   83470:	f90053fa 	str	x26, [sp, #160]
   83474:	aa0802a8 	orr	x8, x21, x8
   83478:	f90057e8 	str	x8, [sp, #168]
   8347c:	f94057e8 	ldr	x8, [sp, #168]
   83480:	d37df2e9 	lsl	x9, x23, #3
   83484:	9000002b 	adrp	x11, 87000 <libkernel::console::CONSOLE>
   83488:	9100216b 	add	x11, x11, #0x8
   8348c:	b000000c 	adrp	x12, 84000 <rust_begin_unwind+0xb4>
   83490:	913de18c 	add	x12, x12, #0xf78
   83494:	910323e1 	add	x1, sp, #0xc8
   83498:	f8296a88 	str	x8, [x20, x9]
   8349c:	f9005bf7 	str	x23, [sp, #176]
   834a0:	f8696a88 	ldr	x8, [x20, x9]
   834a4:	9102c3e9 	add	x9, sp, #0xb0
   834a8:	a90debec 	stp	x12, x26, [sp, #216]
   834ac:	5280008c 	mov	w12, #0x4                   	// #4
   834b0:	f90033e9 	str	x9, [sp, #96]
   834b4:	b0ffffe9 	adrp	x9, 80000 <_start>
   834b8:	9104d12a 	add	x10, x9, #0x134
   834bc:	9102e3e9 	add	x9, sp, #0xb8
   834c0:	f27f011f 	tst	x8, #0x2
   834c4:	a90c7fe8 	stp	x8, xzr, [sp, #192]
   834c8:	a906a7ea 	stp	x10, x9, [sp, #104]
   834cc:	d0ffffe9 	adrp	x9, 81000 <core::fmt::num::imp::<impl core::fmt::Display for u32>::fmt+0x128>
   834d0:	913d5129 	add	x9, x9, #0xf54
   834d4:	5280002a 	mov	w10, #0x1                   	// #1
   834d8:	9a8a054a 	cinc	x10, x10, ne  // ne = any
   834dc:	f240011f 	tst	x8, #0x1
   834e0:	9a8a018a 	csel	x10, x12, x10, eq  // eq = none
   834e4:	f9003fe9 	str	x9, [sp, #120]
   834e8:	a9402560 	ldp	x0, x9, [x11]
   834ec:	910183eb 	add	x11, sp, #0x60
   834f0:	f9005fea 	str	x10, [sp, #184]
   834f4:	a90ee7eb 	stp	x11, x25, [sp, #232]
   834f8:	f9401929 	ldr	x9, [x9, #48]
   834fc:	d63f0120 	blr	x9
   83500:	35000ec0 	cbnz	w0, 836d8 <libkernel::memory::arch_mmu::MemoryManagementUnit::config+0xe0c>
   83504:	aa1303e0 	mov	x0, x19
   83508:	97fffbfb 	bl	824f4 <unlock>
   8350c:	b4000db5 	cbz	x21, 836c0 <libkernel::memory::arch_mmu::MemoryManagementUnit::config+0xdf4>
   83510:	92402374 	and	x20, x27, #0x1ff
   83514:	f8747aa8 	ldr	x8, [x21, x20, lsl #3]
   83518:	370012c8 	tbnz	w8, #0, 83770 <libkernel::memory::arch_mmu::MemoryManagementUnit::config+0xea4>
   8351c:	910323e0 	add	x0, sp, #0xc8
   83520:	52800081 	mov	w1, #0x4                   	// #4
   83524:	a90cebfa 	stp	x26, x26, [sp, #200]
   83528:	97fff8b5 	bl	817fc <libkernel::memory::arch_mmu::translation_entry::Descriptor::set_attributes>
   8352c:	b5001260 	cbnz	x0, 83778 <libkernel::memory::arch_mmu::MemoryManagementUnit::config+0xeac>
   83530:	f94067e8 	ldr	x8, [sp, #200]
   83534:	d1000909 	sub	x9, x8, #0x2
   83538:	f100093f 	cmp	x9, #0x2
   8353c:	54ffe7a3 	b.cc	83230 <libkernel::memory::arch_mmu::MemoryManagementUnit::config+0x964>  // b.lo, b.ul, b.last
   83540:	f100051f 	cmp	x8, #0x1
   83544:	54ffe720 	b.eq	83228 <libkernel::memory::arch_mmu::MemoryManagementUnit::config+0x95c>  // b.none
   83548:	b5001448 	cbnz	x8, 837d0 <libkernel::memory::arch_mmu::MemoryManagementUnit::config+0xf04>
   8354c:	f2417adf 	tst	x22, #0x800000003fffffff
   83550:	54ffe700 	b.eq	83230 <libkernel::memory::arch_mmu::MemoryManagementUnit::config+0x964>  // b.none
   83554:	f0000000 	adrp	x0, 86000 <compiler_builtins::mem::__llvm_memset_element_unordered_atomic_16+0x170c>
   83558:	91084000 	add	x0, x0, #0x210
   8355c:	14000087 	b	83778 <libkernel::memory::arch_mmu::MemoryManagementUnit::config+0xeac>
   83560:	910183e9 	add	x9, sp, #0x60
   83564:	f0ffffea 	adrp	x10, 82000 <<libkernel::memory::arch_mmu::translation_entry::Descriptor as core::fmt::Display>::fmt+0xac>
   83568:	9114014a 	add	x10, x10, #0x500
   8356c:	9000002d 	adrp	x13, 87000 <libkernel::console::CONSOLE>
   83570:	910021ad 	add	x13, x13, #0x8
   83574:	5280004b 	mov	w11, #0x2                   	// #2
   83578:	52800028 	mov	w8, #0x1                   	// #1
   8357c:	9102e3ec 	add	x12, sp, #0xb8
   83580:	a90babe9 	stp	x9, x10, [sp, #184]
   83584:	b0000009 	adrp	x9, 84000 <rust_begin_unwind+0xb4>
   83588:	913a6129 	add	x9, x9, #0xe98
   8358c:	910323e1 	add	x1, sp, #0xc8
   83590:	a94029a0 	ldp	x0, x10, [x13]
   83594:	a90673e8 	stp	x8, x28, [sp, #96]
   83598:	a90dafe9 	stp	x9, x11, [sp, #216]
   8359c:	f90067ff 	str	xzr, [sp, #200]
   835a0:	a90ea3ec 	stp	x12, x8, [sp, #232]
   835a4:	f9401949 	ldr	x9, [x10, #48]
   835a8:	d63f0120 	blr	x9
   835ac:	35000960 	cbnz	w0, 836d8 <libkernel::memory::arch_mmu::MemoryManagementUnit::config+0xe0c>
   835b0:	aa1303e0 	mov	x0, x19
   835b4:	97fffbd0 	bl	824f4 <unlock>
   835b8:	a940a660 	ldp	x0, x9, [x19, #8]
   835bc:	b0000008 	adrp	x8, 84000 <rust_begin_unwind+0xb4>
   835c0:	913ba108 	add	x8, x8, #0xee8
   835c4:	5280002a 	mov	w10, #0x1                   	// #1
   835c8:	f0000014 	adrp	x20, 86000 <compiler_builtins::mem::__llvm_memset_element_unordered_atomic_16+0x170c>
   835cc:	910cc294 	add	x20, x20, #0x330
   835d0:	910323e1 	add	x1, sp, #0xc8
   835d4:	f90067ff 	str	xzr, [sp, #200]
   835d8:	a90dabe8 	stp	x8, x10, [sp, #216]
   835dc:	f9401928 	ldr	x8, [x9, #48]
   835e0:	a90efff4 	stp	x20, xzr, [sp, #232]
   835e4:	d63f0100 	blr	x8
   835e8:	35000780 	cbnz	w0, 836d8 <libkernel::memory::arch_mmu::MemoryManagementUnit::config+0xe0c>
   835ec:	aa1303e0 	mov	x0, x19
   835f0:	97fffbc1 	bl	824f4 <unlock>
   835f4:	d5033fdf 	isb
   835f8:	f0000008 	adrp	x8, 86000 <compiler_builtins::mem::__llvm_memset_element_unordered_atomic_16+0x170c>
   835fc:	9104c108 	add	x8, x8, #0x130
   83600:	5280002a 	mov	w10, #0x1                   	// #1
   83604:	a940a660 	ldp	x0, x9, [x19, #8]
   83608:	910323e1 	add	x1, sp, #0xc8
   8360c:	f90067ff 	str	xzr, [sp, #200]
   83610:	a90dabe8 	stp	x8, x10, [sp, #216]
   83614:	a90efff4 	stp	x20, xzr, [sp, #232]
   83618:	f9401928 	ldr	x8, [x9, #48]
   8361c:	d63f0100 	blr	x8
   83620:	350005c0 	cbnz	w0, 836d8 <libkernel::memory::arch_mmu::MemoryManagementUnit::config+0xe0c>
   83624:	aa1303e0 	mov	x0, x19
   83628:	97fffbb3 	bl	824f4 <unlock>
   8362c:	928200a9 	mov	x9, #0xffffffffffffeffa    	// #-4102
   83630:	d5381008 	mrs	x8, sctlr_el1
   83634:	f2bffee9 	movk	x9, #0xfff7, lsl #16
   83638:	528000aa 	mov	w10, #0x5                   	// #5
   8363c:	8a090108 	and	x8, x8, x9
   83640:	910323e1 	add	x1, sp, #0xc8
   83644:	aa0a0108 	orr	x8, x8, x10
   83648:	d5181008 	msr	sctlr_el1, x8
   8364c:	d508751f 	ic	iallu
   83650:	d50c879f 	tlbi	alle1
   83654:	f0000008 	adrp	x8, 86000 <compiler_builtins::mem::__llvm_memset_element_unordered_atomic_16+0x170c>
   83658:	91056108 	add	x8, x8, #0x158
   8365c:	d5033fdf 	isb
   83660:	a940a660 	ldp	x0, x9, [x19, #8]
   83664:	5280002a 	mov	w10, #0x1                   	// #1
   83668:	f90067ff 	str	xzr, [sp, #200]
   8366c:	a90efff4 	stp	x20, xzr, [sp, #232]
   83670:	a90dabe8 	stp	x8, x10, [sp, #216]
   83674:	f9401928 	ldr	x8, [x9, #48]
   83678:	d63f0100 	blr	x8
   8367c:	350002e0 	cbnz	w0, 836d8 <libkernel::memory::arch_mmu::MemoryManagementUnit::config+0xe0c>
   83680:	90000020 	adrp	x0, 87000 <libkernel::console::CONSOLE>
   83684:	91000000 	add	x0, x0, #0x0
   83688:	97fffb9b 	bl	824f4 <unlock>
   8368c:	a9554ff4 	ldp	x20, x19, [sp, #336]
   83690:	a95457f6 	ldp	x22, x21, [sp, #320]
   83694:	a9535ff8 	ldp	x24, x23, [sp, #304]
   83698:	a95267fa 	ldp	x26, x25, [sp, #288]
   8369c:	a9516ffc 	ldp	x28, x27, [sp, #272]
   836a0:	a9507bfd 	ldp	x29, x30, [sp, #256]
   836a4:	910583ff 	add	sp, sp, #0x160
   836a8:	d65f03c0 	ret
   836ac:	f9402fe8 	ldr	x8, [sp, #88]
   836b0:	aa1f03e9 	mov	x9, xzr
   836b4:	d35e9908 	ubfx	x8, x8, #30, #9
   836b8:	f8287b1f 	str	xzr, [x24, x8, lsl #3]
   836bc:	b5ffcf54 	cbnz	x20, 830a4 <libkernel::memory::arch_mmu::MemoryManagementUnit::config+0x7d8>
   836c0:	d0000000 	adrp	x0, 85000 <compiler_builtins::mem::__llvm_memset_element_unordered_atomic_16+0x70c>
   836c4:	913f2000 	add	x0, x0, #0xfc8
   836c8:	b0000001 	adrp	x1, 84000 <rust_begin_unwind+0xb4>
   836cc:	91274021 	add	x1, x1, #0x9d0
   836d0:	97fff565 	bl	80c64 <core::panicking::panic>
   836d4:	d4200020 	brk	#0x1
   836d8:	f0000000 	adrp	x0, 86000 <compiler_builtins::mem::__llvm_memset_element_unordered_atomic_16+0x170c>
   836dc:	91024000 	add	x0, x0, #0x90
   836e0:	d0000002 	adrp	x2, 85000 <compiler_builtins::mem::__llvm_memset_element_unordered_atomic_16+0x70c>
   836e4:	9130c042 	add	x2, x2, #0xc30
   836e8:	d0000003 	adrp	x3, 85000 <compiler_builtins::mem::__llvm_memset_element_unordered_atomic_16+0x70c>
   836ec:	9131a063 	add	x3, x3, #0xc68
   836f0:	9103e3e1 	add	x1, sp, #0xf8
   836f4:	97fff657 	bl	81050 <core::result::unwrap_failed>
   836f8:	d4200020 	brk	#0x1
   836fc:	f0000008 	adrp	x8, 86000 <compiler_builtins::mem::__llvm_memset_element_unordered_atomic_16+0x170c>
   83700:	9108a108 	add	x8, x8, #0x228
   83704:	f0000000 	adrp	x0, 86000 <compiler_builtins::mem::__llvm_memset_element_unordered_atomic_16+0x170c>
   83708:	91024000 	add	x0, x0, #0x90
   8370c:	b0000002 	adrp	x2, 84000 <rust_begin_unwind+0xb4>
   83710:	9127a042 	add	x2, x2, #0x9e8
   83714:	f90067e8 	str	x8, [sp, #200]
   83718:	b0000003 	adrp	x3, 84000 <rust_begin_unwind+0xb4>
   8371c:	913be063 	add	x3, x3, #0xef8
   83720:	910323e1 	add	x1, sp, #0xc8
   83724:	97fff64b 	bl	81050 <core::result::unwrap_failed>
   83728:	d4200020 	brk	#0x1
   8372c:	f0000008 	adrp	x8, 86000 <compiler_builtins::mem::__llvm_memset_element_unordered_atomic_16+0x170c>
   83730:	9108a108 	add	x8, x8, #0x228
   83734:	f90067e8 	str	x8, [sp, #200]
   83738:	f0000000 	adrp	x0, 86000 <compiler_builtins::mem::__llvm_memset_element_unordered_atomic_16+0x170c>
   8373c:	91024000 	add	x0, x0, #0x90
   83740:	d0000002 	adrp	x2, 85000 <compiler_builtins::mem::__llvm_memset_element_unordered_atomic_16+0x70c>
   83744:	913c6042 	add	x2, x2, #0xf18
   83748:	d0000003 	adrp	x3, 85000 <compiler_builtins::mem::__llvm_memset_element_unordered_atomic_16+0x70c>
   8374c:	913d8063 	add	x3, x3, #0xf60
   83750:	910323e1 	add	x1, sp, #0xc8
   83754:	97fff63f 	bl	81050 <core::result::unwrap_failed>
   83758:	d4200020 	brk	#0x1
   8375c:	f0000008 	adrp	x8, 86000 <compiler_builtins::mem::__llvm_memset_element_unordered_atomic_16+0x170c>
   83760:	910a0108 	add	x8, x8, #0x280
   83764:	f90007e8 	str	x8, [sp, #8]
   83768:	f94007e0 	ldr	x0, [sp, #8]
   8376c:	14000003 	b	83778 <libkernel::memory::arch_mmu::MemoryManagementUnit::config+0xeac>
   83770:	f0000000 	adrp	x0, 86000 <compiler_builtins::mem::__llvm_memset_element_unordered_atomic_16+0x170c>
   83774:	91094000 	add	x0, x0, #0x250
   83778:	f90067e0 	str	x0, [sp, #200]
   8377c:	f0000000 	adrp	x0, 86000 <compiler_builtins::mem::__llvm_memset_element_unordered_atomic_16+0x170c>
   83780:	91024000 	add	x0, x0, #0x90
   83784:	b0000002 	adrp	x2, 84000 <rust_begin_unwind+0xb4>
   83788:	9127a042 	add	x2, x2, #0x9e8
   8378c:	d0000003 	adrp	x3, 85000 <compiler_builtins::mem::__llvm_memset_element_unordered_atomic_16+0x70c>
   83790:	91010063 	add	x3, x3, #0x40
   83794:	910323e1 	add	x1, sp, #0xc8
   83798:	97fff62e 	bl	81050 <core::result::unwrap_failed>
   8379c:	d4200020 	brk	#0x1
   837a0:	d0000000 	adrp	x0, 85000 <compiler_builtins::mem::__llvm_memset_element_unordered_atomic_16+0x70c>
   837a4:	913f2000 	add	x0, x0, #0xfc8
   837a8:	b0000001 	adrp	x1, 84000 <rust_begin_unwind+0xb4>
   837ac:	913f0021 	add	x1, x1, #0xfc0
   837b0:	97fff52d 	bl	80c64 <core::panicking::panic>
   837b4:	d4200020 	brk	#0x1
   837b8:	d0000000 	adrp	x0, 85000 <compiler_builtins::mem::__llvm_memset_element_unordered_atomic_16+0x70c>
   837bc:	913f2000 	add	x0, x0, #0xfc8
   837c0:	b0000001 	adrp	x1, 84000 <rust_begin_unwind+0xb4>
   837c4:	913ea021 	add	x1, x1, #0xfa8
   837c8:	97fff527 	bl	80c64 <core::panicking::panic>
   837cc:	d4200020 	brk	#0x1
   837d0:	f0000000 	adrp	x0, 86000 <compiler_builtins::mem::__llvm_memset_element_unordered_atomic_16+0x170c>
   837d4:	9106c000 	add	x0, x0, #0x1b0
   837d8:	17ffffe8 	b	83778 <libkernel::memory::arch_mmu::MemoryManagementUnit::config+0xeac>
   837dc:	f0000008 	adrp	x8, 86000 <compiler_builtins::mem::__llvm_memset_element_unordered_atomic_16+0x170c>
   837e0:	91094108 	add	x8, x8, #0x250
   837e4:	1400008f 	b	83a20 <libkernel::memory::arch_mmu::MemoryManagementUnit::config+0x1154>
   837e8:	f0000008 	adrp	x8, 86000 <compiler_builtins::mem::__llvm_memset_element_unordered_atomic_16+0x170c>
   837ec:	91076108 	add	x8, x8, #0x1d8
   837f0:	f0000000 	adrp	x0, 86000 <compiler_builtins::mem::__llvm_memset_element_unordered_atomic_16+0x170c>
   837f4:	91024000 	add	x0, x0, #0x90
   837f8:	f0000002 	adrp	x2, 86000 <compiler_builtins::mem::__llvm_memset_element_unordered_atomic_16+0x170c>
   837fc:	91030042 	add	x2, x2, #0xc0
   83800:	f90067e8 	str	x8, [sp, #200]
   83804:	f0000003 	adrp	x3, 86000 <compiler_builtins::mem::__llvm_memset_element_unordered_atomic_16+0x170c>
   83808:	91040063 	add	x3, x3, #0x100
   8380c:	910323e1 	add	x1, sp, #0xc8
   83810:	97fff610 	bl	81050 <core::result::unwrap_failed>
   83814:	d4200020 	brk	#0x1
   83818:	f0000008 	adrp	x8, 86000 <compiler_builtins::mem::__llvm_memset_element_unordered_atomic_16+0x170c>
   8381c:	9106c108 	add	x8, x8, #0x1b0
   83820:	f0000000 	adrp	x0, 86000 <compiler_builtins::mem::__llvm_memset_element_unordered_atomic_16+0x170c>
   83824:	91024000 	add	x0, x0, #0x90
   83828:	b0000002 	adrp	x2, 84000 <rust_begin_unwind+0xb4>
   8382c:	9127a042 	add	x2, x2, #0x9e8
   83830:	f90067e8 	str	x8, [sp, #200]
   83834:	b0000003 	adrp	x3, 84000 <rust_begin_unwind+0xb4>
   83838:	912c2063 	add	x3, x3, #0xb08
   8383c:	910323e1 	add	x1, sp, #0xc8
   83840:	97fff604 	bl	81050 <core::result::unwrap_failed>
   83844:	d4200020 	brk	#0x1
   83848:	f0000008 	adrp	x8, 86000 <compiler_builtins::mem::__llvm_memset_element_unordered_atomic_16+0x170c>
   8384c:	9108a108 	add	x8, x8, #0x228
   83850:	f0000000 	adrp	x0, 86000 <compiler_builtins::mem::__llvm_memset_element_unordered_atomic_16+0x170c>
   83854:	91024000 	add	x0, x0, #0x90
   83858:	b0000002 	adrp	x2, 84000 <rust_begin_unwind+0xb4>
   8385c:	9127a042 	add	x2, x2, #0x9e8
   83860:	f90067e8 	str	x8, [sp, #200]
   83864:	b0000003 	adrp	x3, 84000 <rust_begin_unwind+0xb4>
   83868:	912d4063 	add	x3, x3, #0xb50
   8386c:	910323e1 	add	x1, sp, #0xc8
   83870:	97fff5f8 	bl	81050 <core::result::unwrap_failed>
   83874:	d4200020 	brk	#0x1
   83878:	f0000008 	adrp	x8, 86000 <compiler_builtins::mem::__llvm_memset_element_unordered_atomic_16+0x170c>
   8387c:	9106c108 	add	x8, x8, #0x1b0
   83880:	f0000000 	adrp	x0, 86000 <compiler_builtins::mem::__llvm_memset_element_unordered_atomic_16+0x170c>
   83884:	91024000 	add	x0, x0, #0x90
   83888:	b0000002 	adrp	x2, 84000 <rust_begin_unwind+0xb4>
   8388c:	9127a042 	add	x2, x2, #0x9e8
   83890:	f90067e8 	str	x8, [sp, #200]
   83894:	b0000003 	adrp	x3, 84000 <rust_begin_unwind+0xb4>
   83898:	912e6063 	add	x3, x3, #0xb98
   8389c:	910323e1 	add	x1, sp, #0xc8
   838a0:	97fff5ec 	bl	81050 <core::result::unwrap_failed>
   838a4:	d4200020 	brk	#0x1
   838a8:	f0000008 	adrp	x8, 86000 <compiler_builtins::mem::__llvm_memset_element_unordered_atomic_16+0x170c>
   838ac:	91084108 	add	x8, x8, #0x210
   838b0:	f0000000 	adrp	x0, 86000 <compiler_builtins::mem::__llvm_memset_element_unordered_atomic_16+0x170c>
   838b4:	91024000 	add	x0, x0, #0x90
   838b8:	b0000002 	adrp	x2, 84000 <rust_begin_unwind+0xb4>
   838bc:	9127a042 	add	x2, x2, #0x9e8
   838c0:	f90067e8 	str	x8, [sp, #200]
   838c4:	b0000003 	adrp	x3, 84000 <rust_begin_unwind+0xb4>
   838c8:	912ec063 	add	x3, x3, #0xbb0
   838cc:	910323e1 	add	x1, sp, #0xc8
   838d0:	97fff5e0 	bl	81050 <core::result::unwrap_failed>
   838d4:	d4200020 	brk	#0x1
   838d8:	9a881328 	csel	x8, x25, x8, ne  // ne = any
   838dc:	f0000000 	adrp	x0, 86000 <compiler_builtins::mem::__llvm_memset_element_unordered_atomic_16+0x170c>
   838e0:	91024000 	add	x0, x0, #0x90
   838e4:	b0000002 	adrp	x2, 84000 <rust_begin_unwind+0xb4>
   838e8:	9127a042 	add	x2, x2, #0x9e8
   838ec:	b0000003 	adrp	x3, 84000 <rust_begin_unwind+0xb4>
   838f0:	912fc063 	add	x3, x3, #0xbf0
   838f4:	f90067e8 	str	x8, [sp, #200]
   838f8:	910323e1 	add	x1, sp, #0xc8
   838fc:	97fff5d5 	bl	81050 <core::result::unwrap_failed>
   83900:	d4200020 	brk	#0x1
   83904:	9a891328 	csel	x8, x25, x9, ne  // ne = any
   83908:	f0000000 	adrp	x0, 86000 <compiler_builtins::mem::__llvm_memset_element_unordered_atomic_16+0x170c>
   8390c:	91024000 	add	x0, x0, #0x90
   83910:	b0000002 	adrp	x2, 84000 <rust_begin_unwind+0xb4>
   83914:	9127a042 	add	x2, x2, #0x9e8
   83918:	b0000003 	adrp	x3, 84000 <rust_begin_unwind+0xb4>
   8391c:	91302063 	add	x3, x3, #0xc08
   83920:	f90067e8 	str	x8, [sp, #200]
   83924:	910323e1 	add	x1, sp, #0xc8
   83928:	97fff5ca 	bl	81050 <core::result::unwrap_failed>
   8392c:	d4200020 	brk	#0x1
   83930:	9a881328 	csel	x8, x25, x8, ne  // ne = any
   83934:	f0000000 	adrp	x0, 86000 <compiler_builtins::mem::__llvm_memset_element_unordered_atomic_16+0x170c>
   83938:	91024000 	add	x0, x0, #0x90
   8393c:	b0000002 	adrp	x2, 84000 <rust_begin_unwind+0xb4>
   83940:	9127a042 	add	x2, x2, #0x9e8
   83944:	b0000003 	adrp	x3, 84000 <rust_begin_unwind+0xb4>
   83948:	91308063 	add	x3, x3, #0xc20
   8394c:	f90067e8 	str	x8, [sp, #200]
   83950:	910323e1 	add	x1, sp, #0xc8
   83954:	97fff5bf 	bl	81050 <core::result::unwrap_failed>
   83958:	d4200020 	brk	#0x1
   8395c:	9a891328 	csel	x8, x25, x9, ne  // ne = any
   83960:	f0000000 	adrp	x0, 86000 <compiler_builtins::mem::__llvm_memset_element_unordered_atomic_16+0x170c>
   83964:	91024000 	add	x0, x0, #0x90
   83968:	b0000002 	adrp	x2, 84000 <rust_begin_unwind+0xb4>
   8396c:	9127a042 	add	x2, x2, #0x9e8
   83970:	b0000003 	adrp	x3, 84000 <rust_begin_unwind+0xb4>
   83974:	9130e063 	add	x3, x3, #0xc38
   83978:	f90067e8 	str	x8, [sp, #200]
   8397c:	910323e1 	add	x1, sp, #0xc8
   83980:	97fff5b4 	bl	81050 <core::result::unwrap_failed>
   83984:	d4200020 	brk	#0x1
   83988:	f100013f 	cmp	x9, #0x0
   8398c:	f0000000 	adrp	x0, 86000 <compiler_builtins::mem::__llvm_memset_element_unordered_atomic_16+0x170c>
   83990:	91024000 	add	x0, x0, #0x90
   83994:	9a881328 	csel	x8, x25, x8, ne  // ne = any
   83998:	b0000002 	adrp	x2, 84000 <rust_begin_unwind+0xb4>
   8399c:	9127a042 	add	x2, x2, #0x9e8
   839a0:	b0000003 	adrp	x3, 84000 <rust_begin_unwind+0xb4>
   839a4:	91314063 	add	x3, x3, #0xc50
   839a8:	f90067e8 	str	x8, [sp, #200]
   839ac:	910323e1 	add	x1, sp, #0xc8
   839b0:	97fff5a8 	bl	81050 <core::result::unwrap_failed>
   839b4:	d4200020 	brk	#0x1
   839b8:	f90067f9 	str	x25, [sp, #200]
   839bc:	f0000000 	adrp	x0, 86000 <compiler_builtins::mem::__llvm_memset_element_unordered_atomic_16+0x170c>
   839c0:	91024000 	add	x0, x0, #0x90
   839c4:	b0000002 	adrp	x2, 84000 <rust_begin_unwind+0xb4>
   839c8:	9127a042 	add	x2, x2, #0x9e8
   839cc:	b0000003 	adrp	x3, 84000 <rust_begin_unwind+0xb4>
   839d0:	9137a063 	add	x3, x3, #0xde8
   839d4:	910323e1 	add	x1, sp, #0xc8
   839d8:	97fff59e 	bl	81050 <core::result::unwrap_failed>
   839dc:	d4200020 	brk	#0x1
   839e0:	f0000008 	adrp	x8, 86000 <compiler_builtins::mem::__llvm_memset_element_unordered_atomic_16+0x170c>
   839e4:	9108a108 	add	x8, x8, #0x228
   839e8:	f0000000 	adrp	x0, 86000 <compiler_builtins::mem::__llvm_memset_element_unordered_atomic_16+0x170c>
   839ec:	91024000 	add	x0, x0, #0x90
   839f0:	d0000002 	adrp	x2, 85000 <compiler_builtins::mem::__llvm_memset_element_unordered_atomic_16+0x70c>
   839f4:	913c6042 	add	x2, x2, #0xf18
   839f8:	f90067e8 	str	x8, [sp, #200]
   839fc:	d0000003 	adrp	x3, 85000 <compiler_builtins::mem::__llvm_memset_element_unordered_atomic_16+0x70c>
   83a00:	913de063 	add	x3, x3, #0xf78
   83a04:	910323e1 	add	x1, sp, #0xc8
   83a08:	97fff592 	bl	81050 <core::result::unwrap_failed>
   83a0c:	d4200020 	brk	#0x1
   83a10:	f90067f9 	str	x25, [sp, #200]
   83a14:	17ffff49 	b	83738 <libkernel::memory::arch_mmu::MemoryManagementUnit::config+0xe6c>
   83a18:	f0000008 	adrp	x8, 86000 <compiler_builtins::mem::__llvm_memset_element_unordered_atomic_16+0x170c>
   83a1c:	910a0108 	add	x8, x8, #0x280
   83a20:	f90067e8 	str	x8, [sp, #200]
   83a24:	f0000000 	adrp	x0, 86000 <compiler_builtins::mem::__llvm_memset_element_unordered_atomic_16+0x170c>
   83a28:	91024000 	add	x0, x0, #0x90
   83a2c:	b0000002 	adrp	x2, 84000 <rust_begin_unwind+0xb4>
   83a30:	9127a042 	add	x2, x2, #0x9e8
   83a34:	b0000003 	adrp	x3, 84000 <rust_begin_unwind+0xb4>
   83a38:	91392063 	add	x3, x3, #0xe48
   83a3c:	910323e1 	add	x1, sp, #0xc8
   83a40:	97fff584 	bl	81050 <core::result::unwrap_failed>
   83a44:	d4200020 	brk	#0x1
   83a48:	d0000000 	adrp	x0, 85000 <compiler_builtins::mem::__llvm_memset_element_unordered_atomic_16+0x70c>
   83a4c:	913f2000 	add	x0, x0, #0xfc8
   83a50:	d0000001 	adrp	x1, 85000 <compiler_builtins::mem::__llvm_memset_element_unordered_atomic_16+0x70c>
   83a54:	9100a021 	add	x1, x1, #0x28
   83a58:	97fff483 	bl	80c64 <core::panicking::panic>
   83a5c:	d4200020 	brk	#0x1

0000000000083a60 <<libkernel::bsp::device_driver::mini_uart::MiniUart as libkernel::console::interface::Console>::init>:
   83a60:	528a0888 	mov	w8, #0x5044                	// #20548
   83a64:	52800029 	mov	w9, #0x1                   	// #1
   83a68:	72bfc428 	movk	w8, #0xfe21, lsl #16
   83a6c:	5280006a 	mov	w10, #0x3                   	// #3
   83a70:	528043ab 	mov	w11, #0x21d                 	// #541
   83a74:	b81c0109 	stur	w9, [x8, #-64]
   83a78:	528018c9 	mov	w9, #0xc6                  	// #198
   83a7c:	b900011f 	str	wzr, [x8]
   83a80:	b9001d1f 	str	wzr, [x8, #28]
   83a84:	b900090a 	str	w10, [x8, #8]
   83a88:	b9000d1f 	str	wzr, [x8, #12]
   83a8c:	b900011f 	str	wzr, [x8]
   83a90:	b9000509 	str	w9, [x8, #4]
   83a94:	b900250b 	str	w11, [x8, #36]
   83a98:	b9001d0a 	str	w10, [x8, #28]
   83a9c:	d65f03c0 	ret

0000000000083aa0 <<libkernel::bsp::device_driver::mini_uart::MiniUart as libkernel::console::interface::Console>::_write_str>:
   83aa0:	b40005a2 	cbz	x2, 83b54 <<libkernel::bsp::device_driver::mini_uart::MiniUart as libkernel::console::interface::Console>::_write_str+0xb4>
   83aa4:	528a0809 	mov	w9, #0x5040                	// #20544
   83aa8:	8b020028 	add	x8, x1, x2
   83aac:	72bfc429 	movk	w9, #0xfe21, lsl #16
   83ab0:	aa0103eb 	mov	x11, x1
   83ab4:	38c0156a 	ldrsb	w10, [x11], #1
   83ab8:	12001d4c 	and	w12, w10, #0xff
   83abc:	37f8008a 	tbnz	w10, #31, 83acc <<libkernel::bsp::device_driver::mini_uart::MiniUart as libkernel::console::interface::Console>::_write_str+0x2c>
   83ac0:	2a0c03ea 	mov	w10, w12
   83ac4:	aa0b03e1 	mov	x1, x11
   83ac8:	1400001b 	b	83b34 <<libkernel::bsp::device_driver::mini_uart::MiniUart as libkernel::console::interface::Console>::_write_str+0x94>
   83acc:	3940042a 	ldrb	w10, [x1, #1]
   83ad0:	1200118b 	and	w11, w12, #0x1f
   83ad4:	71037d9f 	cmp	w12, #0xdf
   83ad8:	1200154a 	and	w10, w10, #0x3f
   83adc:	540001c9 	b.ls	83b14 <<libkernel::bsp::device_driver::mini_uart::MiniUart as libkernel::console::interface::Console>::_write_str+0x74>  // b.plast
   83ae0:	3940082d 	ldrb	w13, [x1, #2]
   83ae4:	7103c19f 	cmp	w12, #0xf0
   83ae8:	120015ad 	and	w13, w13, #0x3f
   83aec:	331a154d 	bfi	w13, w10, #6, #6
   83af0:	54000183 	b.cc	83b20 <<libkernel::bsp::device_driver::mini_uart::MiniUart as libkernel::console::interface::Console>::_write_str+0x80>  // b.lo, b.ul, b.last
   83af4:	39400c2a 	ldrb	w10, [x1, #3]
   83af8:	1200154a 	and	w10, w10, #0x3f
   83afc:	331a2daa 	bfi	w10, w13, #6, #12
   83b00:	330e096a 	bfi	w10, w11, #18, #3
   83b04:	7144415f 	cmp	w10, #0x110, lsl #12
   83b08:	54000260 	b.eq	83b54 <<libkernel::bsp::device_driver::mini_uart::MiniUart as libkernel::console::interface::Console>::_write_str+0xb4>  // b.none
   83b0c:	91001021 	add	x1, x1, #0x4
   83b10:	14000009 	b	83b34 <<libkernel::bsp::device_driver::mini_uart::MiniUart as libkernel::console::interface::Console>::_write_str+0x94>
   83b14:	91000821 	add	x1, x1, #0x2
   83b18:	331a116a 	bfi	w10, w11, #6, #5
   83b1c:	14000006 	b	83b34 <<libkernel::bsp::device_driver::mini_uart::MiniUart as libkernel::console::interface::Console>::_write_str+0x94>
   83b20:	3314116d 	bfi	w13, w11, #12, #5
   83b24:	91000c21 	add	x1, x1, #0x3
   83b28:	2a0d03ea 	mov	w10, w13
   83b2c:	14000002 	b	83b34 <<libkernel::bsp::device_driver::mini_uart::MiniUart as libkernel::console::interface::Console>::_write_str+0x94>
   83b30:	d503201f 	nop
   83b34:	b940152b 	ldr	w11, [x9, #20]
   83b38:	362fffcb 	tbz	w11, #5, 83b30 <<libkernel::bsp::device_driver::mini_uart::MiniUart as libkernel::console::interface::Console>::_write_str+0x90>
   83b3c:	b900012a 	str	w10, [x9]
   83b40:	eb08003f 	cmp	x1, x8
   83b44:	f940040a 	ldr	x10, [x0, #8]
   83b48:	9100054a 	add	x10, x10, #0x1
   83b4c:	f900040a 	str	x10, [x0, #8]
   83b50:	54fffb01 	b.ne	83ab0 <<libkernel::bsp::device_driver::mini_uart::MiniUart as libkernel::console::interface::Console>::_write_str+0x10>  // b.any
   83b54:	2a1f03e0 	mov	w0, wzr
   83b58:	d65f03c0 	ret

0000000000083b5c <<libkernel::bsp::device_driver::mini_uart::MiniUart as libkernel::console::interface::Console>::_write_char>:
   83b5c:	528a0809 	mov	w9, #0x5040                	// #20544
   83b60:	aa0003e8 	mov	x8, x0
   83b64:	72bfc429 	movk	w9, #0xfe21, lsl #16
   83b68:	b940152a 	ldr	w10, [x9, #20]
   83b6c:	3728008a 	tbnz	w10, #5, 83b7c <<libkernel::bsp::device_driver::mini_uart::MiniUart as libkernel::console::interface::Console>::_write_char+0x20>
   83b70:	d503201f 	nop
   83b74:	b940152a 	ldr	w10, [x9, #20]
   83b78:	362fffca 	tbz	w10, #5, 83b70 <<libkernel::bsp::device_driver::mini_uart::MiniUart as libkernel::console::interface::Console>::_write_char+0x14>
   83b7c:	b9000121 	str	w1, [x9]
   83b80:	2a1f03e0 	mov	w0, wzr
   83b84:	f9400509 	ldr	x9, [x8, #8]
   83b88:	91000529 	add	x9, x9, #0x1
   83b8c:	f9000509 	str	x9, [x8, #8]
   83b90:	d65f03c0 	ret

0000000000083b94 <<libkernel::bsp::device_driver::mini_uart::MiniUart as libkernel::console::interface::Console>::_write_fmt>:
   83b94:	d10103ff 	sub	sp, sp, #0x40
   83b98:	a90303fe 	stp	x30, x0, [sp, #48]
   83b9c:	910003e0 	mov	x0, sp
   83ba0:	52800602 	mov	w2, #0x30                  	// #48
   83ba4:	94000161 	bl	84128 <memcpy>
   83ba8:	f0000001 	adrp	x1, 86000 <compiler_builtins::mem::__llvm_memset_element_unordered_atomic_16+0x170c>
   83bac:	9105a021 	add	x1, x1, #0x168
   83bb0:	9100e3e0 	add	x0, sp, #0x38
   83bb4:	910003e2 	mov	x2, sp
   83bb8:	97fff43f 	bl	80cb4 <core::fmt::write>
   83bbc:	f9401bfe 	ldr	x30, [sp, #48]
   83bc0:	910103ff 	add	sp, sp, #0x40
   83bc4:	d65f03c0 	ret

0000000000083bc8 <<&mut W as core::fmt::Write>::write_str>:
   83bc8:	b40005c2 	cbz	x2, 83c80 <<&mut W as core::fmt::Write>::write_str+0xb8>
   83bcc:	528a080a 	mov	w10, #0x5040                	// #20544
   83bd0:	f9400008 	ldr	x8, [x0]
   83bd4:	8b020029 	add	x9, x1, x2
   83bd8:	72bfc42a 	movk	w10, #0xfe21, lsl #16
   83bdc:	aa0103ec 	mov	x12, x1
   83be0:	38c0158b 	ldrsb	w11, [x12], #1
   83be4:	12001d6d 	and	w13, w11, #0xff
   83be8:	37f8008b 	tbnz	w11, #31, 83bf8 <<&mut W as core::fmt::Write>::write_str+0x30>
   83bec:	2a0d03eb 	mov	w11, w13
   83bf0:	aa0c03e1 	mov	x1, x12
   83bf4:	1400001b 	b	83c60 <<&mut W as core::fmt::Write>::write_str+0x98>
   83bf8:	3940042b 	ldrb	w11, [x1, #1]
   83bfc:	120011ac 	and	w12, w13, #0x1f
   83c00:	71037dbf 	cmp	w13, #0xdf
   83c04:	1200156b 	and	w11, w11, #0x3f
   83c08:	540001c9 	b.ls	83c40 <<&mut W as core::fmt::Write>::write_str+0x78>  // b.plast
   83c0c:	3940082e 	ldrb	w14, [x1, #2]
   83c10:	7103c1bf 	cmp	w13, #0xf0
   83c14:	120015ce 	and	w14, w14, #0x3f
   83c18:	331a156e 	bfi	w14, w11, #6, #6
   83c1c:	54000183 	b.cc	83c4c <<&mut W as core::fmt::Write>::write_str+0x84>  // b.lo, b.ul, b.last
   83c20:	39400c2b 	ldrb	w11, [x1, #3]
   83c24:	1200156b 	and	w11, w11, #0x3f
   83c28:	331a2dcb 	bfi	w11, w14, #6, #12
   83c2c:	330e098b 	bfi	w11, w12, #18, #3
   83c30:	7144417f 	cmp	w11, #0x110, lsl #12
   83c34:	54000260 	b.eq	83c80 <<&mut W as core::fmt::Write>::write_str+0xb8>  // b.none
   83c38:	91001021 	add	x1, x1, #0x4
   83c3c:	14000009 	b	83c60 <<&mut W as core::fmt::Write>::write_str+0x98>
   83c40:	91000821 	add	x1, x1, #0x2
   83c44:	331a118b 	bfi	w11, w12, #6, #5
   83c48:	14000006 	b	83c60 <<&mut W as core::fmt::Write>::write_str+0x98>
   83c4c:	3314118e 	bfi	w14, w12, #12, #5
   83c50:	91000c21 	add	x1, x1, #0x3
   83c54:	2a0e03eb 	mov	w11, w14
   83c58:	14000002 	b	83c60 <<&mut W as core::fmt::Write>::write_str+0x98>
   83c5c:	d503201f 	nop
   83c60:	b940154c 	ldr	w12, [x10, #20]
   83c64:	362fffcc 	tbz	w12, #5, 83c5c <<&mut W as core::fmt::Write>::write_str+0x94>
   83c68:	b900014b 	str	w11, [x10]
   83c6c:	eb09003f 	cmp	x1, x9
   83c70:	f940050b 	ldr	x11, [x8, #8]
   83c74:	9100056b 	add	x11, x11, #0x1
   83c78:	f900050b 	str	x11, [x8, #8]
   83c7c:	54fffb01 	b.ne	83bdc <<&mut W as core::fmt::Write>::write_str+0x14>  // b.any
   83c80:	2a1f03e0 	mov	w0, wzr
   83c84:	d65f03c0 	ret

0000000000083c88 <<&mut W as core::fmt::Write>::write_char>:
   83c88:	d10043ff 	sub	sp, sp, #0x10
   83c8c:	f9400008 	ldr	x8, [x0]
   83c90:	7102003f 	cmp	w1, #0x80
   83c94:	b9000fff 	str	wzr, [sp, #12]
   83c98:	54000082 	b.cs	83ca8 <<&mut W as core::fmt::Write>::write_char+0x20>  // b.hs, b.nlast
   83c9c:	5280002a 	mov	w10, #0x1                   	// #1
   83ca0:	390033e1 	strb	w1, [sp, #12]
   83ca4:	14000025 	b	83d38 <<&mut W as core::fmt::Write>::write_char+0xb0>
   83ca8:	7120003f 	cmp	w1, #0x800
   83cac:	54000122 	b.cs	83cd0 <<&mut W as core::fmt::Write>::write_char+0x48>  // b.hs, b.nlast
   83cb0:	53067c29 	lsr	w9, w1, #6
   83cb4:	5280100b 	mov	w11, #0x80                  	// #128
   83cb8:	321a0529 	orr	w9, w9, #0xc0
   83cbc:	3300142b 	bfxil	w11, w1, #0, #6
   83cc0:	5280004a 	mov	w10, #0x2                   	// #2
   83cc4:	390033e9 	strb	w9, [sp, #12]
   83cc8:	390037eb 	strb	w11, [sp, #13]
   83ccc:	1400001b 	b	83d38 <<&mut W as core::fmt::Write>::write_char+0xb0>
   83cd0:	7140403f 	cmp	w1, #0x10, lsl #12
   83cd4:	54000182 	b.cs	83d04 <<&mut W as core::fmt::Write>::write_char+0x7c>  // b.hs, b.nlast
   83cd8:	530c7c29 	lsr	w9, w1, #12
   83cdc:	5280100b 	mov	w11, #0x80                  	// #128
   83ce0:	5280100c 	mov	w12, #0x80                  	// #128
   83ce4:	321b0929 	orr	w9, w9, #0xe0
   83ce8:	33062c2b 	bfxil	w11, w1, #6, #6
   83cec:	3300142c 	bfxil	w12, w1, #0, #6
   83cf0:	5280006a 	mov	w10, #0x3                   	// #3
   83cf4:	390033e9 	strb	w9, [sp, #12]
   83cf8:	390037eb 	strb	w11, [sp, #13]
   83cfc:	39003bec 	strb	w12, [sp, #14]
   83d00:	1400000e 	b	83d38 <<&mut W as core::fmt::Write>::write_char+0xb0>
   83d04:	52801e09 	mov	w9, #0xf0                  	// #240
   83d08:	5280100a 	mov	w10, #0x80                  	// #128
   83d0c:	5280100b 	mov	w11, #0x80                  	// #128
   83d10:	5280100c 	mov	w12, #0x80                  	// #128
   83d14:	33125029 	bfxil	w9, w1, #18, #3
   83d18:	330c442a 	bfxil	w10, w1, #12, #6
   83d1c:	33062c2b 	bfxil	w11, w1, #6, #6
   83d20:	3300142c 	bfxil	w12, w1, #0, #6
   83d24:	390033e9 	strb	w9, [sp, #12]
   83d28:	390037ea 	strb	w10, [sp, #13]
   83d2c:	5280008a 	mov	w10, #0x4                   	// #4
   83d30:	39003beb 	strb	w11, [sp, #14]
   83d34:	39003fec 	strb	w12, [sp, #15]
   83d38:	910033eb 	add	x11, sp, #0xc
   83d3c:	528a0809 	mov	w9, #0x5040                	// #20544
   83d40:	72bfc429 	movk	w9, #0xfe21, lsl #16
   83d44:	8b0a016a 	add	x10, x11, x10
   83d48:	aa0b03ed 	mov	x13, x11
   83d4c:	38c015ac 	ldrsb	w12, [x13], #1
   83d50:	12001d8e 	and	w14, w12, #0xff
   83d54:	37f8008c 	tbnz	w12, #31, 83d64 <<&mut W as core::fmt::Write>::write_char+0xdc>
   83d58:	2a0e03ec 	mov	w12, w14
   83d5c:	aa0d03eb 	mov	x11, x13
   83d60:	1400001b 	b	83dcc <<&mut W as core::fmt::Write>::write_char+0x144>
   83d64:	3940056c 	ldrb	w12, [x11, #1]
   83d68:	120011cd 	and	w13, w14, #0x1f
   83d6c:	71037ddf 	cmp	w14, #0xdf
   83d70:	1200158c 	and	w12, w12, #0x3f
   83d74:	540001c9 	b.ls	83dac <<&mut W as core::fmt::Write>::write_char+0x124>  // b.plast
   83d78:	3940096f 	ldrb	w15, [x11, #2]
   83d7c:	7103c1df 	cmp	w14, #0xf0
   83d80:	120015ef 	and	w15, w15, #0x3f
   83d84:	331a158f 	bfi	w15, w12, #6, #6
   83d88:	54000183 	b.cc	83db8 <<&mut W as core::fmt::Write>::write_char+0x130>  // b.lo, b.ul, b.last
   83d8c:	39400d6c 	ldrb	w12, [x11, #3]
   83d90:	1200158c 	and	w12, w12, #0x3f
   83d94:	331a2dec 	bfi	w12, w15, #6, #12
   83d98:	330e09ac 	bfi	w12, w13, #18, #3
   83d9c:	7144419f 	cmp	w12, #0x110, lsl #12
   83da0:	54000260 	b.eq	83dec <<&mut W as core::fmt::Write>::write_char+0x164>  // b.none
   83da4:	9100116b 	add	x11, x11, #0x4
   83da8:	14000009 	b	83dcc <<&mut W as core::fmt::Write>::write_char+0x144>
   83dac:	9100096b 	add	x11, x11, #0x2
   83db0:	331a11ac 	bfi	w12, w13, #6, #5
   83db4:	14000006 	b	83dcc <<&mut W as core::fmt::Write>::write_char+0x144>
   83db8:	331411af 	bfi	w15, w13, #12, #5
   83dbc:	91000d6b 	add	x11, x11, #0x3
   83dc0:	2a0f03ec 	mov	w12, w15
   83dc4:	14000002 	b	83dcc <<&mut W as core::fmt::Write>::write_char+0x144>
   83dc8:	d503201f 	nop
   83dcc:	b940152d 	ldr	w13, [x9, #20]
   83dd0:	362fffcd 	tbz	w13, #5, 83dc8 <<&mut W as core::fmt::Write>::write_char+0x140>
   83dd4:	b900012c 	str	w12, [x9]
   83dd8:	eb0a017f 	cmp	x11, x10
   83ddc:	f940050c 	ldr	x12, [x8, #8]
   83de0:	9100058c 	add	x12, x12, #0x1
   83de4:	f900050c 	str	x12, [x8, #8]
   83de8:	54fffb01 	b.ne	83d48 <<&mut W as core::fmt::Write>::write_char+0xc0>  // b.any
   83dec:	2a1f03e0 	mov	w0, wzr
   83df0:	910043ff 	add	sp, sp, #0x10
   83df4:	d65f03c0 	ret

0000000000083df8 <<&mut W as core::fmt::Write>::write_fmt>:
   83df8:	d10103ff 	sub	sp, sp, #0x40
   83dfc:	f9400008 	ldr	x8, [x0]
   83e00:	910003e0 	mov	x0, sp
   83e04:	52800602 	mov	w2, #0x30                  	// #48
   83e08:	a90323fe 	stp	x30, x8, [sp, #48]
   83e0c:	940000c7 	bl	84128 <memcpy>
   83e10:	f0000001 	adrp	x1, 86000 <compiler_builtins::mem::__llvm_memset_element_unordered_atomic_16+0x170c>
   83e14:	9105a021 	add	x1, x1, #0x168
   83e18:	9100e3e0 	add	x0, sp, #0x38
   83e1c:	910003e2 	mov	x2, sp
   83e20:	97fff3a5 	bl	80cb4 <core::fmt::write>
   83e24:	f9401bfe 	ldr	x30, [sp, #48]
   83e28:	910103ff 	add	sp, sp, #0x40
   83e2c:	d65f03c0 	ret

0000000000083e30 <<libkernel::bsp::device_driver::mini_uart::MiniUart as libkernel::console::interface::Console>::_flush>:
   83e30:	528a0a88 	mov	w8, #0x5054                	// #20564
   83e34:	72bfc428 	movk	w8, #0xfe21, lsl #16
   83e38:	b9400109 	ldr	w9, [x8]
   83e3c:	37300089 	tbnz	w9, #6, 83e4c <<libkernel::bsp::device_driver::mini_uart::MiniUart as libkernel::console::interface::Console>::_flush+0x1c>
   83e40:	d503201f 	nop
   83e44:	b9400109 	ldr	w9, [x8]
   83e48:	3637ffc9 	tbz	w9, #6, 83e40 <<libkernel::bsp::device_driver::mini_uart::MiniUart as libkernel::console::interface::Console>::_flush+0x10>
   83e4c:	d65f03c0 	ret

0000000000083e50 <<libkernel::bsp::device_driver::mini_uart::MiniUart as libkernel::console::interface::Console>::_read_char>:
   83e50:	528a0a89 	mov	w9, #0x5054                	// #20564
   83e54:	aa0003e8 	mov	x8, x0
   83e58:	72bfc429 	movk	w9, #0xfe21, lsl #16
   83e5c:	b940012a 	ldr	w10, [x9]
   83e60:	370000ca 	tbnz	w10, #0, 83e78 <<libkernel::bsp::device_driver::mini_uart::MiniUart as libkernel::console::interface::Console>::_read_char+0x28>
   83e64:	b940012a 	ldr	w10, [x9]
   83e68:	3700008a 	tbnz	w10, #0, 83e78 <<libkernel::bsp::device_driver::mini_uart::MiniUart as libkernel::console::interface::Console>::_read_char+0x28>
   83e6c:	d503201f 	nop
   83e70:	b940012a 	ldr	w10, [x9]
   83e74:	3607ffca 	tbz	w10, #0, 83e6c <<libkernel::bsp::device_driver::mini_uart::MiniUart as libkernel::console::interface::Console>::_read_char+0x1c>
   83e78:	b85ec129 	ldur	w9, [x9, #-20]
   83e7c:	f940010a 	ldr	x10, [x8]
   83e80:	12001d20 	and	w0, w9, #0xff
   83e84:	91000549 	add	x9, x10, #0x1
   83e88:	f9000109 	str	x9, [x8]
   83e8c:	d65f03c0 	ret

0000000000083e90 <<libkernel::bsp::device_driver::mini_uart::MiniUart as libkernel::console::interface::Console>::_clear_rx>:
   83e90:	528a0808 	mov	w8, #0x5040                	// #20544
   83e94:	72bfc428 	movk	w8, #0xfe21, lsl #16
   83e98:	b9401509 	ldr	w9, [x8, #20]
   83e9c:	360000e9 	tbz	w9, #0, 83eb8 <<libkernel::bsp::device_driver::mini_uart::MiniUart as libkernel::console::interface::Console>::_clear_rx+0x28>
   83ea0:	b940011f 	ldr	wzr, [x8]
   83ea4:	f9400009 	ldr	x9, [x0]
   83ea8:	91000529 	add	x9, x9, #0x1
   83eac:	f9000009 	str	x9, [x0]
   83eb0:	b9401509 	ldr	w9, [x8, #20]
   83eb4:	3707ff69 	tbnz	w9, #0, 83ea0 <<libkernel::bsp::device_driver::mini_uart::MiniUart as libkernel::console::interface::Console>::_clear_rx+0x10>
   83eb8:	d65f03c0 	ret

0000000000083ebc <<libkernel::bsp::device_driver::mini_uart::MiniUart as libkernel::console::interface::Console>::_chars_written>:
   83ebc:	f9400400 	ldr	x0, [x0, #8]
   83ec0:	d65f03c0 	ret

0000000000083ec4 <<libkernel::bsp::device_driver::mini_uart::MiniUart as libkernel::console::interface::Console>::_chars_read>:
   83ec4:	f9400000 	ldr	x0, [x0]
   83ec8:	d65f03c0 	ret

0000000000083ecc <<&T as core::fmt::Debug>::fmt>:
   83ecc:	d10143ff 	sub	sp, sp, #0x50
   83ed0:	f90023fe 	str	x30, [sp, #64]
   83ed4:	f9400008 	ldr	x8, [x0]
   83ed8:	b000000a 	adrp	x10, 84000 <rust_begin_unwind+0xb4>
   83edc:	9126514a 	add	x10, x10, #0x994
   83ee0:	39400109 	ldrb	w9, [x8]
   83ee4:	1000008b 	adr	x11, 83ef4 <<&T as core::fmt::Debug>::fmt+0x28>
   83ee8:	3869694c 	ldrb	w12, [x10, x9]
   83eec:	8b0c096b 	add	x11, x11, x12, lsl #2
   83ef0:	d61f0160 	br	x11
   83ef4:	91002108 	add	x8, x8, #0x8
   83ef8:	910123e9 	add	x9, sp, #0x48
   83efc:	f0ffffea 	adrp	x10, 82000 <<libkernel::memory::arch_mmu::translation_entry::Descriptor as core::fmt::Display>::fmt+0xac>
   83f00:	9112714a 	add	x10, x10, #0x49c
   83f04:	a9400420 	ldp	x0, x1, [x1]
   83f08:	f90027e8 	str	x8, [sp, #72]
   83f0c:	f0000008 	adrp	x8, 86000 <compiler_builtins::mem::__llvm_memset_element_unordered_atomic_16+0x170c>
   83f10:	910a6108 	add	x8, x8, #0x298
   83f14:	a9002be9 	stp	x9, x10, [sp]
   83f18:	52800029 	mov	w9, #0x1                   	// #1
   83f1c:	910003ea 	mov	x10, sp
   83f20:	910043e2 	add	x2, sp, #0x10
   83f24:	f9000bff 	str	xzr, [sp, #16]
   83f28:	f90013e8 	str	x8, [sp, #32]
   83f2c:	a902abe9 	stp	x9, x10, [sp, #40]
   83f30:	f9001fe9 	str	x9, [sp, #56]
   83f34:	97fff360 	bl	80cb4 <core::fmt::write>
   83f38:	f94023fe 	ldr	x30, [sp, #64]
   83f3c:	910143ff 	add	sp, sp, #0x50
   83f40:	d65f03c0 	ret

0000000000083f44 <_panic_exit>:
   83f44:	d503205f 	wfe
   83f48:	17ffffff 	b	83f44 <_panic_exit>

0000000000083f4c <rust_begin_unwind>:
   83f4c:	d10343ff 	sub	sp, sp, #0xd0
   83f50:	f90063fe 	str	x30, [sp, #192]
   83f54:	b0000028 	adrp	x8, 88000 <libkernel::bsp::device_driver::mini_uart::MINI_UART>
   83f58:	39404109 	ldrb	w9, [x8, #16]
   83f5c:	35000569 	cbnz	w9, 84008 <rust_begin_unwind+0xbc>
   83f60:	52800029 	mov	w9, #0x1                   	// #1
   83f64:	39004109 	strb	w9, [x8, #16]
   83f68:	f0000009 	adrp	x9, 86000 <compiler_builtins::mem::__llvm_memset_element_unordered_atomic_16+0x170c>
   83f6c:	910cc129 	add	x9, x9, #0x330
   83f70:	f90013ff 	str	xzr, [sp, #32]
   83f74:	a941200a 	ldp	x10, x8, [x0, #16]
   83f78:	910083e0 	add	x0, sp, #0x20
   83f7c:	f100015f 	cmp	x10, #0x0
   83f80:	29422d0c 	ldp	w12, w11, [x8, #16]
   83f84:	a9403508 	ldp	x8, x13, [x8]
   83f88:	a90a7fe9 	stp	x9, xzr, [sp, #160]
   83f8c:	a90b7fe9 	stp	x9, xzr, [sp, #176]
   83f90:	910243e9 	add	x9, sp, #0x90
   83f94:	29032fec 	stp	w12, w11, [sp, #24]
   83f98:	b0ffffeb 	adrp	x11, 80000 <_start>
   83f9c:	913b616b 	add	x11, x11, #0xed8
   83fa0:	f9004bff 	str	xzr, [sp, #144]
   83fa4:	a900b7e8 	stp	x8, x13, [sp, #8]
   83fa8:	9a8a0128 	csel	x8, x9, x10, eq  // eq = none
   83fac:	910023e9 	add	x9, sp, #0x8
   83fb0:	b0ffffea 	adrp	x10, 80000 <_start>
   83fb4:	9132614a 	add	x10, x10, #0xc98
   83fb8:	f90067e8 	str	x8, [sp, #200]
   83fbc:	910063e8 	add	x8, sp, #0x18
   83fc0:	a9052be9 	stp	x9, x10, [sp, #80]
   83fc4:	910073e9 	add	x9, sp, #0x1c
   83fc8:	a9062fe8 	stp	x8, x11, [sp, #96]
   83fcc:	910323e8 	add	x8, sp, #0xc8
   83fd0:	f000000a 	adrp	x10, 86000 <compiler_builtins::mem::__llvm_memset_element_unordered_atomic_16+0x170c>
   83fd4:	910b814a 	add	x10, x10, #0x2e0
   83fd8:	a9072fe9 	stp	x9, x11, [sp, #112]
   83fdc:	f0ffffe9 	adrp	x9, 82000 <<libkernel::memory::arch_mmu::translation_entry::Descriptor as core::fmt::Display>::fmt+0xac>
   83fe0:	9112c129 	add	x9, x9, #0x4b0
   83fe4:	a90827e8 	stp	x8, x9, [sp, #128]
   83fe8:	528000a8 	mov	w8, #0x5                   	// #5
   83fec:	910143e9 	add	x9, sp, #0x50
   83ff0:	a90323ea 	stp	x10, x8, [sp, #48]
   83ff4:	5280008a 	mov	w10, #0x4                   	// #4
   83ff8:	a9042be9 	stp	x9, x10, [sp, #64]
   83ffc:	97fff90a 	bl	82424 <libkernel::print::_print>
   84000:	97ffffd1 	bl	83f44 <_panic_exit>
   84004:	d4200020 	brk	#0x1
   84008:	97ffffcf 	bl	83f44 <_panic_exit>
   8400c:	d4200020 	brk	#0x1

0000000000084010 <kernel_main>:
   84010:	d101c3ff 	sub	sp, sp, #0x70
   84014:	a9064ffe 	stp	x30, x19, [sp, #96]
   84018:	f0000013 	adrp	x19, 87000 <libkernel::console::CONSOLE>
   8401c:	91000273 	add	x19, x19, #0x0
   84020:	a940a260 	ldp	x0, x8, [x19, #8]
   84024:	f9400d08 	ldr	x8, [x8, #24]
   84028:	d63f0100 	blr	x8
   8402c:	aa1303e0 	mov	x0, x19
   84030:	97fff931 	bl	824f4 <unlock>
   84034:	d5384248 	mrs	x8, currentel
   84038:	d3420d08 	ubfx	x8, x8, #2, #2
   8403c:	f1000d1f 	cmp	x8, #0x3
   84040:	540000a1 	b.ne	84054 <kernel_main+0x44>  // b.any
   84044:	528000e8 	mov	w8, #0x7                   	// #7
   84048:	b0000009 	adrp	x9, 85000 <compiler_builtins::mem::__llvm_memset_element_unordered_atomic_16+0x70c>
   8404c:	91338129 	add	x9, x9, #0xce0
   84050:	14000005 	b	84064 <kernel_main+0x54>
   84054:	b0000009 	adrp	x9, 85000 <compiler_builtins::mem::__llvm_memset_element_unordered_atomic_16+0x70c>
   84058:	9133c129 	add	x9, x9, #0xcf0
   8405c:	f8687929 	ldr	x9, [x9, x8, lsl #3]
   84060:	52800068 	mov	w8, #0x3                   	// #3
   84064:	a900a3e9 	stp	x9, x8, [sp, #8]
   84068:	910023e9 	add	x9, sp, #0x8
   8406c:	90ffffe8 	adrp	x8, 80000 <_start>
   84070:	91326108 	add	x8, x8, #0xc98
   84074:	f000000a 	adrp	x10, 87000 <libkernel::console::CONSOLE>
   84078:	9100214a 	add	x10, x10, #0x8
   8407c:	d000000b 	adrp	x11, 86000 <compiler_builtins::mem::__llvm_memset_element_unordered_atomic_16+0x170c>
   84080:	910d416b 	add	x11, x11, #0x350
   84084:	a901a3e9 	stp	x9, x8, [sp, #24]
   84088:	52800049 	mov	w9, #0x2                   	// #2
   8408c:	a9402140 	ldp	x0, x8, [x10]
   84090:	910063ea 	add	x10, sp, #0x18
   84094:	9100a3e1 	add	x1, sp, #0x28
   84098:	a903a7eb 	stp	x11, x9, [sp, #56]
   8409c:	5280002b 	mov	w11, #0x1                   	// #1
   840a0:	f90017ff 	str	xzr, [sp, #40]
   840a4:	f9401908 	ldr	x8, [x8, #48]
   840a8:	a904afea 	stp	x10, x11, [sp, #72]
   840ac:	d63f0100 	blr	x8
   840b0:	350002a0 	cbnz	w0, 84104 <kernel_main+0xf4>
   840b4:	aa1303e0 	mov	x0, x19
   840b8:	97fff90f 	bl	824f4 <unlock>
   840bc:	97fffa04 	bl	828cc <libkernel::memory::arch_mmu::MemoryManagementUnit::config>
   840c0:	a940a260 	ldp	x0, x8, [x19, #8]
   840c4:	d0000009 	adrp	x9, 86000 <compiler_builtins::mem::__llvm_memset_element_unordered_atomic_16+0x170c>
   840c8:	910e0129 	add	x9, x9, #0x380
   840cc:	5280002a 	mov	w10, #0x1                   	// #1
   840d0:	9100a3e1 	add	x1, sp, #0x28
   840d4:	f90017ff 	str	xzr, [sp, #40]
   840d8:	a903abe9 	stp	x9, x10, [sp, #56]
   840dc:	d0000009 	adrp	x9, 86000 <compiler_builtins::mem::__llvm_memset_element_unordered_atomic_16+0x170c>
   840e0:	910cc129 	add	x9, x9, #0x330
   840e4:	f9401908 	ldr	x8, [x8, #48]
   840e8:	a904ffe9 	stp	x9, xzr, [sp, #72]
   840ec:	d63f0100 	blr	x8
   840f0:	350000a0 	cbnz	w0, 84104 <kernel_main+0xf4>
   840f4:	f0000000 	adrp	x0, 87000 <libkernel::console::CONSOLE>
   840f8:	91000000 	add	x0, x0, #0x0
   840fc:	97fff8fe 	bl	824f4 <unlock>
   84100:	14000000 	b	84100 <kernel_main+0xf0>
   84104:	d0000000 	adrp	x0, 86000 <compiler_builtins::mem::__llvm_memset_element_unordered_atomic_16+0x170c>
   84108:	91024000 	add	x0, x0, #0x90
   8410c:	b0000002 	adrp	x2, 85000 <compiler_builtins::mem::__llvm_memset_element_unordered_atomic_16+0x70c>
   84110:	9130c042 	add	x2, x2, #0xc30
   84114:	b0000003 	adrp	x3, 85000 <compiler_builtins::mem::__llvm_memset_element_unordered_atomic_16+0x70c>
   84118:	9131a063 	add	x3, x3, #0xc68
   8411c:	910163e1 	add	x1, sp, #0x58
   84120:	97fff3cc 	bl	81050 <core::result::unwrap_failed>
   84124:	d4200020 	brk	#0x1

0000000000084128 <memcpy>:
   84128:	14000001 	b	8412c <compiler_builtins::mem::memcpy>

000000000008412c <compiler_builtins::mem::memcpy>:
   8412c:	f1003c5f 	cmp	x2, #0xf
   84130:	54000509 	b.ls	841d0 <compiler_builtins::mem::memcpy+0xa4>  // b.plast
   84134:	4b0003e8 	neg	w8, w0
   84138:	f2400908 	ands	x8, x8, #0x7
   8413c:	8b080009 	add	x9, x0, x8
   84140:	540000e0 	b.eq	8415c <compiler_builtins::mem::memcpy+0x30>  // b.none
   84144:	aa0003ea 	mov	x10, x0
   84148:	aa0103eb 	mov	x11, x1
   8414c:	3840156c 	ldrb	w12, [x11], #1
   84150:	3800154c 	strb	w12, [x10], #1
   84154:	eb09015f 	cmp	x10, x9
   84158:	54ffffa3 	b.cc	8414c <compiler_builtins::mem::memcpy+0x20>  // b.lo, b.ul, b.last
   8415c:	cb08004a 	sub	x10, x2, x8
   84160:	8b08002c 	add	x12, x1, x8
   84164:	927df14b 	and	x11, x10, #0xfffffffffffffff8
   84168:	f240099f 	tst	x12, #0x7
   8416c:	8b0b0128 	add	x8, x9, x11
   84170:	54000360 	b.eq	841dc <compiler_builtins::mem::memcpy+0xb0>  // b.none
   84174:	f100057f 	cmp	x11, #0x1
   84178:	5400040b 	b.lt	841f8 <compiler_builtins::mem::memcpy+0xcc>  // b.tstop
   8417c:	aa0c03ed 	mov	x13, x12
   84180:	aa0d03ee 	mov	x14, x13
   84184:	394015b1 	ldrb	w17, [x13, #5]
   84188:	394009b2 	ldrb	w18, [x13, #2]
   8418c:	38404dcf 	ldrb	w15, [x14, #4]!
   84190:	39400dd0 	ldrb	w16, [x14, #3]
   84194:	394009ce 	ldrb	w14, [x14, #2]
   84198:	33181e2f 	bfi	w15, w17, #8, #8
   8419c:	394005b1 	ldrb	w17, [x13, #1]
   841a0:	33181e0e 	bfi	w14, w16, #8, #8
   841a4:	39400db0 	ldrb	w16, [x13, #3]
   841a8:	33103dcf 	bfi	w15, w14, #16, #16
   841ac:	b3781e12 	bfi	x18, x16, #8, #8
   841b0:	384085ae 	ldrb	w14, [x13], #8
   841b4:	b3781e2e 	bfi	x14, x17, #8, #8
   841b8:	b3703e4e 	bfi	x14, x18, #16, #16
   841bc:	b3607dee 	bfi	x14, x15, #32, #32
   841c0:	f800852e 	str	x14, [x9], #8
   841c4:	eb08013f 	cmp	x9, x8
   841c8:	54fffdc3 	b.cc	84180 <compiler_builtins::mem::memcpy+0x54>  // b.lo, b.ul, b.last
   841cc:	1400000b 	b	841f8 <compiler_builtins::mem::memcpy+0xcc>
   841d0:	aa0003e8 	mov	x8, x0
   841d4:	b5000182 	cbnz	x2, 84204 <compiler_builtins::mem::memcpy+0xd8>
   841d8:	14000010 	b	84218 <compiler_builtins::mem::memcpy+0xec>
   841dc:	f100057f 	cmp	x11, #0x1
   841e0:	540000cb 	b.lt	841f8 <compiler_builtins::mem::memcpy+0xcc>  // b.tstop
   841e4:	aa0c03ed 	mov	x13, x12
   841e8:	f84085ae 	ldr	x14, [x13], #8
   841ec:	f800852e 	str	x14, [x9], #8
   841f0:	eb08013f 	cmp	x9, x8
   841f4:	54ffffa3 	b.cc	841e8 <compiler_builtins::mem::memcpy+0xbc>  // b.lo, b.ul, b.last
   841f8:	8b0b0181 	add	x1, x12, x11
   841fc:	92400942 	and	x2, x10, #0x7
   84200:	b40000c2 	cbz	x2, 84218 <compiler_builtins::mem::memcpy+0xec>
   84204:	8b020109 	add	x9, x8, x2
   84208:	3840142a 	ldrb	w10, [x1], #1
   8420c:	3800150a 	strb	w10, [x8], #1
   84210:	eb09011f 	cmp	x8, x9
   84214:	54ffffa3 	b.cc	84208 <compiler_builtins::mem::memcpy+0xdc>  // b.lo, b.ul, b.last
   84218:	d65f03c0 	ret

000000000008421c <compiler_builtins::mem::memmove>:
   8421c:	cb010008 	sub	x8, x0, x1
   84220:	eb02011f 	cmp	x8, x2
   84224:	540005a2 	b.cs	842d8 <compiler_builtins::mem::memmove+0xbc>  // b.hs, b.nlast
   84228:	8b020008 	add	x8, x0, x2
   8422c:	8b02002a 	add	x10, x1, x2
   84230:	f1003c5f 	cmp	x2, #0xf
   84234:	54000a49 	b.ls	8437c <compiler_builtins::mem::memmove+0x160>  // b.plast
   84238:	9240090b 	and	x11, x8, #0x7
   8423c:	927df109 	and	x9, x8, #0xfffffffffffffff8
   84240:	cb0b03ec 	neg	x12, x11
   84244:	b40000eb 	cbz	x11, 84260 <compiler_builtins::mem::memmove+0x44>
   84248:	8b01004d 	add	x13, x2, x1
   8424c:	d10005ad 	sub	x13, x13, #0x1
   84250:	385ff5ae 	ldrb	w14, [x13], #-1
   84254:	381ffd0e 	strb	w14, [x8, #-1]!
   84258:	eb08013f 	cmp	x9, x8
   8425c:	54ffffa3 	b.cc	84250 <compiler_builtins::mem::memmove+0x34>  // b.lo, b.ul, b.last
   84260:	8b0c014a 	add	x10, x10, x12
   84264:	cb0b004c 	sub	x12, x2, x11
   84268:	927df188 	and	x8, x12, #0xfffffffffffffff8
   8426c:	9240094d 	and	x13, x10, #0x7
   84270:	cb0803eb 	neg	x11, x8
   84274:	cb080128 	sub	x8, x9, x8
   84278:	b40008cd 	cbz	x13, 84390 <compiler_builtins::mem::memmove+0x174>
   8427c:	b6f8098b 	tbz	x11, #63, 843ac <compiler_builtins::mem::memmove+0x190>
   84280:	8b01018d 	add	x13, x12, x1
   84284:	d10021ad 	sub	x13, x13, #0x8
   84288:	aa0d03ee 	mov	x14, x13
   8428c:	394015b1 	ldrb	w17, [x13, #5]
   84290:	394009b2 	ldrb	w18, [x13, #2]
   84294:	38404dcf 	ldrb	w15, [x14, #4]!
   84298:	39400dd0 	ldrb	w16, [x14, #3]
   8429c:	394009ce 	ldrb	w14, [x14, #2]
   842a0:	33181e2f 	bfi	w15, w17, #8, #8
   842a4:	394005b1 	ldrb	w17, [x13, #1]
   842a8:	33181e0e 	bfi	w14, w16, #8, #8
   842ac:	39400db0 	ldrb	w16, [x13, #3]
   842b0:	33103dcf 	bfi	w15, w14, #16, #16
   842b4:	b3781e12 	bfi	x18, x16, #8, #8
   842b8:	385f85ae 	ldrb	w14, [x13], #-8
   842bc:	b3781e2e 	bfi	x14, x17, #8, #8
   842c0:	b3703e4e 	bfi	x14, x18, #16, #16
   842c4:	b3607dee 	bfi	x14, x15, #32, #32
   842c8:	f81f8d2e 	str	x14, [x9, #-8]!
   842cc:	eb09011f 	cmp	x8, x9
   842d0:	54fffdc3 	b.cc	84288 <compiler_builtins::mem::memmove+0x6c>  // b.lo, b.ul, b.last
   842d4:	14000036 	b	843ac <compiler_builtins::mem::memmove+0x190>
   842d8:	f1003c5f 	cmp	x2, #0xf
   842dc:	54000549 	b.ls	84384 <compiler_builtins::mem::memmove+0x168>  // b.plast
   842e0:	4b0003e8 	neg	w8, w0
   842e4:	f2400908 	ands	x8, x8, #0x7
   842e8:	8b080009 	add	x9, x0, x8
   842ec:	540000e0 	b.eq	84308 <compiler_builtins::mem::memmove+0xec>  // b.none
   842f0:	aa0003ea 	mov	x10, x0
   842f4:	aa0103eb 	mov	x11, x1
   842f8:	3840156c 	ldrb	w12, [x11], #1
   842fc:	3800154c 	strb	w12, [x10], #1
   84300:	eb09015f 	cmp	x10, x9
   84304:	54ffffa3 	b.cc	842f8 <compiler_builtins::mem::memmove+0xdc>  // b.lo, b.ul, b.last
   84308:	cb08004a 	sub	x10, x2, x8
   8430c:	8b08002c 	add	x12, x1, x8
   84310:	927df14b 	and	x11, x10, #0xfffffffffffffff8
   84314:	f240099f 	tst	x12, #0x7
   84318:	8b0b0128 	add	x8, x9, x11
   8431c:	540005c0 	b.eq	843d4 <compiler_builtins::mem::memmove+0x1b8>  // b.none
   84320:	f100057f 	cmp	x11, #0x1
   84324:	5400066b 	b.lt	843f0 <compiler_builtins::mem::memmove+0x1d4>  // b.tstop
   84328:	aa0c03ed 	mov	x13, x12
   8432c:	aa0d03ee 	mov	x14, x13
   84330:	394015b1 	ldrb	w17, [x13, #5]
   84334:	394009b2 	ldrb	w18, [x13, #2]
   84338:	38404dcf 	ldrb	w15, [x14, #4]!
   8433c:	39400dd0 	ldrb	w16, [x14, #3]
   84340:	394009ce 	ldrb	w14, [x14, #2]
   84344:	33181e2f 	bfi	w15, w17, #8, #8
   84348:	394005b1 	ldrb	w17, [x13, #1]
   8434c:	33181e0e 	bfi	w14, w16, #8, #8
   84350:	39400db0 	ldrb	w16, [x13, #3]
   84354:	33103dcf 	bfi	w15, w14, #16, #16
   84358:	b3781e12 	bfi	x18, x16, #8, #8
   8435c:	384085ae 	ldrb	w14, [x13], #8
   84360:	b3781e2e 	bfi	x14, x17, #8, #8
   84364:	b3703e4e 	bfi	x14, x18, #16, #16
   84368:	b3607dee 	bfi	x14, x15, #32, #32
   8436c:	f800852e 	str	x14, [x9], #8
   84370:	eb08013f 	cmp	x9, x8
   84374:	54fffdc3 	b.cc	8432c <compiler_builtins::mem::memmove+0x110>  // b.lo, b.ul, b.last
   84378:	1400001e 	b	843f0 <compiler_builtins::mem::memmove+0x1d4>
   8437c:	aa0003e9 	mov	x9, x0
   84380:	1400000f 	b	843bc <compiler_builtins::mem::memmove+0x1a0>
   84384:	aa0003e8 	mov	x8, x0
   84388:	b50003a2 	cbnz	x2, 843fc <compiler_builtins::mem::memmove+0x1e0>
   8438c:	14000021 	b	84410 <compiler_builtins::mem::memmove+0x1f4>
   84390:	b6f800eb 	tbz	x11, #63, 843ac <compiler_builtins::mem::memmove+0x190>
   84394:	8b01018d 	add	x13, x12, x1
   84398:	d10021ad 	sub	x13, x13, #0x8
   8439c:	f85f85ae 	ldr	x14, [x13], #-8
   843a0:	f81f8d2e 	str	x14, [x9, #-8]!
   843a4:	eb09011f 	cmp	x8, x9
   843a8:	54ffffa3 	b.cc	8439c <compiler_builtins::mem::memmove+0x180>  // b.lo, b.ul, b.last
   843ac:	92400989 	and	x9, x12, #0x7
   843b0:	b4000309 	cbz	x9, 84410 <compiler_builtins::mem::memmove+0x1f4>
   843b4:	8b0b014a 	add	x10, x10, x11
   843b8:	cb090109 	sub	x9, x8, x9
   843bc:	d100054a 	sub	x10, x10, #0x1
   843c0:	385ff54b 	ldrb	w11, [x10], #-1
   843c4:	381ffd0b 	strb	w11, [x8, #-1]!
   843c8:	eb08013f 	cmp	x9, x8
   843cc:	54ffffa3 	b.cc	843c0 <compiler_builtins::mem::memmove+0x1a4>  // b.lo, b.ul, b.last
   843d0:	14000010 	b	84410 <compiler_builtins::mem::memmove+0x1f4>
   843d4:	f100057f 	cmp	x11, #0x1
   843d8:	540000cb 	b.lt	843f0 <compiler_builtins::mem::memmove+0x1d4>  // b.tstop
   843dc:	aa0c03ed 	mov	x13, x12
   843e0:	f84085ae 	ldr	x14, [x13], #8
   843e4:	f800852e 	str	x14, [x9], #8
   843e8:	eb08013f 	cmp	x9, x8
   843ec:	54ffffa3 	b.cc	843e0 <compiler_builtins::mem::memmove+0x1c4>  // b.lo, b.ul, b.last
   843f0:	8b0b0181 	add	x1, x12, x11
   843f4:	92400942 	and	x2, x10, #0x7
   843f8:	b40000c2 	cbz	x2, 84410 <compiler_builtins::mem::memmove+0x1f4>
   843fc:	8b020109 	add	x9, x8, x2
   84400:	3840142a 	ldrb	w10, [x1], #1
   84404:	3800150a 	strb	w10, [x8], #1
   84408:	eb09011f 	cmp	x8, x9
   8440c:	54ffffa3 	b.cc	84400 <compiler_builtins::mem::memmove+0x1e4>  // b.lo, b.ul, b.last
   84410:	d65f03c0 	ret

0000000000084414 <compiler_builtins::mem::memset>:
   84414:	f1003c5f 	cmp	x2, #0xf
   84418:	540007c9 	b.ls	84510 <compiler_builtins::mem::memset+0xfc>  // b.plast
   8441c:	4b0003e8 	neg	w8, w0
   84420:	f240090a 	ands	x10, x8, #0x7
   84424:	8b0a0008 	add	x8, x0, x10
   84428:	540002a0 	b.eq	8447c <compiler_builtins::mem::memset+0x68>  // b.none
   8442c:	8b000149 	add	x9, x10, x0
   84430:	9100040b 	add	x11, x0, #0x1
   84434:	eb0b013f 	cmp	x9, x11
   84438:	9a808529 	csinc	x9, x9, x0, hi  // hi = pmore
   8443c:	cb00012c 	sub	x12, x9, x0
   84440:	aa0003e9 	mov	x9, x0
   84444:	f100099f 	cmp	x12, #0x2
   84448:	54000143 	b.cc	84470 <compiler_builtins::mem::memset+0x5c>  // b.lo, b.ul, b.last
   8444c:	927ff98d 	and	x13, x12, #0xfffffffffffffffe
   84450:	8b0d0009 	add	x9, x0, x13
   84454:	aa0d03ee 	mov	x14, x13
   84458:	f10009ce 	subs	x14, x14, #0x2
   8445c:	381ff161 	sturb	w1, [x11, #-1]
   84460:	38002561 	strb	w1, [x11], #2
   84464:	54ffffa1 	b.ne	84458 <compiler_builtins::mem::memset+0x44>  // b.any
   84468:	eb0d019f 	cmp	x12, x13
   8446c:	54000080 	b.eq	8447c <compiler_builtins::mem::memset+0x68>  // b.none
   84470:	38001521 	strb	w1, [x9], #1
   84474:	eb08013f 	cmp	x9, x8
   84478:	54ffffc3 	b.cc	84470 <compiler_builtins::mem::memset+0x5c>  // b.lo, b.ul, b.last
   8447c:	cb0a004b 	sub	x11, x2, x10
   84480:	927df16c 	and	x12, x11, #0xfffffffffffffff8
   84484:	8b0c0109 	add	x9, x8, x12
   84488:	f100059f 	cmp	x12, #0x1
   8448c:	540003cb 	b.lt	84504 <compiler_builtins::mem::memset+0xf0>  // b.tstop
   84490:	12001c2d 	and	w13, w1, #0xff
   84494:	3200c3ee 	mov	w14, #0x1010101             	// #16843009
   84498:	8b00018f 	add	x15, x12, x0
   8449c:	8b000150 	add	x16, x10, x0
   844a0:	1b0e7dac 	mul	w12, w13, w14
   844a4:	8b0a01ee 	add	x14, x15, x10
   844a8:	9100220d 	add	x13, x16, #0x8
   844ac:	aa2003ef 	mvn	x15, x0
   844b0:	eb0d01df 	cmp	x14, x13
   844b4:	9a8d81ce 	csel	x14, x14, x13, hi  // hi = pmore
   844b8:	8b0f01ce 	add	x14, x14, x15
   844bc:	b3607d8c 	bfi	x12, x12, #32, #32
   844c0:	cb0a01ca 	sub	x10, x14, x10
   844c4:	f100215f 	cmp	x10, #0x8
   844c8:	54000183 	b.cc	844f8 <compiler_builtins::mem::memset+0xe4>  // b.lo, b.ul, b.last
   844cc:	d343fd4a 	lsr	x10, x10, #3
   844d0:	9100054a 	add	x10, x10, #0x1
   844d4:	927ff14e 	and	x14, x10, #0x3ffffffffffffffe
   844d8:	aa0e03ef 	mov	x15, x14
   844dc:	8b0e0d08 	add	x8, x8, x14, lsl #3
   844e0:	a93fb1ac 	stp	x12, x12, [x13, #-8]
   844e4:	910041ad 	add	x13, x13, #0x10
   844e8:	f10009ef 	subs	x15, x15, #0x2
   844ec:	54ffffa1 	b.ne	844e0 <compiler_builtins::mem::memset+0xcc>  // b.any
   844f0:	eb0e015f 	cmp	x10, x14
   844f4:	54000080 	b.eq	84504 <compiler_builtins::mem::memset+0xf0>  // b.none
   844f8:	f800850c 	str	x12, [x8], #8
   844fc:	eb09011f 	cmp	x8, x9
   84500:	54ffffc3 	b.cc	844f8 <compiler_builtins::mem::memset+0xe4>  // b.lo, b.ul, b.last
   84504:	92400962 	and	x2, x11, #0x7
   84508:	b5000082 	cbnz	x2, 84518 <compiler_builtins::mem::memset+0x104>
   8450c:	14000018 	b	8456c <compiler_builtins::mem::memset+0x158>
   84510:	aa0003e9 	mov	x9, x0
   84514:	b40002c2 	cbz	x2, 8456c <compiler_builtins::mem::memset+0x158>
   84518:	8b090048 	add	x8, x2, x9
   8451c:	9100052a 	add	x10, x9, #0x1
   84520:	eb0a011f 	cmp	x8, x10
   84524:	9a898508 	csinc	x8, x8, x9, hi  // hi = pmore
   84528:	cb09010b 	sub	x11, x8, x9
   8452c:	aa0903e8 	mov	x8, x9
   84530:	f100097f 	cmp	x11, #0x2
   84534:	54000143 	b.cc	8455c <compiler_builtins::mem::memset+0x148>  // b.lo, b.ul, b.last
   84538:	927ff96c 	and	x12, x11, #0xfffffffffffffffe
   8453c:	8b0c0128 	add	x8, x9, x12
   84540:	aa0c03ed 	mov	x13, x12
   84544:	f10009ad 	subs	x13, x13, #0x2
   84548:	381ff141 	sturb	w1, [x10, #-1]
   8454c:	38002541 	strb	w1, [x10], #2
   84550:	54ffffa1 	b.ne	84544 <compiler_builtins::mem::memset+0x130>  // b.any
   84554:	eb0c017f 	cmp	x11, x12
   84558:	540000a0 	b.eq	8456c <compiler_builtins::mem::memset+0x158>  // b.none
   8455c:	8b020129 	add	x9, x9, x2
   84560:	38001501 	strb	w1, [x8], #1
   84564:	eb09011f 	cmp	x8, x9
   84568:	54ffffc3 	b.cc	84560 <compiler_builtins::mem::memset+0x14c>  // b.lo, b.ul, b.last
   8456c:	d65f03c0 	ret

0000000000084570 <compiler_builtins::mem::memcmp>:
   84570:	b4000122 	cbz	x2, 84594 <compiler_builtins::mem::memcmp+0x24>
   84574:	39400008 	ldrb	w8, [x0]
   84578:	39400029 	ldrb	w9, [x1]
   8457c:	6b090108 	subs	w8, w8, w9
   84580:	540000e1 	b.ne	8459c <compiler_builtins::mem::memcmp+0x2c>  // b.any
   84584:	91000421 	add	x1, x1, #0x1
   84588:	91000400 	add	x0, x0, #0x1
   8458c:	f1000442 	subs	x2, x2, #0x1
   84590:	54ffff21 	b.ne	84574 <compiler_builtins::mem::memcmp+0x4>  // b.any
   84594:	2a1f03e0 	mov	w0, wzr
   84598:	d65f03c0 	ret
   8459c:	2a0803e0 	mov	w0, w8
   845a0:	d65f03c0 	ret

00000000000845a4 <compiler_builtins::mem::bcmp>:
   845a4:	17fffff3 	b	84570 <compiler_builtins::mem::memcmp>

00000000000845a8 <compiler_builtins::mem::strlen>:
   845a8:	39400008 	ldrb	w8, [x0]
   845ac:	34000108 	cbz	w8, 845cc <compiler_builtins::mem::strlen+0x24>
   845b0:	aa1f03e9 	mov	x9, xzr
   845b4:	91000408 	add	x8, x0, #0x1
   845b8:	91000520 	add	x0, x9, #0x1
   845bc:	3869690a 	ldrb	w10, [x8, x9]
   845c0:	aa0003e9 	mov	x9, x0
   845c4:	35ffffaa 	cbnz	w10, 845b8 <compiler_builtins::mem::strlen+0x10>
   845c8:	d65f03c0 	ret
   845cc:	aa1f03e0 	mov	x0, xzr
   845d0:	d65f03c0 	ret

00000000000845d4 <compiler_builtins::mem::__llvm_memcpy_element_unordered_atomic_1>:
   845d4:	b40000a2 	cbz	x2, 845e8 <compiler_builtins::mem::__llvm_memcpy_element_unordered_atomic_1+0x14>
   845d8:	38401428 	ldrb	w8, [x1], #1
   845dc:	f1000442 	subs	x2, x2, #0x1
   845e0:	38001408 	strb	w8, [x0], #1
   845e4:	54ffffa1 	b.ne	845d8 <compiler_builtins::mem::__llvm_memcpy_element_unordered_atomic_1+0x4>  // b.any
   845e8:	d65f03c0 	ret

00000000000845ec <compiler_builtins::mem::__llvm_memcpy_element_unordered_atomic_2>:
   845ec:	b4000102 	cbz	x2, 8460c <compiler_builtins::mem::__llvm_memcpy_element_unordered_atomic_2+0x20>
   845f0:	d341fc48 	lsr	x8, x2, #1
   845f4:	f100051f 	cmp	x8, #0x1
   845f8:	9a9f8508 	csinc	x8, x8, xzr, hi  // hi = pmore
   845fc:	78402429 	ldrh	w9, [x1], #2
   84600:	f1000508 	subs	x8, x8, #0x1
   84604:	78002409 	strh	w9, [x0], #2
   84608:	54ffffa1 	b.ne	845fc <compiler_builtins::mem::__llvm_memcpy_element_unordered_atomic_2+0x10>  // b.any
   8460c:	d65f03c0 	ret

0000000000084610 <compiler_builtins::mem::__llvm_memcpy_element_unordered_atomic_4>:
   84610:	b4000102 	cbz	x2, 84630 <compiler_builtins::mem::__llvm_memcpy_element_unordered_atomic_4+0x20>
   84614:	d342fc48 	lsr	x8, x2, #2
   84618:	f100051f 	cmp	x8, #0x1
   8461c:	9a9f8508 	csinc	x8, x8, xzr, hi  // hi = pmore
   84620:	b8404429 	ldr	w9, [x1], #4
   84624:	f1000508 	subs	x8, x8, #0x1
   84628:	b8004409 	str	w9, [x0], #4
   8462c:	54ffffa1 	b.ne	84620 <compiler_builtins::mem::__llvm_memcpy_element_unordered_atomic_4+0x10>  // b.any
   84630:	d65f03c0 	ret

0000000000084634 <compiler_builtins::mem::__llvm_memcpy_element_unordered_atomic_8>:
   84634:	b4000102 	cbz	x2, 84654 <compiler_builtins::mem::__llvm_memcpy_element_unordered_atomic_8+0x20>
   84638:	d343fc48 	lsr	x8, x2, #3
   8463c:	f100051f 	cmp	x8, #0x1
   84640:	9a9f8508 	csinc	x8, x8, xzr, hi  // hi = pmore
   84644:	f8408429 	ldr	x9, [x1], #8
   84648:	f1000508 	subs	x8, x8, #0x1
   8464c:	f8008409 	str	x9, [x0], #8
   84650:	54ffffa1 	b.ne	84644 <compiler_builtins::mem::__llvm_memcpy_element_unordered_atomic_8+0x10>  // b.any
   84654:	d65f03c0 	ret

0000000000084658 <compiler_builtins::mem::__llvm_memcpy_element_unordered_atomic_16>:
   84658:	b4000222 	cbz	x2, 8469c <compiler_builtins::mem::__llvm_memcpy_element_unordered_atomic_16+0x44>
   8465c:	d344fc49 	lsr	x9, x2, #4
   84660:	aa1f03e8 	mov	x8, xzr
   84664:	f100053f 	cmp	x9, #0x1
   84668:	9a9f8529 	csinc	x9, x9, xzr, hi  // hi = pmore
   8466c:	d37ced0b 	lsl	x11, x8, #4
   84670:	8b0b000a 	add	x10, x0, x11
   84674:	8b0b002d 	add	x13, x1, x11
   84678:	c87f31ab 	ldxp	x11, x12, [x13]
   8467c:	c82e31ab 	stxp	w14, x11, x12, [x13]
   84680:	35ffffce 	cbnz	w14, 84678 <compiler_builtins::mem::__llvm_memcpy_element_unordered_atomic_16+0x20>
   84684:	c87f355f 	ldxp	xzr, x13, [x10]
   84688:	c82d314b 	stxp	w13, x11, x12, [x10]
   8468c:	35ffffcd 	cbnz	w13, 84684 <compiler_builtins::mem::__llvm_memcpy_element_unordered_atomic_16+0x2c>
   84690:	91000508 	add	x8, x8, #0x1
   84694:	eb09011f 	cmp	x8, x9
   84698:	54fffea1 	b.ne	8466c <compiler_builtins::mem::__llvm_memcpy_element_unordered_atomic_16+0x14>  // b.any
   8469c:	d65f03c0 	ret

00000000000846a0 <compiler_builtins::mem::__llvm_memmove_element_unordered_atomic_1>:
   846a0:	eb00003f 	cmp	x1, x0
   846a4:	54000142 	b.cs	846cc <compiler_builtins::mem::__llvm_memmove_element_unordered_atomic_1+0x2c>  // b.hs, b.nlast
   846a8:	b40001c2 	cbz	x2, 846e0 <compiler_builtins::mem::__llvm_memmove_element_unordered_atomic_1+0x40>
   846ac:	d1000408 	sub	x8, x0, #0x1
   846b0:	d1000429 	sub	x9, x1, #0x1
   846b4:	3862692a 	ldrb	w10, [x9, x2]
   846b8:	f100044b 	subs	x11, x2, #0x1
   846bc:	3822690a 	strb	w10, [x8, x2]
   846c0:	aa0b03e2 	mov	x2, x11
   846c4:	54ffff81 	b.ne	846b4 <compiler_builtins::mem::__llvm_memmove_element_unordered_atomic_1+0x14>  // b.any
   846c8:	14000006 	b	846e0 <compiler_builtins::mem::__llvm_memmove_element_unordered_atomic_1+0x40>
   846cc:	b40000a2 	cbz	x2, 846e0 <compiler_builtins::mem::__llvm_memmove_element_unordered_atomic_1+0x40>
   846d0:	38401428 	ldrb	w8, [x1], #1
   846d4:	f1000442 	subs	x2, x2, #0x1
   846d8:	38001408 	strb	w8, [x0], #1
   846dc:	54ffffa1 	b.ne	846d0 <compiler_builtins::mem::__llvm_memmove_element_unordered_atomic_1+0x30>  // b.any
   846e0:	d65f03c0 	ret

00000000000846e4 <compiler_builtins::mem::__llvm_memmove_element_unordered_atomic_2>:
   846e4:	d341fc48 	lsr	x8, x2, #1
   846e8:	eb00003f 	cmp	x1, x0
   846ec:	54000142 	b.cs	84714 <compiler_builtins::mem::__llvm_memmove_element_unordered_atomic_2+0x30>  // b.hs, b.nlast
   846f0:	b4000202 	cbz	x2, 84730 <compiler_builtins::mem::__llvm_memmove_element_unordered_atomic_2+0x4c>
   846f4:	d1000809 	sub	x9, x0, #0x2
   846f8:	d100082a 	sub	x10, x1, #0x2
   846fc:	d37ff90b 	lsl	x11, x8, #1
   84700:	f1000508 	subs	x8, x8, #0x1
   84704:	786b694c 	ldrh	w12, [x10, x11]
   84708:	782b692c 	strh	w12, [x9, x11]
   8470c:	54ffff81 	b.ne	846fc <compiler_builtins::mem::__llvm_memmove_element_unordered_atomic_2+0x18>  // b.any
   84710:	14000008 	b	84730 <compiler_builtins::mem::__llvm_memmove_element_unordered_atomic_2+0x4c>
   84714:	b40000e2 	cbz	x2, 84730 <compiler_builtins::mem::__llvm_memmove_element_unordered_atomic_2+0x4c>
   84718:	f100051f 	cmp	x8, #0x1
   8471c:	9a9f8508 	csinc	x8, x8, xzr, hi  // hi = pmore
   84720:	78402429 	ldrh	w9, [x1], #2
   84724:	f1000508 	subs	x8, x8, #0x1
   84728:	78002409 	strh	w9, [x0], #2
   8472c:	54ffffa1 	b.ne	84720 <compiler_builtins::mem::__llvm_memmove_element_unordered_atomic_2+0x3c>  // b.any
   84730:	d65f03c0 	ret

0000000000084734 <compiler_builtins::mem::__llvm_memmove_element_unordered_atomic_4>:
   84734:	d342fc48 	lsr	x8, x2, #2
   84738:	eb00003f 	cmp	x1, x0
   8473c:	54000142 	b.cs	84764 <compiler_builtins::mem::__llvm_memmove_element_unordered_atomic_4+0x30>  // b.hs, b.nlast
   84740:	b4000202 	cbz	x2, 84780 <compiler_builtins::mem::__llvm_memmove_element_unordered_atomic_4+0x4c>
   84744:	d1001009 	sub	x9, x0, #0x4
   84748:	d100102a 	sub	x10, x1, #0x4
   8474c:	d37ef50b 	lsl	x11, x8, #2
   84750:	f1000508 	subs	x8, x8, #0x1
   84754:	b86b694c 	ldr	w12, [x10, x11]
   84758:	b82b692c 	str	w12, [x9, x11]
   8475c:	54ffff81 	b.ne	8474c <compiler_builtins::mem::__llvm_memmove_element_unordered_atomic_4+0x18>  // b.any
   84760:	14000008 	b	84780 <compiler_builtins::mem::__llvm_memmove_element_unordered_atomic_4+0x4c>
   84764:	b40000e2 	cbz	x2, 84780 <compiler_builtins::mem::__llvm_memmove_element_unordered_atomic_4+0x4c>
   84768:	f100051f 	cmp	x8, #0x1
   8476c:	9a9f8508 	csinc	x8, x8, xzr, hi  // hi = pmore
   84770:	b8404429 	ldr	w9, [x1], #4
   84774:	f1000508 	subs	x8, x8, #0x1
   84778:	b8004409 	str	w9, [x0], #4
   8477c:	54ffffa1 	b.ne	84770 <compiler_builtins::mem::__llvm_memmove_element_unordered_atomic_4+0x3c>  // b.any
   84780:	d65f03c0 	ret

0000000000084784 <compiler_builtins::mem::__llvm_memmove_element_unordered_atomic_8>:
   84784:	d343fc48 	lsr	x8, x2, #3
   84788:	eb00003f 	cmp	x1, x0
   8478c:	54000142 	b.cs	847b4 <compiler_builtins::mem::__llvm_memmove_element_unordered_atomic_8+0x30>  // b.hs, b.nlast
   84790:	b4000202 	cbz	x2, 847d0 <compiler_builtins::mem::__llvm_memmove_element_unordered_atomic_8+0x4c>
   84794:	d1002009 	sub	x9, x0, #0x8
   84798:	d100202a 	sub	x10, x1, #0x8
   8479c:	d37df10b 	lsl	x11, x8, #3
   847a0:	f1000508 	subs	x8, x8, #0x1
   847a4:	f86b694c 	ldr	x12, [x10, x11]
   847a8:	f82b692c 	str	x12, [x9, x11]
   847ac:	54ffff81 	b.ne	8479c <compiler_builtins::mem::__llvm_memmove_element_unordered_atomic_8+0x18>  // b.any
   847b0:	14000008 	b	847d0 <compiler_builtins::mem::__llvm_memmove_element_unordered_atomic_8+0x4c>
   847b4:	b40000e2 	cbz	x2, 847d0 <compiler_builtins::mem::__llvm_memmove_element_unordered_atomic_8+0x4c>
   847b8:	f100051f 	cmp	x8, #0x1
   847bc:	9a9f8508 	csinc	x8, x8, xzr, hi  // hi = pmore
   847c0:	f8408429 	ldr	x9, [x1], #8
   847c4:	f1000508 	subs	x8, x8, #0x1
   847c8:	f8008409 	str	x9, [x0], #8
   847cc:	54ffffa1 	b.ne	847c0 <compiler_builtins::mem::__llvm_memmove_element_unordered_atomic_8+0x3c>  // b.any
   847d0:	d65f03c0 	ret

00000000000847d4 <compiler_builtins::mem::__llvm_memmove_element_unordered_atomic_16>:
   847d4:	d344fc48 	lsr	x8, x2, #4
   847d8:	eb00003f 	cmp	x1, x0
   847dc:	54000202 	b.cs	8481c <compiler_builtins::mem::__llvm_memmove_element_unordered_atomic_16+0x48>  // b.hs, b.nlast
   847e0:	b40003e2 	cbz	x2, 8485c <compiler_builtins::mem::__llvm_memmove_element_unordered_atomic_16+0x88>
   847e4:	d1004009 	sub	x9, x0, #0x10
   847e8:	d100402a 	sub	x10, x1, #0x10
   847ec:	d37ced0c 	lsl	x12, x8, #4
   847f0:	d1000508 	sub	x8, x8, #0x1
   847f4:	8b0c012b 	add	x11, x9, x12
   847f8:	8b0c014e 	add	x14, x10, x12
   847fc:	c87f35cc 	ldxp	x12, x13, [x14]
   84800:	c82f35cc 	stxp	w15, x12, x13, [x14]
   84804:	35ffffcf 	cbnz	w15, 847fc <compiler_builtins::mem::__llvm_memmove_element_unordered_atomic_16+0x28>
   84808:	c87f397f 	ldxp	xzr, x14, [x11]
   8480c:	c82e356c 	stxp	w14, x12, x13, [x11]
   84810:	35ffffce 	cbnz	w14, 84808 <compiler_builtins::mem::__llvm_memmove_element_unordered_atomic_16+0x34>
   84814:	b5fffec8 	cbnz	x8, 847ec <compiler_builtins::mem::__llvm_memmove_element_unordered_atomic_16+0x18>
   84818:	14000011 	b	8485c <compiler_builtins::mem::__llvm_memmove_element_unordered_atomic_16+0x88>
   8481c:	b4000202 	cbz	x2, 8485c <compiler_builtins::mem::__llvm_memmove_element_unordered_atomic_16+0x88>
   84820:	f100051f 	cmp	x8, #0x1
   84824:	aa1f03e9 	mov	x9, xzr
   84828:	9a9f8508 	csinc	x8, x8, xzr, hi  // hi = pmore
   8482c:	d37ced2b 	lsl	x11, x9, #4
   84830:	8b0b000a 	add	x10, x0, x11
   84834:	8b0b002d 	add	x13, x1, x11
   84838:	c87f31ab 	ldxp	x11, x12, [x13]
   8483c:	c82e31ab 	stxp	w14, x11, x12, [x13]
   84840:	35ffffce 	cbnz	w14, 84838 <compiler_builtins::mem::__llvm_memmove_element_unordered_atomic_16+0x64>
   84844:	c87f355f 	ldxp	xzr, x13, [x10]
   84848:	c82d314b 	stxp	w13, x11, x12, [x10]
   8484c:	35ffffcd 	cbnz	w13, 84844 <compiler_builtins::mem::__llvm_memmove_element_unordered_atomic_16+0x70>
   84850:	91000529 	add	x9, x9, #0x1
   84854:	eb08013f 	cmp	x9, x8
   84858:	54fffea1 	b.ne	8482c <compiler_builtins::mem::__llvm_memmove_element_unordered_atomic_16+0x58>  // b.any
   8485c:	d65f03c0 	ret

0000000000084860 <compiler_builtins::mem::__llvm_memset_element_unordered_atomic_1>:
   84860:	b4000082 	cbz	x2, 84870 <compiler_builtins::mem::__llvm_memset_element_unordered_atomic_1+0x10>
   84864:	f1000442 	subs	x2, x2, #0x1
   84868:	38001401 	strb	w1, [x0], #1
   8486c:	54ffffc1 	b.ne	84864 <compiler_builtins::mem::__llvm_memset_element_unordered_atomic_1+0x4>  // b.any
   84870:	d65f03c0 	ret

0000000000084874 <compiler_builtins::mem::__llvm_memset_element_unordered_atomic_2>:
   84874:	b4000122 	cbz	x2, 84898 <compiler_builtins::mem::__llvm_memset_element_unordered_atomic_2+0x24>
   84878:	12001c28 	and	w8, w1, #0xff
   8487c:	d341fc49 	lsr	x9, x2, #1
   84880:	f100053f 	cmp	x9, #0x1
   84884:	9a9f8529 	csinc	x9, x9, xzr, hi  // hi = pmore
   84888:	33181d08 	bfi	w8, w8, #8, #8
   8488c:	f1000529 	subs	x9, x9, #0x1
   84890:	78002408 	strh	w8, [x0], #2
   84894:	54ffffc1 	b.ne	8488c <compiler_builtins::mem::__llvm_memset_element_unordered_atomic_2+0x18>  // b.any
   84898:	d65f03c0 	ret

000000000008489c <compiler_builtins::mem::__llvm_memset_element_unordered_atomic_4>:
   8489c:	b4000142 	cbz	x2, 848c4 <compiler_builtins::mem::__llvm_memset_element_unordered_atomic_4+0x28>
   848a0:	12001c28 	and	w8, w1, #0xff
   848a4:	3200c3e9 	mov	w9, #0x1010101             	// #16843009
   848a8:	d342fc4a 	lsr	x10, x2, #2
   848ac:	1b097d08 	mul	w8, w8, w9
   848b0:	f100055f 	cmp	x10, #0x1
   848b4:	9a9f8549 	csinc	x9, x10, xzr, hi  // hi = pmore
   848b8:	f1000529 	subs	x9, x9, #0x1
   848bc:	b8004408 	str	w8, [x0], #4
   848c0:	54ffffc1 	b.ne	848b8 <compiler_builtins::mem::__llvm_memset_element_unordered_atomic_4+0x1c>  // b.any
   848c4:	d65f03c0 	ret

00000000000848c8 <compiler_builtins::mem::__llvm_memset_element_unordered_atomic_8>:
   848c8:	b4000142 	cbz	x2, 848f0 <compiler_builtins::mem::__llvm_memset_element_unordered_atomic_8+0x28>
   848cc:	92401c28 	and	x8, x1, #0xff
   848d0:	b200c3e9 	mov	x9, #0x101010101010101     	// #72340172838076673
   848d4:	d343fc4a 	lsr	x10, x2, #3
   848d8:	9b097d08 	mul	x8, x8, x9
   848dc:	f100055f 	cmp	x10, #0x1
   848e0:	9a9f8549 	csinc	x9, x10, xzr, hi  // hi = pmore
   848e4:	f1000529 	subs	x9, x9, #0x1
   848e8:	f8008408 	str	x8, [x0], #8
   848ec:	54ffffc1 	b.ne	848e4 <compiler_builtins::mem::__llvm_memset_element_unordered_atomic_8+0x1c>  // b.any
   848f0:	d65f03c0 	ret

00000000000848f4 <compiler_builtins::mem::__llvm_memset_element_unordered_atomic_16>:
   848f4:	b40001e2 	cbz	x2, 84930 <compiler_builtins::mem::__llvm_memset_element_unordered_atomic_16+0x3c>
   848f8:	92401c29 	and	x9, x1, #0xff
   848fc:	b200c3ea 	mov	x10, #0x101010101010101     	// #72340172838076673
   84900:	d344fc4b 	lsr	x11, x2, #4
   84904:	aa1f03e8 	mov	x8, xzr
   84908:	9b0a7d29 	mul	x9, x9, x10
   8490c:	f100057f 	cmp	x11, #0x1
   84910:	9a9f856a 	csinc	x10, x11, xzr, hi  // hi = pmore
   84914:	8b08100b 	add	x11, x0, x8, lsl #4
   84918:	c87f317f 	ldxp	xzr, x12, [x11]
   8491c:	c82c2569 	stxp	w12, x9, x9, [x11]
   84920:	35ffffcc 	cbnz	w12, 84918 <compiler_builtins::mem::__llvm_memset_element_unordered_atomic_16+0x24>
   84924:	91000508 	add	x8, x8, #0x1
   84928:	eb0a011f 	cmp	x8, x10
   8492c:	54ffff41 	b.ne	84914 <compiler_builtins::mem::__llvm_memset_element_unordered_atomic_16+0x20>  // b.any
   84930:	d65f03c0 	ret
